
FFBB_BlackPill.elf:     file format elf32-littlearm

Sections:
Idx Name          Size      VMA       LMA       File off  Algn
  0 .isr_vector   00000198  08000000  08000000  00001000  2**0
                  CONTENTS, ALLOC, LOAD, READONLY, DATA
  1 .text         0000bf6c  080001a0  080001a0  000011a0  2**4
                  CONTENTS, ALLOC, LOAD, READONLY, CODE
  2 .rodata       000008ec  0800c110  0800c110  0000d110  2**3
                  CONTENTS, ALLOC, LOAD, READONLY, DATA
  3 .ARM.extab    00000000  0800c9fc  0800c9fc  0000e2c8  2**0
                  CONTENTS, READONLY
  4 .ARM          00000008  0800c9fc  0800c9fc  0000d9fc  2**2
                  CONTENTS, ALLOC, LOAD, READONLY, DATA
  5 .preinit_array 00000000  0800ca04  0800ca04  0000e2c8  2**0
                  CONTENTS, ALLOC, LOAD, DATA
  6 .init_array   00000004  0800ca04  0800ca04  0000da04  2**2
                  CONTENTS, ALLOC, LOAD, READONLY, DATA
  7 .fini_array   00000004  0800ca08  0800ca08  0000da08  2**2
                  CONTENTS, ALLOC, LOAD, READONLY, DATA
  8 .data         000002c8  20000000  0800ca0c  0000e000  2**2
                  CONTENTS, ALLOC, LOAD, DATA
  9 .bss          00006df4  200002c8  0800ccd4  0000e2c8  2**3
                  ALLOC
 10 ._user_heap_stack 00000604  200070bc  0800ccd4  0000f0bc  2**0
                  ALLOC
 11 .ARM.attributes 00000030  00000000  00000000  0000e2c8  2**0
                  CONTENTS, READONLY
 12 .debug_info   0003254f  00000000  00000000  0000e2f8  2**0
                  CONTENTS, READONLY, DEBUGGING, OCTETS
 13 .debug_abbrev 000072d1  00000000  00000000  00040847  2**0
                  CONTENTS, READONLY, DEBUGGING, OCTETS
 14 .debug_loclists 00011693  00000000  00000000  00047b18  2**0
                  CONTENTS, READONLY, DEBUGGING, OCTETS
 15 .debug_aranges 00001b68  00000000  00000000  000591b0  2**3
                  CONTENTS, READONLY, DEBUGGING, OCTETS
 16 .debug_rnglists 00001ad1  00000000  00000000  0005ad18  2**0
                  CONTENTS, READONLY, DEBUGGING, OCTETS
 17 .debug_macro  0001db21  00000000  00000000  0005c7e9  2**0
                  CONTENTS, READONLY, DEBUGGING, OCTETS
 18 .debug_line   0002e11c  00000000  00000000  0007a30a  2**0
                  CONTENTS, READONLY, DEBUGGING, OCTETS
 19 .debug_str    000a2680  00000000  00000000  000a8426  2**0
                  CONTENTS, READONLY, DEBUGGING, OCTETS
 20 .comment      000000b8  00000000  00000000  0014aaa6  2**0
                  CONTENTS, READONLY
 21 .debug_frame  00005dd8  00000000  00000000  0014ab60  2**2
                  CONTENTS, READONLY, DEBUGGING, OCTETS
 22 .debug_line_str 00000069  00000000  00000000  00150938  2**0
                  CONTENTS, READONLY, DEBUGGING, OCTETS
 23 .debug_loc    000016fd  00000000  00000000  001509a1  2**0
                  CONTENTS, READONLY, DEBUGGING, OCTETS
 24 .debug_ranges 00000060  00000000  00000000  0015209e  2**0
                  CONTENTS, READONLY, DEBUGGING, OCTETS

Disassembly of section .text:

080001a0 <__do_global_dtors_aux>:
 80001a0:	b510      	push	{r4, lr}
 80001a2:	4c05      	ldr	r4, [pc, #20]	@ (80001b8 <__do_global_dtors_aux+0x18>)
 80001a4:	7823      	ldrb	r3, [r4, #0]
 80001a6:	b933      	cbnz	r3, 80001b6 <__do_global_dtors_aux+0x16>
 80001a8:	4b04      	ldr	r3, [pc, #16]	@ (80001bc <__do_global_dtors_aux+0x1c>)
 80001aa:	b113      	cbz	r3, 80001b2 <__do_global_dtors_aux+0x12>
 80001ac:	4804      	ldr	r0, [pc, #16]	@ (80001c0 <__do_global_dtors_aux+0x20>)
 80001ae:	f3af 8000 	nop.w
 80001b2:	2301      	movs	r3, #1
 80001b4:	7023      	strb	r3, [r4, #0]
 80001b6:	bd10      	pop	{r4, pc}
 80001b8:	200002c8 	.word	0x200002c8
 80001bc:	00000000 	.word	0x00000000
 80001c0:	0800c0f4 	.word	0x0800c0f4

080001c4 <frame_dummy>:
 80001c4:	b508      	push	{r3, lr}
 80001c6:	4b03      	ldr	r3, [pc, #12]	@ (80001d4 <frame_dummy+0x10>)
 80001c8:	b11b      	cbz	r3, 80001d2 <frame_dummy+0xe>
 80001ca:	4903      	ldr	r1, [pc, #12]	@ (80001d8 <frame_dummy+0x14>)
 80001cc:	4803      	ldr	r0, [pc, #12]	@ (80001dc <frame_dummy+0x18>)
 80001ce:	f3af 8000 	nop.w
 80001d2:	bd08      	pop	{r3, pc}
 80001d4:	00000000 	.word	0x00000000
 80001d8:	200002cc 	.word	0x200002cc
 80001dc:	0800c0f4 	.word	0x0800c0f4

080001e0 <memchr>:
 80001e0:	f001 01ff 	and.w	r1, r1, #255	@ 0xff
 80001e4:	2a10      	cmp	r2, #16
 80001e6:	db2b      	blt.n	8000240 <memchr+0x60>
 80001e8:	f010 0f07 	tst.w	r0, #7
 80001ec:	d008      	beq.n	8000200 <memchr+0x20>
 80001ee:	f810 3b01 	ldrb.w	r3, [r0], #1
 80001f2:	3a01      	subs	r2, #1
 80001f4:	428b      	cmp	r3, r1
 80001f6:	d02d      	beq.n	8000254 <memchr+0x74>
 80001f8:	f010 0f07 	tst.w	r0, #7
 80001fc:	b342      	cbz	r2, 8000250 <memchr+0x70>
 80001fe:	d1f6      	bne.n	80001ee <memchr+0xe>
 8000200:	b4f0      	push	{r4, r5, r6, r7}
 8000202:	ea41 2101 	orr.w	r1, r1, r1, lsl #8
 8000206:	ea41 4101 	orr.w	r1, r1, r1, lsl #16
 800020a:	f022 0407 	bic.w	r4, r2, #7
 800020e:	f07f 0700 	mvns.w	r7, #0
 8000212:	2300      	movs	r3, #0
 8000214:	e8f0 5602 	ldrd	r5, r6, [r0], #8
 8000218:	3c08      	subs	r4, #8
 800021a:	ea85 0501 	eor.w	r5, r5, r1
 800021e:	ea86 0601 	eor.w	r6, r6, r1
 8000222:	fa85 f547 	uadd8	r5, r5, r7
 8000226:	faa3 f587 	sel	r5, r3, r7
 800022a:	fa86 f647 	uadd8	r6, r6, r7
 800022e:	faa5 f687 	sel	r6, r5, r7
 8000232:	b98e      	cbnz	r6, 8000258 <memchr+0x78>
 8000234:	d1ee      	bne.n	8000214 <memchr+0x34>
 8000236:	bcf0      	pop	{r4, r5, r6, r7}
 8000238:	f001 01ff 	and.w	r1, r1, #255	@ 0xff
 800023c:	f002 0207 	and.w	r2, r2, #7
 8000240:	b132      	cbz	r2, 8000250 <memchr+0x70>
 8000242:	f810 3b01 	ldrb.w	r3, [r0], #1
 8000246:	3a01      	subs	r2, #1
 8000248:	ea83 0301 	eor.w	r3, r3, r1
 800024c:	b113      	cbz	r3, 8000254 <memchr+0x74>
 800024e:	d1f8      	bne.n	8000242 <memchr+0x62>
 8000250:	2000      	movs	r0, #0
 8000252:	4770      	bx	lr
 8000254:	3801      	subs	r0, #1
 8000256:	4770      	bx	lr
 8000258:	2d00      	cmp	r5, #0
 800025a:	bf06      	itte	eq
 800025c:	4635      	moveq	r5, r6
 800025e:	3803      	subeq	r0, #3
 8000260:	3807      	subne	r0, #7
 8000262:	f015 0f01 	tst.w	r5, #1
 8000266:	d107      	bne.n	8000278 <memchr+0x98>
 8000268:	3001      	adds	r0, #1
 800026a:	f415 7f80 	tst.w	r5, #256	@ 0x100
 800026e:	bf02      	ittt	eq
 8000270:	3001      	addeq	r0, #1
 8000272:	f415 3fc0 	tsteq.w	r5, #98304	@ 0x18000
 8000276:	3001      	addeq	r0, #1
 8000278:	bcf0      	pop	{r4, r5, r6, r7}
 800027a:	3801      	subs	r0, #1
 800027c:	4770      	bx	lr
 800027e:	bf00      	nop

08000280 <strlen>:
 8000280:	4603      	mov	r3, r0
 8000282:	f813 2b01 	ldrb.w	r2, [r3], #1
 8000286:	2a00      	cmp	r2, #0
 8000288:	d1fb      	bne.n	8000282 <strlen+0x2>
 800028a:	1a18      	subs	r0, r3, r0
 800028c:	3801      	subs	r0, #1
 800028e:	4770      	bx	lr

08000290 <__aeabi_drsub>:
 8000290:	f081 4100 	eor.w	r1, r1, #2147483648	@ 0x80000000
 8000294:	e002      	b.n	800029c <__adddf3>
 8000296:	bf00      	nop

08000298 <__aeabi_dsub>:
 8000298:	f083 4300 	eor.w	r3, r3, #2147483648	@ 0x80000000

0800029c <__adddf3>:
 800029c:	b530      	push	{r4, r5, lr}
 800029e:	ea4f 0441 	mov.w	r4, r1, lsl #1
 80002a2:	ea4f 0543 	mov.w	r5, r3, lsl #1
 80002a6:	ea94 0f05 	teq	r4, r5
 80002aa:	bf08      	it	eq
 80002ac:	ea90 0f02 	teqeq	r0, r2
 80002b0:	bf1f      	itttt	ne
 80002b2:	ea54 0c00 	orrsne.w	ip, r4, r0
 80002b6:	ea55 0c02 	orrsne.w	ip, r5, r2
 80002ba:	ea7f 5c64 	mvnsne.w	ip, r4, asr #21
 80002be:	ea7f 5c65 	mvnsne.w	ip, r5, asr #21
 80002c2:	f000 80e2 	beq.w	800048a <__adddf3+0x1ee>
 80002c6:	ea4f 5454 	mov.w	r4, r4, lsr #21
 80002ca:	ebd4 5555 	rsbs	r5, r4, r5, lsr #21
 80002ce:	bfb8      	it	lt
 80002d0:	426d      	neglt	r5, r5
 80002d2:	dd0c      	ble.n	80002ee <__adddf3+0x52>
 80002d4:	442c      	add	r4, r5
 80002d6:	ea80 0202 	eor.w	r2, r0, r2
 80002da:	ea81 0303 	eor.w	r3, r1, r3
 80002de:	ea82 0000 	eor.w	r0, r2, r0
 80002e2:	ea83 0101 	eor.w	r1, r3, r1
 80002e6:	ea80 0202 	eor.w	r2, r0, r2
 80002ea:	ea81 0303 	eor.w	r3, r1, r3
 80002ee:	2d36      	cmp	r5, #54	@ 0x36
 80002f0:	bf88      	it	hi
 80002f2:	bd30      	pophi	{r4, r5, pc}
 80002f4:	f011 4f00 	tst.w	r1, #2147483648	@ 0x80000000
 80002f8:	ea4f 3101 	mov.w	r1, r1, lsl #12
 80002fc:	f44f 1c80 	mov.w	ip, #1048576	@ 0x100000
 8000300:	ea4c 3111 	orr.w	r1, ip, r1, lsr #12
 8000304:	d002      	beq.n	800030c <__adddf3+0x70>
 8000306:	4240      	negs	r0, r0
 8000308:	eb61 0141 	sbc.w	r1, r1, r1, lsl #1
 800030c:	f013 4f00 	tst.w	r3, #2147483648	@ 0x80000000
 8000310:	ea4f 3303 	mov.w	r3, r3, lsl #12
 8000314:	ea4c 3313 	orr.w	r3, ip, r3, lsr #12
 8000318:	d002      	beq.n	8000320 <__adddf3+0x84>
 800031a:	4252      	negs	r2, r2
 800031c:	eb63 0343 	sbc.w	r3, r3, r3, lsl #1
 8000320:	ea94 0f05 	teq	r4, r5
 8000324:	f000 80a7 	beq.w	8000476 <__adddf3+0x1da>
 8000328:	f1a4 0401 	sub.w	r4, r4, #1
 800032c:	f1d5 0e20 	rsbs	lr, r5, #32
 8000330:	db0d      	blt.n	800034e <__adddf3+0xb2>
 8000332:	fa02 fc0e 	lsl.w	ip, r2, lr
 8000336:	fa22 f205 	lsr.w	r2, r2, r5
 800033a:	1880      	adds	r0, r0, r2
 800033c:	f141 0100 	adc.w	r1, r1, #0
 8000340:	fa03 f20e 	lsl.w	r2, r3, lr
 8000344:	1880      	adds	r0, r0, r2
 8000346:	fa43 f305 	asr.w	r3, r3, r5
 800034a:	4159      	adcs	r1, r3
 800034c:	e00e      	b.n	800036c <__adddf3+0xd0>
 800034e:	f1a5 0520 	sub.w	r5, r5, #32
 8000352:	f10e 0e20 	add.w	lr, lr, #32
 8000356:	2a01      	cmp	r2, #1
 8000358:	fa03 fc0e 	lsl.w	ip, r3, lr
 800035c:	bf28      	it	cs
 800035e:	f04c 0c02 	orrcs.w	ip, ip, #2
 8000362:	fa43 f305 	asr.w	r3, r3, r5
 8000366:	18c0      	adds	r0, r0, r3
 8000368:	eb51 71e3 	adcs.w	r1, r1, r3, asr #31
 800036c:	f001 4500 	and.w	r5, r1, #2147483648	@ 0x80000000
 8000370:	d507      	bpl.n	8000382 <__adddf3+0xe6>
 8000372:	f04f 0e00 	mov.w	lr, #0
 8000376:	f1dc 0c00 	rsbs	ip, ip, #0
 800037a:	eb7e 0000 	sbcs.w	r0, lr, r0
 800037e:	eb6e 0101 	sbc.w	r1, lr, r1
 8000382:	f5b1 1f80 	cmp.w	r1, #1048576	@ 0x100000
 8000386:	d31b      	bcc.n	80003c0 <__adddf3+0x124>
 8000388:	f5b1 1f00 	cmp.w	r1, #2097152	@ 0x200000
 800038c:	d30c      	bcc.n	80003a8 <__adddf3+0x10c>
 800038e:	0849      	lsrs	r1, r1, #1
 8000390:	ea5f 0030 	movs.w	r0, r0, rrx
 8000394:	ea4f 0c3c 	mov.w	ip, ip, rrx
 8000398:	f104 0401 	add.w	r4, r4, #1
 800039c:	ea4f 5244 	mov.w	r2, r4, lsl #21
 80003a0:	f512 0f80 	cmn.w	r2, #4194304	@ 0x400000
 80003a4:	f080 809a 	bcs.w	80004dc <__adddf3+0x240>
 80003a8:	f1bc 4f00 	cmp.w	ip, #2147483648	@ 0x80000000
 80003ac:	bf08      	it	eq
 80003ae:	ea5f 0c50 	movseq.w	ip, r0, lsr #1
 80003b2:	f150 0000 	adcs.w	r0, r0, #0
 80003b6:	eb41 5104 	adc.w	r1, r1, r4, lsl #20
 80003ba:	ea41 0105 	orr.w	r1, r1, r5
 80003be:	bd30      	pop	{r4, r5, pc}
 80003c0:	ea5f 0c4c 	movs.w	ip, ip, lsl #1
 80003c4:	4140      	adcs	r0, r0
 80003c6:	eb41 0101 	adc.w	r1, r1, r1
 80003ca:	3c01      	subs	r4, #1
 80003cc:	bf28      	it	cs
 80003ce:	f5b1 1f80 	cmpcs.w	r1, #1048576	@ 0x100000
 80003d2:	d2e9      	bcs.n	80003a8 <__adddf3+0x10c>
 80003d4:	f091 0f00 	teq	r1, #0
 80003d8:	bf04      	itt	eq
 80003da:	4601      	moveq	r1, r0
 80003dc:	2000      	moveq	r0, #0
 80003de:	fab1 f381 	clz	r3, r1
 80003e2:	bf08      	it	eq
 80003e4:	3320      	addeq	r3, #32
 80003e6:	f1a3 030b 	sub.w	r3, r3, #11
 80003ea:	f1b3 0220 	subs.w	r2, r3, #32
 80003ee:	da0c      	bge.n	800040a <__adddf3+0x16e>
 80003f0:	320c      	adds	r2, #12
 80003f2:	dd08      	ble.n	8000406 <__adddf3+0x16a>
 80003f4:	f102 0c14 	add.w	ip, r2, #20
 80003f8:	f1c2 020c 	rsb	r2, r2, #12
 80003fc:	fa01 f00c 	lsl.w	r0, r1, ip
 8000400:	fa21 f102 	lsr.w	r1, r1, r2
 8000404:	e00c      	b.n	8000420 <__adddf3+0x184>
 8000406:	f102 0214 	add.w	r2, r2, #20
 800040a:	bfd8      	it	le
 800040c:	f1c2 0c20 	rsble	ip, r2, #32
 8000410:	fa01 f102 	lsl.w	r1, r1, r2
 8000414:	fa20 fc0c 	lsr.w	ip, r0, ip
 8000418:	bfdc      	itt	le
 800041a:	ea41 010c 	orrle.w	r1, r1, ip
 800041e:	4090      	lslle	r0, r2
 8000420:	1ae4      	subs	r4, r4, r3
 8000422:	bfa2      	ittt	ge
 8000424:	eb01 5104 	addge.w	r1, r1, r4, lsl #20
 8000428:	4329      	orrge	r1, r5
 800042a:	bd30      	popge	{r4, r5, pc}
 800042c:	ea6f 0404 	mvn.w	r4, r4
 8000430:	3c1f      	subs	r4, #31
 8000432:	da1c      	bge.n	800046e <__adddf3+0x1d2>
 8000434:	340c      	adds	r4, #12
 8000436:	dc0e      	bgt.n	8000456 <__adddf3+0x1ba>
 8000438:	f104 0414 	add.w	r4, r4, #20
 800043c:	f1c4 0220 	rsb	r2, r4, #32
 8000440:	fa20 f004 	lsr.w	r0, r0, r4
 8000444:	fa01 f302 	lsl.w	r3, r1, r2
 8000448:	ea40 0003 	orr.w	r0, r0, r3
 800044c:	fa21 f304 	lsr.w	r3, r1, r4
 8000450:	ea45 0103 	orr.w	r1, r5, r3
 8000454:	bd30      	pop	{r4, r5, pc}
 8000456:	f1c4 040c 	rsb	r4, r4, #12
 800045a:	f1c4 0220 	rsb	r2, r4, #32
 800045e:	fa20 f002 	lsr.w	r0, r0, r2
 8000462:	fa01 f304 	lsl.w	r3, r1, r4
 8000466:	ea40 0003 	orr.w	r0, r0, r3
 800046a:	4629      	mov	r1, r5
 800046c:	bd30      	pop	{r4, r5, pc}
 800046e:	fa21 f004 	lsr.w	r0, r1, r4
 8000472:	4629      	mov	r1, r5
 8000474:	bd30      	pop	{r4, r5, pc}
 8000476:	f094 0f00 	teq	r4, #0
 800047a:	f483 1380 	eor.w	r3, r3, #1048576	@ 0x100000
 800047e:	bf06      	itte	eq
 8000480:	f481 1180 	eoreq.w	r1, r1, #1048576	@ 0x100000
 8000484:	3401      	addeq	r4, #1
 8000486:	3d01      	subne	r5, #1
 8000488:	e74e      	b.n	8000328 <__adddf3+0x8c>
 800048a:	ea7f 5c64 	mvns.w	ip, r4, asr #21
 800048e:	bf18      	it	ne
 8000490:	ea7f 5c65 	mvnsne.w	ip, r5, asr #21
 8000494:	d029      	beq.n	80004ea <__adddf3+0x24e>
 8000496:	ea94 0f05 	teq	r4, r5
 800049a:	bf08      	it	eq
 800049c:	ea90 0f02 	teqeq	r0, r2
 80004a0:	d005      	beq.n	80004ae <__adddf3+0x212>
 80004a2:	ea54 0c00 	orrs.w	ip, r4, r0
 80004a6:	bf04      	itt	eq
 80004a8:	4619      	moveq	r1, r3
 80004aa:	4610      	moveq	r0, r2
 80004ac:	bd30      	pop	{r4, r5, pc}
 80004ae:	ea91 0f03 	teq	r1, r3
 80004b2:	bf1e      	ittt	ne
 80004b4:	2100      	movne	r1, #0
 80004b6:	2000      	movne	r0, #0
 80004b8:	bd30      	popne	{r4, r5, pc}
 80004ba:	ea5f 5c54 	movs.w	ip, r4, lsr #21
 80004be:	d105      	bne.n	80004cc <__adddf3+0x230>
 80004c0:	0040      	lsls	r0, r0, #1
 80004c2:	4149      	adcs	r1, r1
 80004c4:	bf28      	it	cs
 80004c6:	f041 4100 	orrcs.w	r1, r1, #2147483648	@ 0x80000000
 80004ca:	bd30      	pop	{r4, r5, pc}
 80004cc:	f514 0480 	adds.w	r4, r4, #4194304	@ 0x400000
 80004d0:	bf3c      	itt	cc
 80004d2:	f501 1180 	addcc.w	r1, r1, #1048576	@ 0x100000
 80004d6:	bd30      	popcc	{r4, r5, pc}
 80004d8:	f001 4500 	and.w	r5, r1, #2147483648	@ 0x80000000
 80004dc:	f045 41fe 	orr.w	r1, r5, #2130706432	@ 0x7f000000
 80004e0:	f441 0170 	orr.w	r1, r1, #15728640	@ 0xf00000
 80004e4:	f04f 0000 	mov.w	r0, #0
 80004e8:	bd30      	pop	{r4, r5, pc}
 80004ea:	ea7f 5c64 	mvns.w	ip, r4, asr #21
 80004ee:	bf1a      	itte	ne
 80004f0:	4619      	movne	r1, r3
 80004f2:	4610      	movne	r0, r2
 80004f4:	ea7f 5c65 	mvnseq.w	ip, r5, asr #21
 80004f8:	bf1c      	itt	ne
 80004fa:	460b      	movne	r3, r1
 80004fc:	4602      	movne	r2, r0
 80004fe:	ea50 3401 	orrs.w	r4, r0, r1, lsl #12
 8000502:	bf06      	itte	eq
 8000504:	ea52 3503 	orrseq.w	r5, r2, r3, lsl #12
 8000508:	ea91 0f03 	teqeq	r1, r3
 800050c:	f441 2100 	orrne.w	r1, r1, #524288	@ 0x80000
 8000510:	bd30      	pop	{r4, r5, pc}
 8000512:	bf00      	nop

08000514 <__aeabi_ui2d>:
 8000514:	f090 0f00 	teq	r0, #0
 8000518:	bf04      	itt	eq
 800051a:	2100      	moveq	r1, #0
 800051c:	4770      	bxeq	lr
 800051e:	b530      	push	{r4, r5, lr}
 8000520:	f44f 6480 	mov.w	r4, #1024	@ 0x400
 8000524:	f104 0432 	add.w	r4, r4, #50	@ 0x32
 8000528:	f04f 0500 	mov.w	r5, #0
 800052c:	f04f 0100 	mov.w	r1, #0
 8000530:	e750      	b.n	80003d4 <__adddf3+0x138>
 8000532:	bf00      	nop

08000534 <__aeabi_i2d>:
 8000534:	f090 0f00 	teq	r0, #0
 8000538:	bf04      	itt	eq
 800053a:	2100      	moveq	r1, #0
 800053c:	4770      	bxeq	lr
 800053e:	b530      	push	{r4, r5, lr}
 8000540:	f44f 6480 	mov.w	r4, #1024	@ 0x400
 8000544:	f104 0432 	add.w	r4, r4, #50	@ 0x32
 8000548:	f010 4500 	ands.w	r5, r0, #2147483648	@ 0x80000000
 800054c:	bf48      	it	mi
 800054e:	4240      	negmi	r0, r0
 8000550:	f04f 0100 	mov.w	r1, #0
 8000554:	e73e      	b.n	80003d4 <__adddf3+0x138>
 8000556:	bf00      	nop

08000558 <__aeabi_f2d>:
 8000558:	0042      	lsls	r2, r0, #1
 800055a:	ea4f 01e2 	mov.w	r1, r2, asr #3
 800055e:	ea4f 0131 	mov.w	r1, r1, rrx
 8000562:	ea4f 7002 	mov.w	r0, r2, lsl #28
 8000566:	bf1f      	itttt	ne
 8000568:	f012 437f 	andsne.w	r3, r2, #4278190080	@ 0xff000000
 800056c:	f093 4f7f 	teqne	r3, #4278190080	@ 0xff000000
 8000570:	f081 5160 	eorne.w	r1, r1, #939524096	@ 0x38000000
 8000574:	4770      	bxne	lr
 8000576:	f032 427f 	bics.w	r2, r2, #4278190080	@ 0xff000000
 800057a:	bf08      	it	eq
 800057c:	4770      	bxeq	lr
 800057e:	f093 4f7f 	teq	r3, #4278190080	@ 0xff000000
 8000582:	bf04      	itt	eq
 8000584:	f441 2100 	orreq.w	r1, r1, #524288	@ 0x80000
 8000588:	4770      	bxeq	lr
 800058a:	b530      	push	{r4, r5, lr}
 800058c:	f44f 7460 	mov.w	r4, #896	@ 0x380
 8000590:	f001 4500 	and.w	r5, r1, #2147483648	@ 0x80000000
 8000594:	f021 4100 	bic.w	r1, r1, #2147483648	@ 0x80000000
 8000598:	e71c      	b.n	80003d4 <__adddf3+0x138>
 800059a:	bf00      	nop

0800059c <__aeabi_ul2d>:
 800059c:	ea50 0201 	orrs.w	r2, r0, r1
 80005a0:	bf08      	it	eq
 80005a2:	4770      	bxeq	lr
 80005a4:	b530      	push	{r4, r5, lr}
 80005a6:	f04f 0500 	mov.w	r5, #0
 80005aa:	e00a      	b.n	80005c2 <__aeabi_l2d+0x16>

080005ac <__aeabi_l2d>:
 80005ac:	ea50 0201 	orrs.w	r2, r0, r1
 80005b0:	bf08      	it	eq
 80005b2:	4770      	bxeq	lr
 80005b4:	b530      	push	{r4, r5, lr}
 80005b6:	f011 4500 	ands.w	r5, r1, #2147483648	@ 0x80000000
 80005ba:	d502      	bpl.n	80005c2 <__aeabi_l2d+0x16>
 80005bc:	4240      	negs	r0, r0
 80005be:	eb61 0141 	sbc.w	r1, r1, r1, lsl #1
 80005c2:	f44f 6480 	mov.w	r4, #1024	@ 0x400
 80005c6:	f104 0432 	add.w	r4, r4, #50	@ 0x32
 80005ca:	ea5f 5c91 	movs.w	ip, r1, lsr #22
 80005ce:	f43f aed8 	beq.w	8000382 <__adddf3+0xe6>
 80005d2:	f04f 0203 	mov.w	r2, #3
 80005d6:	ea5f 0cdc 	movs.w	ip, ip, lsr #3
 80005da:	bf18      	it	ne
 80005dc:	3203      	addne	r2, #3
 80005de:	ea5f 0cdc 	movs.w	ip, ip, lsr #3
 80005e2:	bf18      	it	ne
 80005e4:	3203      	addne	r2, #3
 80005e6:	eb02 02dc 	add.w	r2, r2, ip, lsr #3
 80005ea:	f1c2 0320 	rsb	r3, r2, #32
 80005ee:	fa00 fc03 	lsl.w	ip, r0, r3
 80005f2:	fa20 f002 	lsr.w	r0, r0, r2
 80005f6:	fa01 fe03 	lsl.w	lr, r1, r3
 80005fa:	ea40 000e 	orr.w	r0, r0, lr
 80005fe:	fa21 f102 	lsr.w	r1, r1, r2
 8000602:	4414      	add	r4, r2
 8000604:	e6bd      	b.n	8000382 <__adddf3+0xe6>
 8000606:	bf00      	nop

08000608 <__aeabi_dmul>:
 8000608:	b570      	push	{r4, r5, r6, lr}
 800060a:	f04f 0cff 	mov.w	ip, #255	@ 0xff
 800060e:	f44c 6ce0 	orr.w	ip, ip, #1792	@ 0x700
 8000612:	ea1c 5411 	ands.w	r4, ip, r1, lsr #20
 8000616:	bf1d      	ittte	ne
 8000618:	ea1c 5513 	andsne.w	r5, ip, r3, lsr #20
 800061c:	ea94 0f0c 	teqne	r4, ip
 8000620:	ea95 0f0c 	teqne	r5, ip
 8000624:	f000 f8de 	bleq	80007e4 <__aeabi_dmul+0x1dc>
 8000628:	442c      	add	r4, r5
 800062a:	ea81 0603 	eor.w	r6, r1, r3
 800062e:	ea21 514c 	bic.w	r1, r1, ip, lsl #21
 8000632:	ea23 534c 	bic.w	r3, r3, ip, lsl #21
 8000636:	ea50 3501 	orrs.w	r5, r0, r1, lsl #12
 800063a:	bf18      	it	ne
 800063c:	ea52 3503 	orrsne.w	r5, r2, r3, lsl #12
 8000640:	f441 1180 	orr.w	r1, r1, #1048576	@ 0x100000
 8000644:	f443 1380 	orr.w	r3, r3, #1048576	@ 0x100000
 8000648:	d038      	beq.n	80006bc <__aeabi_dmul+0xb4>
 800064a:	fba0 ce02 	umull	ip, lr, r0, r2
 800064e:	f04f 0500 	mov.w	r5, #0
 8000652:	fbe1 e502 	umlal	lr, r5, r1, r2
 8000656:	f006 4200 	and.w	r2, r6, #2147483648	@ 0x80000000
 800065a:	fbe0 e503 	umlal	lr, r5, r0, r3
 800065e:	f04f 0600 	mov.w	r6, #0
 8000662:	fbe1 5603 	umlal	r5, r6, r1, r3
 8000666:	f09c 0f00 	teq	ip, #0
 800066a:	bf18      	it	ne
 800066c:	f04e 0e01 	orrne.w	lr, lr, #1
 8000670:	f1a4 04ff 	sub.w	r4, r4, #255	@ 0xff
 8000674:	f5b6 7f00 	cmp.w	r6, #512	@ 0x200
 8000678:	f564 7440 	sbc.w	r4, r4, #768	@ 0x300
 800067c:	d204      	bcs.n	8000688 <__aeabi_dmul+0x80>
 800067e:	ea5f 0e4e 	movs.w	lr, lr, lsl #1
 8000682:	416d      	adcs	r5, r5
 8000684:	eb46 0606 	adc.w	r6, r6, r6
 8000688:	ea42 21c6 	orr.w	r1, r2, r6, lsl #11
 800068c:	ea41 5155 	orr.w	r1, r1, r5, lsr #21
 8000690:	ea4f 20c5 	mov.w	r0, r5, lsl #11
 8000694:	ea40 505e 	orr.w	r0, r0, lr, lsr #21
 8000698:	ea4f 2ece 	mov.w	lr, lr, lsl #11
 800069c:	f1b4 0cfd 	subs.w	ip, r4, #253	@ 0xfd
 80006a0:	bf88      	it	hi
 80006a2:	f5bc 6fe0 	cmphi.w	ip, #1792	@ 0x700
 80006a6:	d81e      	bhi.n	80006e6 <__aeabi_dmul+0xde>
 80006a8:	f1be 4f00 	cmp.w	lr, #2147483648	@ 0x80000000
 80006ac:	bf08      	it	eq
 80006ae:	ea5f 0e50 	movseq.w	lr, r0, lsr #1
 80006b2:	f150 0000 	adcs.w	r0, r0, #0
 80006b6:	eb41 5104 	adc.w	r1, r1, r4, lsl #20
 80006ba:	bd70      	pop	{r4, r5, r6, pc}
 80006bc:	f006 4600 	and.w	r6, r6, #2147483648	@ 0x80000000
 80006c0:	ea46 0101 	orr.w	r1, r6, r1
 80006c4:	ea40 0002 	orr.w	r0, r0, r2
 80006c8:	ea81 0103 	eor.w	r1, r1, r3
 80006cc:	ebb4 045c 	subs.w	r4, r4, ip, lsr #1
 80006d0:	bfc2      	ittt	gt
 80006d2:	ebd4 050c 	rsbsgt	r5, r4, ip
 80006d6:	ea41 5104 	orrgt.w	r1, r1, r4, lsl #20
 80006da:	bd70      	popgt	{r4, r5, r6, pc}
 80006dc:	f441 1180 	orr.w	r1, r1, #1048576	@ 0x100000
 80006e0:	f04f 0e00 	mov.w	lr, #0
 80006e4:	3c01      	subs	r4, #1
 80006e6:	f300 80ab 	bgt.w	8000840 <__aeabi_dmul+0x238>
 80006ea:	f114 0f36 	cmn.w	r4, #54	@ 0x36
 80006ee:	bfde      	ittt	le
 80006f0:	2000      	movle	r0, #0
 80006f2:	f001 4100 	andle.w	r1, r1, #2147483648	@ 0x80000000
 80006f6:	bd70      	pople	{r4, r5, r6, pc}
 80006f8:	f1c4 0400 	rsb	r4, r4, #0
 80006fc:	3c20      	subs	r4, #32
 80006fe:	da35      	bge.n	800076c <__aeabi_dmul+0x164>
 8000700:	340c      	adds	r4, #12
 8000702:	dc1b      	bgt.n	800073c <__aeabi_dmul+0x134>
 8000704:	f104 0414 	add.w	r4, r4, #20
 8000708:	f1c4 0520 	rsb	r5, r4, #32
 800070c:	fa00 f305 	lsl.w	r3, r0, r5
 8000710:	fa20 f004 	lsr.w	r0, r0, r4
 8000714:	fa01 f205 	lsl.w	r2, r1, r5
 8000718:	ea40 0002 	orr.w	r0, r0, r2
 800071c:	f001 4200 	and.w	r2, r1, #2147483648	@ 0x80000000
 8000720:	f021 4100 	bic.w	r1, r1, #2147483648	@ 0x80000000
 8000724:	eb10 70d3 	adds.w	r0, r0, r3, lsr #31
 8000728:	fa21 f604 	lsr.w	r6, r1, r4
 800072c:	eb42 0106 	adc.w	r1, r2, r6
 8000730:	ea5e 0e43 	orrs.w	lr, lr, r3, lsl #1
 8000734:	bf08      	it	eq
 8000736:	ea20 70d3 	biceq.w	r0, r0, r3, lsr #31
 800073a:	bd70      	pop	{r4, r5, r6, pc}
 800073c:	f1c4 040c 	rsb	r4, r4, #12
 8000740:	f1c4 0520 	rsb	r5, r4, #32
 8000744:	fa00 f304 	lsl.w	r3, r0, r4
 8000748:	fa20 f005 	lsr.w	r0, r0, r5
 800074c:	fa01 f204 	lsl.w	r2, r1, r4
 8000750:	ea40 0002 	orr.w	r0, r0, r2
 8000754:	f001 4100 	and.w	r1, r1, #2147483648	@ 0x80000000
 8000758:	eb10 70d3 	adds.w	r0, r0, r3, lsr #31
 800075c:	f141 0100 	adc.w	r1, r1, #0
 8000760:	ea5e 0e43 	orrs.w	lr, lr, r3, lsl #1
 8000764:	bf08      	it	eq
 8000766:	ea20 70d3 	biceq.w	r0, r0, r3, lsr #31
 800076a:	bd70      	pop	{r4, r5, r6, pc}
 800076c:	f1c4 0520 	rsb	r5, r4, #32
 8000770:	fa00 f205 	lsl.w	r2, r0, r5
 8000774:	ea4e 0e02 	orr.w	lr, lr, r2
 8000778:	fa20 f304 	lsr.w	r3, r0, r4
 800077c:	fa01 f205 	lsl.w	r2, r1, r5
 8000780:	ea43 0302 	orr.w	r3, r3, r2
 8000784:	fa21 f004 	lsr.w	r0, r1, r4
 8000788:	f001 4100 	and.w	r1, r1, #2147483648	@ 0x80000000
 800078c:	fa21 f204 	lsr.w	r2, r1, r4
 8000790:	ea20 0002 	bic.w	r0, r0, r2
 8000794:	eb00 70d3 	add.w	r0, r0, r3, lsr #31
 8000798:	ea5e 0e43 	orrs.w	lr, lr, r3, lsl #1
 800079c:	bf08      	it	eq
 800079e:	ea20 70d3 	biceq.w	r0, r0, r3, lsr #31
 80007a2:	bd70      	pop	{r4, r5, r6, pc}
 80007a4:	f094 0f00 	teq	r4, #0
 80007a8:	d10f      	bne.n	80007ca <__aeabi_dmul+0x1c2>
 80007aa:	f001 4600 	and.w	r6, r1, #2147483648	@ 0x80000000
 80007ae:	0040      	lsls	r0, r0, #1
 80007b0:	eb41 0101 	adc.w	r1, r1, r1
 80007b4:	f411 1f80 	tst.w	r1, #1048576	@ 0x100000
 80007b8:	bf08      	it	eq
 80007ba:	3c01      	subeq	r4, #1
 80007bc:	d0f7      	beq.n	80007ae <__aeabi_dmul+0x1a6>
 80007be:	ea41 0106 	orr.w	r1, r1, r6
 80007c2:	f095 0f00 	teq	r5, #0
 80007c6:	bf18      	it	ne
 80007c8:	4770      	bxne	lr
 80007ca:	f003 4600 	and.w	r6, r3, #2147483648	@ 0x80000000
 80007ce:	0052      	lsls	r2, r2, #1
 80007d0:	eb43 0303 	adc.w	r3, r3, r3
 80007d4:	f413 1f80 	tst.w	r3, #1048576	@ 0x100000
 80007d8:	bf08      	it	eq
 80007da:	3d01      	subeq	r5, #1
 80007dc:	d0f7      	beq.n	80007ce <__aeabi_dmul+0x1c6>
 80007de:	ea43 0306 	orr.w	r3, r3, r6
 80007e2:	4770      	bx	lr
 80007e4:	ea94 0f0c 	teq	r4, ip
 80007e8:	ea0c 5513 	and.w	r5, ip, r3, lsr #20
 80007ec:	bf18      	it	ne
 80007ee:	ea95 0f0c 	teqne	r5, ip
 80007f2:	d00c      	beq.n	800080e <__aeabi_dmul+0x206>
 80007f4:	ea50 0641 	orrs.w	r6, r0, r1, lsl #1
 80007f8:	bf18      	it	ne
 80007fa:	ea52 0643 	orrsne.w	r6, r2, r3, lsl #1
 80007fe:	d1d1      	bne.n	80007a4 <__aeabi_dmul+0x19c>
 8000800:	ea81 0103 	eor.w	r1, r1, r3
 8000804:	f001 4100 	and.w	r1, r1, #2147483648	@ 0x80000000
 8000808:	f04f 0000 	mov.w	r0, #0
 800080c:	bd70      	pop	{r4, r5, r6, pc}
 800080e:	ea50 0641 	orrs.w	r6, r0, r1, lsl #1
 8000812:	bf06      	itte	eq
 8000814:	4610      	moveq	r0, r2
 8000816:	4619      	moveq	r1, r3
 8000818:	ea52 0643 	orrsne.w	r6, r2, r3, lsl #1
 800081c:	d019      	beq.n	8000852 <__aeabi_dmul+0x24a>
 800081e:	ea94 0f0c 	teq	r4, ip
 8000822:	d102      	bne.n	800082a <__aeabi_dmul+0x222>
 8000824:	ea50 3601 	orrs.w	r6, r0, r1, lsl #12
 8000828:	d113      	bne.n	8000852 <__aeabi_dmul+0x24a>
 800082a:	ea95 0f0c 	teq	r5, ip
 800082e:	d105      	bne.n	800083c <__aeabi_dmul+0x234>
 8000830:	ea52 3603 	orrs.w	r6, r2, r3, lsl #12
 8000834:	bf1c      	itt	ne
 8000836:	4610      	movne	r0, r2
 8000838:	4619      	movne	r1, r3
 800083a:	d10a      	bne.n	8000852 <__aeabi_dmul+0x24a>
 800083c:	ea81 0103 	eor.w	r1, r1, r3
 8000840:	f001 4100 	and.w	r1, r1, #2147483648	@ 0x80000000
 8000844:	f041 41fe 	orr.w	r1, r1, #2130706432	@ 0x7f000000
 8000848:	f441 0170 	orr.w	r1, r1, #15728640	@ 0xf00000
 800084c:	f04f 0000 	mov.w	r0, #0
 8000850:	bd70      	pop	{r4, r5, r6, pc}
 8000852:	f041 41fe 	orr.w	r1, r1, #2130706432	@ 0x7f000000
 8000856:	f441 0178 	orr.w	r1, r1, #16252928	@ 0xf80000
 800085a:	bd70      	pop	{r4, r5, r6, pc}

0800085c <__aeabi_ddiv>:
 800085c:	b570      	push	{r4, r5, r6, lr}
 800085e:	f04f 0cff 	mov.w	ip, #255	@ 0xff
 8000862:	f44c 6ce0 	orr.w	ip, ip, #1792	@ 0x700
 8000866:	ea1c 5411 	ands.w	r4, ip, r1, lsr #20
 800086a:	bf1d      	ittte	ne
 800086c:	ea1c 5513 	andsne.w	r5, ip, r3, lsr #20
 8000870:	ea94 0f0c 	teqne	r4, ip
 8000874:	ea95 0f0c 	teqne	r5, ip
 8000878:	f000 f8a7 	bleq	80009ca <__aeabi_ddiv+0x16e>
 800087c:	eba4 0405 	sub.w	r4, r4, r5
 8000880:	ea81 0e03 	eor.w	lr, r1, r3
 8000884:	ea52 3503 	orrs.w	r5, r2, r3, lsl #12
 8000888:	ea4f 3101 	mov.w	r1, r1, lsl #12
 800088c:	f000 8088 	beq.w	80009a0 <__aeabi_ddiv+0x144>
 8000890:	ea4f 3303 	mov.w	r3, r3, lsl #12
 8000894:	f04f 5580 	mov.w	r5, #268435456	@ 0x10000000
 8000898:	ea45 1313 	orr.w	r3, r5, r3, lsr #4
 800089c:	ea43 6312 	orr.w	r3, r3, r2, lsr #24
 80008a0:	ea4f 2202 	mov.w	r2, r2, lsl #8
 80008a4:	ea45 1511 	orr.w	r5, r5, r1, lsr #4
 80008a8:	ea45 6510 	orr.w	r5, r5, r0, lsr #24
 80008ac:	ea4f 2600 	mov.w	r6, r0, lsl #8
 80008b0:	f00e 4100 	and.w	r1, lr, #2147483648	@ 0x80000000
 80008b4:	429d      	cmp	r5, r3
 80008b6:	bf08      	it	eq
 80008b8:	4296      	cmpeq	r6, r2
 80008ba:	f144 04fd 	adc.w	r4, r4, #253	@ 0xfd
 80008be:	f504 7440 	add.w	r4, r4, #768	@ 0x300
 80008c2:	d202      	bcs.n	80008ca <__aeabi_ddiv+0x6e>
 80008c4:	085b      	lsrs	r3, r3, #1
 80008c6:	ea4f 0232 	mov.w	r2, r2, rrx
 80008ca:	1ab6      	subs	r6, r6, r2
 80008cc:	eb65 0503 	sbc.w	r5, r5, r3
 80008d0:	085b      	lsrs	r3, r3, #1
 80008d2:	ea4f 0232 	mov.w	r2, r2, rrx
 80008d6:	f44f 1080 	mov.w	r0, #1048576	@ 0x100000
 80008da:	f44f 2c00 	mov.w	ip, #524288	@ 0x80000
 80008de:	ebb6 0e02 	subs.w	lr, r6, r2
 80008e2:	eb75 0e03 	sbcs.w	lr, r5, r3
 80008e6:	bf22      	ittt	cs
 80008e8:	1ab6      	subcs	r6, r6, r2
 80008ea:	4675      	movcs	r5, lr
 80008ec:	ea40 000c 	orrcs.w	r0, r0, ip
 80008f0:	085b      	lsrs	r3, r3, #1
 80008f2:	ea4f 0232 	mov.w	r2, r2, rrx
 80008f6:	ebb6 0e02 	subs.w	lr, r6, r2
 80008fa:	eb75 0e03 	sbcs.w	lr, r5, r3
 80008fe:	bf22      	ittt	cs
 8000900:	1ab6      	subcs	r6, r6, r2
 8000902:	4675      	movcs	r5, lr
 8000904:	ea40 005c 	orrcs.w	r0, r0, ip, lsr #1
 8000908:	085b      	lsrs	r3, r3, #1
 800090a:	ea4f 0232 	mov.w	r2, r2, rrx
 800090e:	ebb6 0e02 	subs.w	lr, r6, r2
 8000912:	eb75 0e03 	sbcs.w	lr, r5, r3
 8000916:	bf22      	ittt	cs
 8000918:	1ab6      	subcs	r6, r6, r2
 800091a:	4675      	movcs	r5, lr
 800091c:	ea40 009c 	orrcs.w	r0, r0, ip, lsr #2
 8000920:	085b      	lsrs	r3, r3, #1
 8000922:	ea4f 0232 	mov.w	r2, r2, rrx
 8000926:	ebb6 0e02 	subs.w	lr, r6, r2
 800092a:	eb75 0e03 	sbcs.w	lr, r5, r3
 800092e:	bf22      	ittt	cs
 8000930:	1ab6      	subcs	r6, r6, r2
 8000932:	4675      	movcs	r5, lr
 8000934:	ea40 00dc 	orrcs.w	r0, r0, ip, lsr #3
 8000938:	ea55 0e06 	orrs.w	lr, r5, r6
 800093c:	d018      	beq.n	8000970 <__aeabi_ddiv+0x114>
 800093e:	ea4f 1505 	mov.w	r5, r5, lsl #4
 8000942:	ea45 7516 	orr.w	r5, r5, r6, lsr #28
 8000946:	ea4f 1606 	mov.w	r6, r6, lsl #4
 800094a:	ea4f 03c3 	mov.w	r3, r3, lsl #3
 800094e:	ea43 7352 	orr.w	r3, r3, r2, lsr #29
 8000952:	ea4f 02c2 	mov.w	r2, r2, lsl #3
 8000956:	ea5f 1c1c 	movs.w	ip, ip, lsr #4
 800095a:	d1c0      	bne.n	80008de <__aeabi_ddiv+0x82>
 800095c:	f411 1f80 	tst.w	r1, #1048576	@ 0x100000
 8000960:	d10b      	bne.n	800097a <__aeabi_ddiv+0x11e>
 8000962:	ea41 0100 	orr.w	r1, r1, r0
 8000966:	f04f 0000 	mov.w	r0, #0
 800096a:	f04f 4c00 	mov.w	ip, #2147483648	@ 0x80000000
 800096e:	e7b6      	b.n	80008de <__aeabi_ddiv+0x82>
 8000970:	f411 1f80 	tst.w	r1, #1048576	@ 0x100000
 8000974:	bf04      	itt	eq
 8000976:	4301      	orreq	r1, r0
 8000978:	2000      	moveq	r0, #0
 800097a:	f1b4 0cfd 	subs.w	ip, r4, #253	@ 0xfd
 800097e:	bf88      	it	hi
 8000980:	f5bc 6fe0 	cmphi.w	ip, #1792	@ 0x700
 8000984:	f63f aeaf 	bhi.w	80006e6 <__aeabi_dmul+0xde>
 8000988:	ebb5 0c03 	subs.w	ip, r5, r3
 800098c:	bf04      	itt	eq
 800098e:	ebb6 0c02 	subseq.w	ip, r6, r2
 8000992:	ea5f 0c50 	movseq.w	ip, r0, lsr #1
 8000996:	f150 0000 	adcs.w	r0, r0, #0
 800099a:	eb41 5104 	adc.w	r1, r1, r4, lsl #20
 800099e:	bd70      	pop	{r4, r5, r6, pc}
 80009a0:	f00e 4e00 	and.w	lr, lr, #2147483648	@ 0x80000000
 80009a4:	ea4e 3111 	orr.w	r1, lr, r1, lsr #12
 80009a8:	eb14 045c 	adds.w	r4, r4, ip, lsr #1
 80009ac:	bfc2      	ittt	gt
 80009ae:	ebd4 050c 	rsbsgt	r5, r4, ip
 80009b2:	ea41 5104 	orrgt.w	r1, r1, r4, lsl #20
 80009b6:	bd70      	popgt	{r4, r5, r6, pc}
 80009b8:	f441 1180 	orr.w	r1, r1, #1048576	@ 0x100000
 80009bc:	f04f 0e00 	mov.w	lr, #0
 80009c0:	3c01      	subs	r4, #1
 80009c2:	e690      	b.n	80006e6 <__aeabi_dmul+0xde>
 80009c4:	ea45 0e06 	orr.w	lr, r5, r6
 80009c8:	e68d      	b.n	80006e6 <__aeabi_dmul+0xde>
 80009ca:	ea0c 5513 	and.w	r5, ip, r3, lsr #20
 80009ce:	ea94 0f0c 	teq	r4, ip
 80009d2:	bf08      	it	eq
 80009d4:	ea95 0f0c 	teqeq	r5, ip
 80009d8:	f43f af3b 	beq.w	8000852 <__aeabi_dmul+0x24a>
 80009dc:	ea94 0f0c 	teq	r4, ip
 80009e0:	d10a      	bne.n	80009f8 <__aeabi_ddiv+0x19c>
 80009e2:	ea50 3401 	orrs.w	r4, r0, r1, lsl #12
 80009e6:	f47f af34 	bne.w	8000852 <__aeabi_dmul+0x24a>
 80009ea:	ea95 0f0c 	teq	r5, ip
 80009ee:	f47f af25 	bne.w	800083c <__aeabi_dmul+0x234>
 80009f2:	4610      	mov	r0, r2
 80009f4:	4619      	mov	r1, r3
 80009f6:	e72c      	b.n	8000852 <__aeabi_dmul+0x24a>
 80009f8:	ea95 0f0c 	teq	r5, ip
 80009fc:	d106      	bne.n	8000a0c <__aeabi_ddiv+0x1b0>
 80009fe:	ea52 3503 	orrs.w	r5, r2, r3, lsl #12
 8000a02:	f43f aefd 	beq.w	8000800 <__aeabi_dmul+0x1f8>
 8000a06:	4610      	mov	r0, r2
 8000a08:	4619      	mov	r1, r3
 8000a0a:	e722      	b.n	8000852 <__aeabi_dmul+0x24a>
 8000a0c:	ea50 0641 	orrs.w	r6, r0, r1, lsl #1
 8000a10:	bf18      	it	ne
 8000a12:	ea52 0643 	orrsne.w	r6, r2, r3, lsl #1
 8000a16:	f47f aec5 	bne.w	80007a4 <__aeabi_dmul+0x19c>
 8000a1a:	ea50 0441 	orrs.w	r4, r0, r1, lsl #1
 8000a1e:	f47f af0d 	bne.w	800083c <__aeabi_dmul+0x234>
 8000a22:	ea52 0543 	orrs.w	r5, r2, r3, lsl #1
 8000a26:	f47f aeeb 	bne.w	8000800 <__aeabi_dmul+0x1f8>
 8000a2a:	e712      	b.n	8000852 <__aeabi_dmul+0x24a>

08000a2c <__gedf2>:
 8000a2c:	f04f 3cff 	mov.w	ip, #4294967295
 8000a30:	e006      	b.n	8000a40 <__cmpdf2+0x4>
 8000a32:	bf00      	nop

08000a34 <__ledf2>:
 8000a34:	f04f 0c01 	mov.w	ip, #1
 8000a38:	e002      	b.n	8000a40 <__cmpdf2+0x4>
 8000a3a:	bf00      	nop

08000a3c <__cmpdf2>:
 8000a3c:	f04f 0c01 	mov.w	ip, #1
 8000a40:	f84d cd04 	str.w	ip, [sp, #-4]!
 8000a44:	ea4f 0c41 	mov.w	ip, r1, lsl #1
 8000a48:	ea7f 5c6c 	mvns.w	ip, ip, asr #21
 8000a4c:	ea4f 0c43 	mov.w	ip, r3, lsl #1
 8000a50:	bf18      	it	ne
 8000a52:	ea7f 5c6c 	mvnsne.w	ip, ip, asr #21
 8000a56:	d01b      	beq.n	8000a90 <__cmpdf2+0x54>
 8000a58:	b001      	add	sp, #4
 8000a5a:	ea50 0c41 	orrs.w	ip, r0, r1, lsl #1
 8000a5e:	bf0c      	ite	eq
 8000a60:	ea52 0c43 	orrseq.w	ip, r2, r3, lsl #1
 8000a64:	ea91 0f03 	teqne	r1, r3
 8000a68:	bf02      	ittt	eq
 8000a6a:	ea90 0f02 	teqeq	r0, r2
 8000a6e:	2000      	moveq	r0, #0
 8000a70:	4770      	bxeq	lr
 8000a72:	f110 0f00 	cmn.w	r0, #0
 8000a76:	ea91 0f03 	teq	r1, r3
 8000a7a:	bf58      	it	pl
 8000a7c:	4299      	cmppl	r1, r3
 8000a7e:	bf08      	it	eq
 8000a80:	4290      	cmpeq	r0, r2
 8000a82:	bf2c      	ite	cs
 8000a84:	17d8      	asrcs	r0, r3, #31
 8000a86:	ea6f 70e3 	mvncc.w	r0, r3, asr #31
 8000a8a:	f040 0001 	orr.w	r0, r0, #1
 8000a8e:	4770      	bx	lr
 8000a90:	ea4f 0c41 	mov.w	ip, r1, lsl #1
 8000a94:	ea7f 5c6c 	mvns.w	ip, ip, asr #21
 8000a98:	d102      	bne.n	8000aa0 <__cmpdf2+0x64>
 8000a9a:	ea50 3c01 	orrs.w	ip, r0, r1, lsl #12
 8000a9e:	d107      	bne.n	8000ab0 <__cmpdf2+0x74>
 8000aa0:	ea4f 0c43 	mov.w	ip, r3, lsl #1
 8000aa4:	ea7f 5c6c 	mvns.w	ip, ip, asr #21
 8000aa8:	d1d6      	bne.n	8000a58 <__cmpdf2+0x1c>
 8000aaa:	ea52 3c03 	orrs.w	ip, r2, r3, lsl #12
 8000aae:	d0d3      	beq.n	8000a58 <__cmpdf2+0x1c>
 8000ab0:	f85d 0b04 	ldr.w	r0, [sp], #4
 8000ab4:	4770      	bx	lr
 8000ab6:	bf00      	nop

08000ab8 <__aeabi_cdrcmple>:
 8000ab8:	4684      	mov	ip, r0
 8000aba:	4610      	mov	r0, r2
 8000abc:	4662      	mov	r2, ip
 8000abe:	468c      	mov	ip, r1
 8000ac0:	4619      	mov	r1, r3
 8000ac2:	4663      	mov	r3, ip
 8000ac4:	e000      	b.n	8000ac8 <__aeabi_cdcmpeq>
 8000ac6:	bf00      	nop

08000ac8 <__aeabi_cdcmpeq>:
 8000ac8:	b501      	push	{r0, lr}
 8000aca:	f7ff ffb7 	bl	8000a3c <__cmpdf2>
 8000ace:	2800      	cmp	r0, #0
 8000ad0:	bf48      	it	mi
 8000ad2:	f110 0f00 	cmnmi.w	r0, #0
 8000ad6:	bd01      	pop	{r0, pc}

08000ad8 <__aeabi_dcmpeq>:
 8000ad8:	f84d ed08 	str.w	lr, [sp, #-8]!
 8000adc:	f7ff fff4 	bl	8000ac8 <__aeabi_cdcmpeq>
 8000ae0:	bf0c      	ite	eq
 8000ae2:	2001      	moveq	r0, #1
 8000ae4:	2000      	movne	r0, #0
 8000ae6:	f85d fb08 	ldr.w	pc, [sp], #8
 8000aea:	bf00      	nop

08000aec <__aeabi_dcmplt>:
 8000aec:	f84d ed08 	str.w	lr, [sp, #-8]!
 8000af0:	f7ff ffea 	bl	8000ac8 <__aeabi_cdcmpeq>
 8000af4:	bf34      	ite	cc
 8000af6:	2001      	movcc	r0, #1
 8000af8:	2000      	movcs	r0, #0
 8000afa:	f85d fb08 	ldr.w	pc, [sp], #8
 8000afe:	bf00      	nop

08000b00 <__aeabi_dcmple>:
 8000b00:	f84d ed08 	str.w	lr, [sp, #-8]!
 8000b04:	f7ff ffe0 	bl	8000ac8 <__aeabi_cdcmpeq>
 8000b08:	bf94      	ite	ls
 8000b0a:	2001      	movls	r0, #1
 8000b0c:	2000      	movhi	r0, #0
 8000b0e:	f85d fb08 	ldr.w	pc, [sp], #8
 8000b12:	bf00      	nop

08000b14 <__aeabi_dcmpge>:
 8000b14:	f84d ed08 	str.w	lr, [sp, #-8]!
 8000b18:	f7ff ffce 	bl	8000ab8 <__aeabi_cdrcmple>
 8000b1c:	bf94      	ite	ls
 8000b1e:	2001      	movls	r0, #1
 8000b20:	2000      	movhi	r0, #0
 8000b22:	f85d fb08 	ldr.w	pc, [sp], #8
 8000b26:	bf00      	nop

08000b28 <__aeabi_dcmpgt>:
 8000b28:	f84d ed08 	str.w	lr, [sp, #-8]!
 8000b2c:	f7ff ffc4 	bl	8000ab8 <__aeabi_cdrcmple>
 8000b30:	bf34      	ite	cc
 8000b32:	2001      	movcc	r0, #1
 8000b34:	2000      	movcs	r0, #0
 8000b36:	f85d fb08 	ldr.w	pc, [sp], #8
 8000b3a:	bf00      	nop

08000b3c <__aeabi_dcmpun>:
 8000b3c:	ea4f 0c41 	mov.w	ip, r1, lsl #1
 8000b40:	ea7f 5c6c 	mvns.w	ip, ip, asr #21
 8000b44:	d102      	bne.n	8000b4c <__aeabi_dcmpun+0x10>
 8000b46:	ea50 3c01 	orrs.w	ip, r0, r1, lsl #12
 8000b4a:	d10a      	bne.n	8000b62 <__aeabi_dcmpun+0x26>
 8000b4c:	ea4f 0c43 	mov.w	ip, r3, lsl #1
 8000b50:	ea7f 5c6c 	mvns.w	ip, ip, asr #21
 8000b54:	d102      	bne.n	8000b5c <__aeabi_dcmpun+0x20>
 8000b56:	ea52 3c03 	orrs.w	ip, r2, r3, lsl #12
 8000b5a:	d102      	bne.n	8000b62 <__aeabi_dcmpun+0x26>
 8000b5c:	f04f 0000 	mov.w	r0, #0
 8000b60:	4770      	bx	lr
 8000b62:	f04f 0001 	mov.w	r0, #1
 8000b66:	4770      	bx	lr

08000b68 <__aeabi_d2iz>:
 8000b68:	ea4f 0241 	mov.w	r2, r1, lsl #1
 8000b6c:	f512 1200 	adds.w	r2, r2, #2097152	@ 0x200000
 8000b70:	d215      	bcs.n	8000b9e <__aeabi_d2iz+0x36>
 8000b72:	d511      	bpl.n	8000b98 <__aeabi_d2iz+0x30>
 8000b74:	f46f 7378 	mvn.w	r3, #992	@ 0x3e0
 8000b78:	ebb3 5262 	subs.w	r2, r3, r2, asr #21
 8000b7c:	d912      	bls.n	8000ba4 <__aeabi_d2iz+0x3c>
 8000b7e:	ea4f 23c1 	mov.w	r3, r1, lsl #11
 8000b82:	f043 4300 	orr.w	r3, r3, #2147483648	@ 0x80000000
 8000b86:	ea43 5350 	orr.w	r3, r3, r0, lsr #21
 8000b8a:	f011 4f00 	tst.w	r1, #2147483648	@ 0x80000000
 8000b8e:	fa23 f002 	lsr.w	r0, r3, r2
 8000b92:	bf18      	it	ne
 8000b94:	4240      	negne	r0, r0
 8000b96:	4770      	bx	lr
 8000b98:	f04f 0000 	mov.w	r0, #0
 8000b9c:	4770      	bx	lr
 8000b9e:	ea50 3001 	orrs.w	r0, r0, r1, lsl #12
 8000ba2:	d105      	bne.n	8000bb0 <__aeabi_d2iz+0x48>
 8000ba4:	f011 4000 	ands.w	r0, r1, #2147483648	@ 0x80000000
 8000ba8:	bf08      	it	eq
 8000baa:	f06f 4000 	mvneq.w	r0, #2147483648	@ 0x80000000
 8000bae:	4770      	bx	lr
 8000bb0:	f04f 0000 	mov.w	r0, #0
 8000bb4:	4770      	bx	lr
 8000bb6:	bf00      	nop

08000bb8 <__aeabi_d2f>:
 8000bb8:	ea4f 0241 	mov.w	r2, r1, lsl #1
 8000bbc:	f1b2 43e0 	subs.w	r3, r2, #1879048192	@ 0x70000000
 8000bc0:	bf24      	itt	cs
 8000bc2:	f5b3 1c00 	subscs.w	ip, r3, #2097152	@ 0x200000
 8000bc6:	f1dc 5cfe 	rsbscs	ip, ip, #532676608	@ 0x1fc00000
 8000bca:	d90d      	bls.n	8000be8 <__aeabi_d2f+0x30>
 8000bcc:	f001 4c00 	and.w	ip, r1, #2147483648	@ 0x80000000
 8000bd0:	ea4f 02c0 	mov.w	r2, r0, lsl #3
 8000bd4:	ea4c 7050 	orr.w	r0, ip, r0, lsr #29
 8000bd8:	f1b2 4f00 	cmp.w	r2, #2147483648	@ 0x80000000
 8000bdc:	eb40 0083 	adc.w	r0, r0, r3, lsl #2
 8000be0:	bf08      	it	eq
 8000be2:	f020 0001 	biceq.w	r0, r0, #1
 8000be6:	4770      	bx	lr
 8000be8:	f011 4f80 	tst.w	r1, #1073741824	@ 0x40000000
 8000bec:	d121      	bne.n	8000c32 <__aeabi_d2f+0x7a>
 8000bee:	f113 7238 	adds.w	r2, r3, #48234496	@ 0x2e00000
 8000bf2:	bfbc      	itt	lt
 8000bf4:	f001 4000 	andlt.w	r0, r1, #2147483648	@ 0x80000000
 8000bf8:	4770      	bxlt	lr
 8000bfa:	f441 1180 	orr.w	r1, r1, #1048576	@ 0x100000
 8000bfe:	ea4f 5252 	mov.w	r2, r2, lsr #21
 8000c02:	f1c2 0218 	rsb	r2, r2, #24
 8000c06:	f1c2 0c20 	rsb	ip, r2, #32
 8000c0a:	fa10 f30c 	lsls.w	r3, r0, ip
 8000c0e:	fa20 f002 	lsr.w	r0, r0, r2
 8000c12:	bf18      	it	ne
 8000c14:	f040 0001 	orrne.w	r0, r0, #1
 8000c18:	ea4f 23c1 	mov.w	r3, r1, lsl #11
 8000c1c:	ea4f 23d3 	mov.w	r3, r3, lsr #11
 8000c20:	fa03 fc0c 	lsl.w	ip, r3, ip
 8000c24:	ea40 000c 	orr.w	r0, r0, ip
 8000c28:	fa23 f302 	lsr.w	r3, r3, r2
 8000c2c:	ea4f 0343 	mov.w	r3, r3, lsl #1
 8000c30:	e7cc      	b.n	8000bcc <__aeabi_d2f+0x14>
 8000c32:	ea7f 5362 	mvns.w	r3, r2, asr #21
 8000c36:	d107      	bne.n	8000c48 <__aeabi_d2f+0x90>
 8000c38:	ea50 3301 	orrs.w	r3, r0, r1, lsl #12
 8000c3c:	bf1e      	ittt	ne
 8000c3e:	f04f 40fe 	movne.w	r0, #2130706432	@ 0x7f000000
 8000c42:	f440 0040 	orrne.w	r0, r0, #12582912	@ 0xc00000
 8000c46:	4770      	bxne	lr
 8000c48:	f001 4000 	and.w	r0, r1, #2147483648	@ 0x80000000
 8000c4c:	f040 40fe 	orr.w	r0, r0, #2130706432	@ 0x7f000000
 8000c50:	f440 0000 	orr.w	r0, r0, #8388608	@ 0x800000
 8000c54:	4770      	bx	lr
 8000c56:	bf00      	nop

08000c58 <__aeabi_uldivmod>:
 8000c58:	b953      	cbnz	r3, 8000c70 <__aeabi_uldivmod+0x18>
 8000c5a:	b94a      	cbnz	r2, 8000c70 <__aeabi_uldivmod+0x18>
 8000c5c:	2900      	cmp	r1, #0
 8000c5e:	bf08      	it	eq
 8000c60:	2800      	cmpeq	r0, #0
 8000c62:	bf1c      	itt	ne
 8000c64:	f04f 31ff 	movne.w	r1, #4294967295
 8000c68:	f04f 30ff 	movne.w	r0, #4294967295
 8000c6c:	f000 b988 	b.w	8000f80 <__aeabi_idiv0>
 8000c70:	f1ad 0c08 	sub.w	ip, sp, #8
 8000c74:	e96d ce04 	strd	ip, lr, [sp, #-16]!
 8000c78:	f000 f806 	bl	8000c88 <__udivmoddi4>
 8000c7c:	f8dd e004 	ldr.w	lr, [sp, #4]
 8000c80:	e9dd 2302 	ldrd	r2, r3, [sp, #8]
 8000c84:	b004      	add	sp, #16
 8000c86:	4770      	bx	lr

08000c88 <__udivmoddi4>:
 8000c88:	e92d 47f0 	stmdb	sp!, {r4, r5, r6, r7, r8, r9, sl, lr}
 8000c8c:	9d08      	ldr	r5, [sp, #32]
 8000c8e:	468e      	mov	lr, r1
 8000c90:	4604      	mov	r4, r0
 8000c92:	4688      	mov	r8, r1
 8000c94:	2b00      	cmp	r3, #0
 8000c96:	d14a      	bne.n	8000d2e <__udivmoddi4+0xa6>
 8000c98:	428a      	cmp	r2, r1
 8000c9a:	4617      	mov	r7, r2
 8000c9c:	d962      	bls.n	8000d64 <__udivmoddi4+0xdc>
 8000c9e:	fab2 f682 	clz	r6, r2
 8000ca2:	b14e      	cbz	r6, 8000cb8 <__udivmoddi4+0x30>
 8000ca4:	f1c6 0320 	rsb	r3, r6, #32
 8000ca8:	fa01 f806 	lsl.w	r8, r1, r6
 8000cac:	fa20 f303 	lsr.w	r3, r0, r3
 8000cb0:	40b7      	lsls	r7, r6
 8000cb2:	ea43 0808 	orr.w	r8, r3, r8
 8000cb6:	40b4      	lsls	r4, r6
 8000cb8:	ea4f 4e17 	mov.w	lr, r7, lsr #16
 8000cbc:	fa1f fc87 	uxth.w	ip, r7
 8000cc0:	fbb8 f1fe 	udiv	r1, r8, lr
 8000cc4:	0c23      	lsrs	r3, r4, #16
 8000cc6:	fb0e 8811 	mls	r8, lr, r1, r8
 8000cca:	ea43 4308 	orr.w	r3, r3, r8, lsl #16
 8000cce:	fb01 f20c 	mul.w	r2, r1, ip
 8000cd2:	429a      	cmp	r2, r3
 8000cd4:	d909      	bls.n	8000cea <__udivmoddi4+0x62>
 8000cd6:	18fb      	adds	r3, r7, r3
 8000cd8:	f101 30ff 	add.w	r0, r1, #4294967295
 8000cdc:	f080 80ea 	bcs.w	8000eb4 <__udivmoddi4+0x22c>
 8000ce0:	429a      	cmp	r2, r3
 8000ce2:	f240 80e7 	bls.w	8000eb4 <__udivmoddi4+0x22c>
 8000ce6:	3902      	subs	r1, #2
 8000ce8:	443b      	add	r3, r7
 8000cea:	1a9a      	subs	r2, r3, r2
 8000cec:	b2a3      	uxth	r3, r4
 8000cee:	fbb2 f0fe 	udiv	r0, r2, lr
 8000cf2:	fb0e 2210 	mls	r2, lr, r0, r2
 8000cf6:	ea43 4302 	orr.w	r3, r3, r2, lsl #16
 8000cfa:	fb00 fc0c 	mul.w	ip, r0, ip
 8000cfe:	459c      	cmp	ip, r3
 8000d00:	d909      	bls.n	8000d16 <__udivmoddi4+0x8e>
 8000d02:	18fb      	adds	r3, r7, r3
 8000d04:	f100 32ff 	add.w	r2, r0, #4294967295
 8000d08:	f080 80d6 	bcs.w	8000eb8 <__udivmoddi4+0x230>
 8000d0c:	459c      	cmp	ip, r3
 8000d0e:	f240 80d3 	bls.w	8000eb8 <__udivmoddi4+0x230>
 8000d12:	443b      	add	r3, r7
 8000d14:	3802      	subs	r0, #2
 8000d16:	ea40 4001 	orr.w	r0, r0, r1, lsl #16
 8000d1a:	eba3 030c 	sub.w	r3, r3, ip
 8000d1e:	2100      	movs	r1, #0
 8000d20:	b11d      	cbz	r5, 8000d2a <__udivmoddi4+0xa2>
 8000d22:	40f3      	lsrs	r3, r6
 8000d24:	2200      	movs	r2, #0
 8000d26:	e9c5 3200 	strd	r3, r2, [r5]
 8000d2a:	e8bd 87f0 	ldmia.w	sp!, {r4, r5, r6, r7, r8, r9, sl, pc}
 8000d2e:	428b      	cmp	r3, r1
 8000d30:	d905      	bls.n	8000d3e <__udivmoddi4+0xb6>
 8000d32:	b10d      	cbz	r5, 8000d38 <__udivmoddi4+0xb0>
 8000d34:	e9c5 0100 	strd	r0, r1, [r5]
 8000d38:	2100      	movs	r1, #0
 8000d3a:	4608      	mov	r0, r1
 8000d3c:	e7f5      	b.n	8000d2a <__udivmoddi4+0xa2>
 8000d3e:	fab3 f183 	clz	r1, r3
 8000d42:	2900      	cmp	r1, #0
 8000d44:	d146      	bne.n	8000dd4 <__udivmoddi4+0x14c>
 8000d46:	4573      	cmp	r3, lr
 8000d48:	d302      	bcc.n	8000d50 <__udivmoddi4+0xc8>
 8000d4a:	4282      	cmp	r2, r0
 8000d4c:	f200 8105 	bhi.w	8000f5a <__udivmoddi4+0x2d2>
 8000d50:	1a84      	subs	r4, r0, r2
 8000d52:	eb6e 0203 	sbc.w	r2, lr, r3
 8000d56:	2001      	movs	r0, #1
 8000d58:	4690      	mov	r8, r2
 8000d5a:	2d00      	cmp	r5, #0
 8000d5c:	d0e5      	beq.n	8000d2a <__udivmoddi4+0xa2>
 8000d5e:	e9c5 4800 	strd	r4, r8, [r5]
 8000d62:	e7e2      	b.n	8000d2a <__udivmoddi4+0xa2>
 8000d64:	2a00      	cmp	r2, #0
 8000d66:	f000 8090 	beq.w	8000e8a <__udivmoddi4+0x202>
 8000d6a:	fab2 f682 	clz	r6, r2
 8000d6e:	2e00      	cmp	r6, #0
 8000d70:	f040 80a4 	bne.w	8000ebc <__udivmoddi4+0x234>
 8000d74:	1a8a      	subs	r2, r1, r2
 8000d76:	0c03      	lsrs	r3, r0, #16
 8000d78:	ea4f 4e17 	mov.w	lr, r7, lsr #16
 8000d7c:	b280      	uxth	r0, r0
 8000d7e:	b2bc      	uxth	r4, r7
 8000d80:	2101      	movs	r1, #1
 8000d82:	fbb2 fcfe 	udiv	ip, r2, lr
 8000d86:	fb0e 221c 	mls	r2, lr, ip, r2
 8000d8a:	ea43 4302 	orr.w	r3, r3, r2, lsl #16
 8000d8e:	fb04 f20c 	mul.w	r2, r4, ip
 8000d92:	429a      	cmp	r2, r3
 8000d94:	d907      	bls.n	8000da6 <__udivmoddi4+0x11e>
 8000d96:	18fb      	adds	r3, r7, r3
 8000d98:	f10c 38ff 	add.w	r8, ip, #4294967295
 8000d9c:	d202      	bcs.n	8000da4 <__udivmoddi4+0x11c>
 8000d9e:	429a      	cmp	r2, r3
 8000da0:	f200 80e0 	bhi.w	8000f64 <__udivmoddi4+0x2dc>
 8000da4:	46c4      	mov	ip, r8
 8000da6:	1a9b      	subs	r3, r3, r2
 8000da8:	fbb3 f2fe 	udiv	r2, r3, lr
 8000dac:	fb0e 3312 	mls	r3, lr, r2, r3
 8000db0:	ea40 4303 	orr.w	r3, r0, r3, lsl #16
 8000db4:	fb02 f404 	mul.w	r4, r2, r4
 8000db8:	429c      	cmp	r4, r3
 8000dba:	d907      	bls.n	8000dcc <__udivmoddi4+0x144>
 8000dbc:	18fb      	adds	r3, r7, r3
 8000dbe:	f102 30ff 	add.w	r0, r2, #4294967295
 8000dc2:	d202      	bcs.n	8000dca <__udivmoddi4+0x142>
 8000dc4:	429c      	cmp	r4, r3
 8000dc6:	f200 80ca 	bhi.w	8000f5e <__udivmoddi4+0x2d6>
 8000dca:	4602      	mov	r2, r0
 8000dcc:	1b1b      	subs	r3, r3, r4
 8000dce:	ea42 400c 	orr.w	r0, r2, ip, lsl #16
 8000dd2:	e7a5      	b.n	8000d20 <__udivmoddi4+0x98>
 8000dd4:	f1c1 0620 	rsb	r6, r1, #32
 8000dd8:	408b      	lsls	r3, r1
 8000dda:	fa22 f706 	lsr.w	r7, r2, r6
 8000dde:	431f      	orrs	r7, r3
 8000de0:	fa0e f401 	lsl.w	r4, lr, r1
 8000de4:	fa20 f306 	lsr.w	r3, r0, r6
 8000de8:	fa2e fe06 	lsr.w	lr, lr, r6
 8000dec:	ea4f 4917 	mov.w	r9, r7, lsr #16
 8000df0:	4323      	orrs	r3, r4
 8000df2:	fa00 f801 	lsl.w	r8, r0, r1
 8000df6:	fa1f fc87 	uxth.w	ip, r7
 8000dfa:	fbbe f0f9 	udiv	r0, lr, r9
 8000dfe:	0c1c      	lsrs	r4, r3, #16
 8000e00:	fb09 ee10 	mls	lr, r9, r0, lr
 8000e04:	ea44 440e 	orr.w	r4, r4, lr, lsl #16
 8000e08:	fb00 fe0c 	mul.w	lr, r0, ip
 8000e0c:	45a6      	cmp	lr, r4
 8000e0e:	fa02 f201 	lsl.w	r2, r2, r1
 8000e12:	d909      	bls.n	8000e28 <__udivmoddi4+0x1a0>
 8000e14:	193c      	adds	r4, r7, r4
 8000e16:	f100 3aff 	add.w	sl, r0, #4294967295
 8000e1a:	f080 809c 	bcs.w	8000f56 <__udivmoddi4+0x2ce>
 8000e1e:	45a6      	cmp	lr, r4
 8000e20:	f240 8099 	bls.w	8000f56 <__udivmoddi4+0x2ce>
 8000e24:	3802      	subs	r0, #2
 8000e26:	443c      	add	r4, r7
 8000e28:	eba4 040e 	sub.w	r4, r4, lr
 8000e2c:	fa1f fe83 	uxth.w	lr, r3
 8000e30:	fbb4 f3f9 	udiv	r3, r4, r9
 8000e34:	fb09 4413 	mls	r4, r9, r3, r4
 8000e38:	ea4e 4404 	orr.w	r4, lr, r4, lsl #16
 8000e3c:	fb03 fc0c 	mul.w	ip, r3, ip
 8000e40:	45a4      	cmp	ip, r4
 8000e42:	d908      	bls.n	8000e56 <__udivmoddi4+0x1ce>
 8000e44:	193c      	adds	r4, r7, r4
 8000e46:	f103 3eff 	add.w	lr, r3, #4294967295
 8000e4a:	f080 8082 	bcs.w	8000f52 <__udivmoddi4+0x2ca>
 8000e4e:	45a4      	cmp	ip, r4
 8000e50:	d97f      	bls.n	8000f52 <__udivmoddi4+0x2ca>
 8000e52:	3b02      	subs	r3, #2
 8000e54:	443c      	add	r4, r7
 8000e56:	ea43 4000 	orr.w	r0, r3, r0, lsl #16
 8000e5a:	eba4 040c 	sub.w	r4, r4, ip
 8000e5e:	fba0 ec02 	umull	lr, ip, r0, r2
 8000e62:	4564      	cmp	r4, ip
 8000e64:	4673      	mov	r3, lr
 8000e66:	46e1      	mov	r9, ip
 8000e68:	d362      	bcc.n	8000f30 <__udivmoddi4+0x2a8>
 8000e6a:	d05f      	beq.n	8000f2c <__udivmoddi4+0x2a4>
 8000e6c:	b15d      	cbz	r5, 8000e86 <__udivmoddi4+0x1fe>
 8000e6e:	ebb8 0203 	subs.w	r2, r8, r3
 8000e72:	eb64 0409 	sbc.w	r4, r4, r9
 8000e76:	fa04 f606 	lsl.w	r6, r4, r6
 8000e7a:	fa22 f301 	lsr.w	r3, r2, r1
 8000e7e:	431e      	orrs	r6, r3
 8000e80:	40cc      	lsrs	r4, r1
 8000e82:	e9c5 6400 	strd	r6, r4, [r5]
 8000e86:	2100      	movs	r1, #0
 8000e88:	e74f      	b.n	8000d2a <__udivmoddi4+0xa2>
 8000e8a:	fbb1 fcf2 	udiv	ip, r1, r2
 8000e8e:	0c01      	lsrs	r1, r0, #16
 8000e90:	ea41 410e 	orr.w	r1, r1, lr, lsl #16
 8000e94:	b280      	uxth	r0, r0
 8000e96:	ea40 4201 	orr.w	r2, r0, r1, lsl #16
 8000e9a:	463b      	mov	r3, r7
 8000e9c:	4638      	mov	r0, r7
 8000e9e:	463c      	mov	r4, r7
 8000ea0:	46b8      	mov	r8, r7
 8000ea2:	46be      	mov	lr, r7
 8000ea4:	2620      	movs	r6, #32
 8000ea6:	fbb1 f1f7 	udiv	r1, r1, r7
 8000eaa:	eba2 0208 	sub.w	r2, r2, r8
 8000eae:	ea41 410c 	orr.w	r1, r1, ip, lsl #16
 8000eb2:	e766      	b.n	8000d82 <__udivmoddi4+0xfa>
 8000eb4:	4601      	mov	r1, r0
 8000eb6:	e718      	b.n	8000cea <__udivmoddi4+0x62>
 8000eb8:	4610      	mov	r0, r2
 8000eba:	e72c      	b.n	8000d16 <__udivmoddi4+0x8e>
 8000ebc:	f1c6 0220 	rsb	r2, r6, #32
 8000ec0:	fa2e f302 	lsr.w	r3, lr, r2
 8000ec4:	40b7      	lsls	r7, r6
 8000ec6:	40b1      	lsls	r1, r6
 8000ec8:	fa20 f202 	lsr.w	r2, r0, r2
 8000ecc:	ea4f 4e17 	mov.w	lr, r7, lsr #16
 8000ed0:	430a      	orrs	r2, r1
 8000ed2:	fbb3 f8fe 	udiv	r8, r3, lr
 8000ed6:	b2bc      	uxth	r4, r7
 8000ed8:	fb0e 3318 	mls	r3, lr, r8, r3
 8000edc:	0c11      	lsrs	r1, r2, #16
 8000ede:	ea41 4103 	orr.w	r1, r1, r3, lsl #16
 8000ee2:	fb08 f904 	mul.w	r9, r8, r4
 8000ee6:	40b0      	lsls	r0, r6
 8000ee8:	4589      	cmp	r9, r1
 8000eea:	ea4f 4310 	mov.w	r3, r0, lsr #16
 8000eee:	b280      	uxth	r0, r0
 8000ef0:	d93e      	bls.n	8000f70 <__udivmoddi4+0x2e8>
 8000ef2:	1879      	adds	r1, r7, r1
 8000ef4:	f108 3cff 	add.w	ip, r8, #4294967295
 8000ef8:	d201      	bcs.n	8000efe <__udivmoddi4+0x276>
 8000efa:	4589      	cmp	r9, r1
 8000efc:	d81f      	bhi.n	8000f3e <__udivmoddi4+0x2b6>
 8000efe:	eba1 0109 	sub.w	r1, r1, r9
 8000f02:	fbb1 f9fe 	udiv	r9, r1, lr
 8000f06:	fb09 f804 	mul.w	r8, r9, r4
 8000f0a:	fb0e 1119 	mls	r1, lr, r9, r1
 8000f0e:	b292      	uxth	r2, r2
 8000f10:	ea42 4201 	orr.w	r2, r2, r1, lsl #16
 8000f14:	4542      	cmp	r2, r8
 8000f16:	d229      	bcs.n	8000f6c <__udivmoddi4+0x2e4>
 8000f18:	18ba      	adds	r2, r7, r2
 8000f1a:	f109 31ff 	add.w	r1, r9, #4294967295
 8000f1e:	d2c4      	bcs.n	8000eaa <__udivmoddi4+0x222>
 8000f20:	4542      	cmp	r2, r8
 8000f22:	d2c2      	bcs.n	8000eaa <__udivmoddi4+0x222>
 8000f24:	f1a9 0102 	sub.w	r1, r9, #2
 8000f28:	443a      	add	r2, r7
 8000f2a:	e7be      	b.n	8000eaa <__udivmoddi4+0x222>
 8000f2c:	45f0      	cmp	r8, lr
 8000f2e:	d29d      	bcs.n	8000e6c <__udivmoddi4+0x1e4>
 8000f30:	ebbe 0302 	subs.w	r3, lr, r2
 8000f34:	eb6c 0c07 	sbc.w	ip, ip, r7
 8000f38:	3801      	subs	r0, #1
 8000f3a:	46e1      	mov	r9, ip
 8000f3c:	e796      	b.n	8000e6c <__udivmoddi4+0x1e4>
 8000f3e:	eba7 0909 	sub.w	r9, r7, r9
 8000f42:	4449      	add	r1, r9
 8000f44:	f1a8 0c02 	sub.w	ip, r8, #2
 8000f48:	fbb1 f9fe 	udiv	r9, r1, lr
 8000f4c:	fb09 f804 	mul.w	r8, r9, r4
 8000f50:	e7db      	b.n	8000f0a <__udivmoddi4+0x282>
 8000f52:	4673      	mov	r3, lr
 8000f54:	e77f      	b.n	8000e56 <__udivmoddi4+0x1ce>
 8000f56:	4650      	mov	r0, sl
 8000f58:	e766      	b.n	8000e28 <__udivmoddi4+0x1a0>
 8000f5a:	4608      	mov	r0, r1
 8000f5c:	e6fd      	b.n	8000d5a <__udivmoddi4+0xd2>
 8000f5e:	443b      	add	r3, r7
 8000f60:	3a02      	subs	r2, #2
 8000f62:	e733      	b.n	8000dcc <__udivmoddi4+0x144>
 8000f64:	f1ac 0c02 	sub.w	ip, ip, #2
 8000f68:	443b      	add	r3, r7
 8000f6a:	e71c      	b.n	8000da6 <__udivmoddi4+0x11e>
 8000f6c:	4649      	mov	r1, r9
 8000f6e:	e79c      	b.n	8000eaa <__udivmoddi4+0x222>
 8000f70:	eba1 0109 	sub.w	r1, r1, r9
 8000f74:	46c4      	mov	ip, r8
 8000f76:	fbb1 f9fe 	udiv	r9, r1, lr
 8000f7a:	fb09 f804 	mul.w	r8, r9, r4
 8000f7e:	e7c4      	b.n	8000f0a <__udivmoddi4+0x282>

08000f80 <__aeabi_idiv0>:
 8000f80:	4770      	bx	lr
 8000f82:	bf00      	nop

08000f84 <BallbotEKF_Init>:
 8000f84:	b5f8      	push	{r3, r4, r5, r6, r7, lr}
 8000f86:	4874      	ldr	r0, [pc, #464]	@ (8001158 <BallbotEKF_Init+0x1d4>)
 8000f88:	4b74      	ldr	r3, [pc, #464]	@ (800115c <BallbotEKF_Init+0x1d8>)
 8000f8a:	4f75      	ldr	r7, [pc, #468]	@ (8001160 <BallbotEKF_Init+0x1dc>)
 8000f8c:	4c75      	ldr	r4, [pc, #468]	@ (8001164 <BallbotEKF_Init+0x1e0>)
 8000f8e:	4e76      	ldr	r6, [pc, #472]	@ (8001168 <BallbotEKF_Init+0x1e4>)
 8000f90:	2201      	movs	r2, #1
 8000f92:	2108      	movs	r1, #8
 8000f94:	f007 fb98 	bl	80086c8 <arm_mat_init_f32>
 8000f98:	2208      	movs	r2, #8
 8000f9a:	4611      	mov	r1, r2
 8000f9c:	4b73      	ldr	r3, [pc, #460]	@ (800116c <BallbotEKF_Init+0x1e8>)
 8000f9e:	4874      	ldr	r0, [pc, #464]	@ (8001170 <BallbotEKF_Init+0x1ec>)
 8000fa0:	f007 fb92 	bl	80086c8 <arm_mat_init_f32>
 8000fa4:	2208      	movs	r2, #8
 8000fa6:	4611      	mov	r1, r2
 8000fa8:	4b72      	ldr	r3, [pc, #456]	@ (8001174 <BallbotEKF_Init+0x1f0>)
 8000faa:	4873      	ldr	r0, [pc, #460]	@ (8001178 <BallbotEKF_Init+0x1f4>)
 8000fac:	f007 fb8c 	bl	80086c8 <arm_mat_init_f32>
 8000fb0:	2204      	movs	r2, #4
 8000fb2:	4611      	mov	r1, r2
 8000fb4:	4b71      	ldr	r3, [pc, #452]	@ (800117c <BallbotEKF_Init+0x1f8>)
 8000fb6:	4872      	ldr	r0, [pc, #456]	@ (8001180 <BallbotEKF_Init+0x1fc>)
 8000fb8:	f007 fb86 	bl	80086c8 <arm_mat_init_f32>
 8000fbc:	2208      	movs	r2, #8
 8000fbe:	4611      	mov	r1, r2
 8000fc0:	4b70      	ldr	r3, [pc, #448]	@ (8001184 <BallbotEKF_Init+0x200>)
 8000fc2:	4871      	ldr	r0, [pc, #452]	@ (8001188 <BallbotEKF_Init+0x204>)
 8000fc4:	f007 fb80 	bl	80086c8 <arm_mat_init_f32>
 8000fc8:	4b70      	ldr	r3, [pc, #448]	@ (800118c <BallbotEKF_Init+0x208>)
 8000fca:	4871      	ldr	r0, [pc, #452]	@ (8001190 <BallbotEKF_Init+0x20c>)
 8000fcc:	2208      	movs	r2, #8
 8000fce:	2104      	movs	r1, #4
 8000fd0:	f007 fb7a 	bl	80086c8 <arm_mat_init_f32>
 8000fd4:	4b6f      	ldr	r3, [pc, #444]	@ (8001194 <BallbotEKF_Init+0x210>)
 8000fd6:	4870      	ldr	r0, [pc, #448]	@ (8001198 <BallbotEKF_Init+0x214>)
 8000fd8:	2201      	movs	r2, #1
 8000fda:	2104      	movs	r1, #4
 8000fdc:	f007 fb74 	bl	80086c8 <arm_mat_init_f32>
 8000fe0:	4b6e      	ldr	r3, [pc, #440]	@ (800119c <BallbotEKF_Init+0x218>)
 8000fe2:	486f      	ldr	r0, [pc, #444]	@ (80011a0 <BallbotEKF_Init+0x21c>)
 8000fe4:	2201      	movs	r2, #1
 8000fe6:	2104      	movs	r1, #4
 8000fe8:	f007 fb6e 	bl	80086c8 <arm_mat_init_f32>
 8000fec:	4b6d      	ldr	r3, [pc, #436]	@ (80011a4 <BallbotEKF_Init+0x220>)
 8000fee:	486e      	ldr	r0, [pc, #440]	@ (80011a8 <BallbotEKF_Init+0x224>)
 8000ff0:	2201      	movs	r2, #1
 8000ff2:	2104      	movs	r1, #4
 8000ff4:	f007 fb68 	bl	80086c8 <arm_mat_init_f32>
 8000ff8:	2204      	movs	r2, #4
 8000ffa:	4611      	mov	r1, r2
 8000ffc:	4b6b      	ldr	r3, [pc, #428]	@ (80011ac <BallbotEKF_Init+0x228>)
 8000ffe:	486c      	ldr	r0, [pc, #432]	@ (80011b0 <BallbotEKF_Init+0x22c>)
 8001000:	f007 fb62 	bl	80086c8 <arm_mat_init_f32>
 8001004:	2204      	movs	r2, #4
 8001006:	4611      	mov	r1, r2
 8001008:	4b6a      	ldr	r3, [pc, #424]	@ (80011b4 <BallbotEKF_Init+0x230>)
 800100a:	486b      	ldr	r0, [pc, #428]	@ (80011b8 <BallbotEKF_Init+0x234>)
 800100c:	f007 fb5c 	bl	80086c8 <arm_mat_init_f32>
 8001010:	4b6a      	ldr	r3, [pc, #424]	@ (80011bc <BallbotEKF_Init+0x238>)
 8001012:	486b      	ldr	r0, [pc, #428]	@ (80011c0 <BallbotEKF_Init+0x23c>)
 8001014:	2204      	movs	r2, #4
 8001016:	2108      	movs	r1, #8
 8001018:	f007 fb56 	bl	80086c8 <arm_mat_init_f32>
 800101c:	2208      	movs	r2, #8
 800101e:	4611      	mov	r1, r2
 8001020:	4b51      	ldr	r3, [pc, #324]	@ (8001168 <BallbotEKF_Init+0x1e4>)
 8001022:	4868      	ldr	r0, [pc, #416]	@ (80011c4 <BallbotEKF_Init+0x240>)
 8001024:	f007 fb50 	bl	80086c8 <arm_mat_init_f32>
 8001028:	2208      	movs	r2, #8
 800102a:	4611      	mov	r1, r2
 800102c:	4b66      	ldr	r3, [pc, #408]	@ (80011c8 <BallbotEKF_Init+0x244>)
 800102e:	4867      	ldr	r0, [pc, #412]	@ (80011cc <BallbotEKF_Init+0x248>)
 8001030:	f007 fb4a 	bl	80086c8 <arm_mat_init_f32>
 8001034:	2208      	movs	r2, #8
 8001036:	4611      	mov	r1, r2
 8001038:	4b65      	ldr	r3, [pc, #404]	@ (80011d0 <BallbotEKF_Init+0x24c>)
 800103a:	4866      	ldr	r0, [pc, #408]	@ (80011d4 <BallbotEKF_Init+0x250>)
 800103c:	f007 fb44 	bl	80086c8 <arm_mat_init_f32>
 8001040:	2208      	movs	r2, #8
 8001042:	4611      	mov	r1, r2
 8001044:	4b64      	ldr	r3, [pc, #400]	@ (80011d8 <BallbotEKF_Init+0x254>)
 8001046:	4865      	ldr	r0, [pc, #404]	@ (80011dc <BallbotEKF_Init+0x258>)
 8001048:	f007 fb3e 	bl	80086c8 <arm_mat_init_f32>
 800104c:	4b64      	ldr	r3, [pc, #400]	@ (80011e0 <BallbotEKF_Init+0x25c>)
 800104e:	4865      	ldr	r0, [pc, #404]	@ (80011e4 <BallbotEKF_Init+0x260>)
 8001050:	2208      	movs	r2, #8
 8001052:	2104      	movs	r1, #4
 8001054:	f007 fb38 	bl	80086c8 <arm_mat_init_f32>
 8001058:	4b63      	ldr	r3, [pc, #396]	@ (80011e8 <BallbotEKF_Init+0x264>)
 800105a:	4864      	ldr	r0, [pc, #400]	@ (80011ec <BallbotEKF_Init+0x268>)
 800105c:	2204      	movs	r2, #4
 800105e:	2108      	movs	r1, #8
 8001060:	f007 fb32 	bl	80086c8 <arm_mat_init_f32>
 8001064:	4b62      	ldr	r3, [pc, #392]	@ (80011f0 <BallbotEKF_Init+0x26c>)
 8001066:	4863      	ldr	r0, [pc, #396]	@ (80011f4 <BallbotEKF_Init+0x270>)
 8001068:	2204      	movs	r2, #4
 800106a:	2108      	movs	r1, #8
 800106c:	f007 fb2c 	bl	80086c8 <arm_mat_init_f32>
 8001070:	2204      	movs	r2, #4
 8001072:	4611      	mov	r1, r2
 8001074:	4b60      	ldr	r3, [pc, #384]	@ (80011f8 <BallbotEKF_Init+0x274>)
 8001076:	4861      	ldr	r0, [pc, #388]	@ (80011fc <BallbotEKF_Init+0x278>)
 8001078:	f007 fb26 	bl	80086c8 <arm_mat_init_f32>
 800107c:	4b60      	ldr	r3, [pc, #384]	@ (8001200 <BallbotEKF_Init+0x27c>)
 800107e:	4861      	ldr	r0, [pc, #388]	@ (8001204 <BallbotEKF_Init+0x280>)
 8001080:	2201      	movs	r2, #1
 8001082:	2108      	movs	r1, #8
 8001084:	f007 fb20 	bl	80086c8 <arm_mat_init_f32>
 8001088:	22f8      	movs	r2, #248	@ 0xf8
 800108a:	2100      	movs	r1, #0
 800108c:	485e      	ldr	r0, [pc, #376]	@ (8001208 <BallbotEKF_Init+0x284>)
 800108e:	f008 ff06 	bl	8009e9e <memset>
 8001092:	22f8      	movs	r2, #248	@ 0xf8
 8001094:	2100      	movs	r1, #0
 8001096:	485d      	ldr	r0, [pc, #372]	@ (800120c <BallbotEKF_Init+0x288>)
 8001098:	f008 ff01 	bl	8009e9e <memset>
 800109c:	f44f 7280 	mov.w	r2, #256	@ 0x100
 80010a0:	2100      	movs	r1, #0
 80010a2:	4838      	ldr	r0, [pc, #224]	@ (8001184 <BallbotEKF_Init+0x200>)
 80010a4:	f008 fefb 	bl	8009e9e <memset>
 80010a8:	f44f 7280 	mov.w	r2, #256	@ 0x100
 80010ac:	2100      	movs	r1, #0
 80010ae:	482e      	ldr	r0, [pc, #184]	@ (8001168 <BallbotEKF_Init+0x1e4>)
 80010b0:	f008 fef5 	bl	8009e9e <memset>
 80010b4:	2280      	movs	r2, #128	@ 0x80
 80010b6:	2100      	movs	r1, #0
 80010b8:	4834      	ldr	r0, [pc, #208]	@ (800118c <BallbotEKF_Init+0x208>)
 80010ba:	f008 fef0 	bl	8009e9e <memset>
 80010be:	2280      	movs	r2, #128	@ 0x80
 80010c0:	2100      	movs	r1, #0
 80010c2:	483e      	ldr	r0, [pc, #248]	@ (80011bc <BallbotEKF_Init+0x238>)
 80010c4:	f008 feeb 	bl	8009e9e <memset>
 80010c8:	2238      	movs	r2, #56	@ 0x38
 80010ca:	2100      	movs	r1, #0
 80010cc:	4850      	ldr	r0, [pc, #320]	@ (8001210 <BallbotEKF_Init+0x28c>)
 80010ce:	f008 fee6 	bl	8009e9e <memset>
 80010d2:	2240      	movs	r2, #64	@ 0x40
 80010d4:	2100      	movs	r1, #0
 80010d6:	4835      	ldr	r0, [pc, #212]	@ (80011ac <BallbotEKF_Init+0x228>)
 80010d8:	f008 fee1 	bl	8009e9e <memset>
 80010dc:	2220      	movs	r2, #32
 80010de:	2100      	movs	r1, #0
 80010e0:	481e      	ldr	r0, [pc, #120]	@ (800115c <BallbotEKF_Init+0x1d8>)
 80010e2:	f008 fedc 	bl	8009e9e <memset>
 80010e6:	4a21      	ldr	r2, [pc, #132]	@ (800116c <BallbotEKF_Init+0x1e8>)
 80010e8:	4b22      	ldr	r3, [pc, #136]	@ (8001174 <BallbotEKF_Init+0x1f0>)
 80010ea:	2100      	movs	r1, #0
 80010ec:	f04f 507e 	mov.w	r0, #1065353216	@ 0x3f800000
 80010f0:	188d      	adds	r5, r1, r2
 80010f2:	602f      	str	r7, [r5, #0]
 80010f4:	18cd      	adds	r5, r1, r3
 80010f6:	602c      	str	r4, [r5, #0]
 80010f8:	198d      	adds	r5, r1, r6
 80010fa:	3124      	adds	r1, #36	@ 0x24
 80010fc:	f5b1 7f90 	cmp.w	r1, #288	@ 0x120
 8001100:	6028      	str	r0, [r5, #0]
 8001102:	d1f5      	bne.n	80010f0 <BallbotEKF_Init+0x16c>
 8001104:	4943      	ldr	r1, [pc, #268]	@ (8001214 <BallbotEKF_Init+0x290>)
 8001106:	6011      	str	r1, [r2, #0]
 8001108:	6251      	str	r1, [r2, #36]	@ 0x24
 800110a:	6491      	str	r1, [r2, #72]	@ 0x48
 800110c:	66d1      	str	r1, [r2, #108]	@ 0x6c
 800110e:	f04f 517a 	mov.w	r1, #1048576000	@ 0x3e800000
 8001112:	f8c2 1090 	str.w	r1, [r2, #144]	@ 0x90
 8001116:	f8c2 10b4 	str.w	r1, [r2, #180]	@ 0xb4
 800111a:	493f      	ldr	r1, [pc, #252]	@ (8001218 <BallbotEKF_Init+0x294>)
 800111c:	f8c2 10d8 	str.w	r1, [r2, #216]	@ 0xd8
 8001120:	f8c2 10fc 	str.w	r1, [r2, #252]	@ 0xfc
 8001124:	4a3d      	ldr	r2, [pc, #244]	@ (800121c <BallbotEKF_Init+0x298>)
 8001126:	601a      	str	r2, [r3, #0]
 8001128:	625a      	str	r2, [r3, #36]	@ 0x24
 800112a:	f04f 527c 	mov.w	r2, #1056964608	@ 0x3f000000
 800112e:	f8c3 2090 	str.w	r2, [r3, #144]	@ 0x90
 8001132:	f8c3 20b4 	str.w	r2, [r3, #180]	@ 0xb4
 8001136:	4a3a      	ldr	r2, [pc, #232]	@ (8001220 <BallbotEKF_Init+0x29c>)
 8001138:	f8c3 20d8 	str.w	r2, [r3, #216]	@ 0xd8
 800113c:	f8c3 20fc 	str.w	r2, [r3, #252]	@ 0xfc
 8001140:	649c      	str	r4, [r3, #72]	@ 0x48
 8001142:	66dc      	str	r4, [r3, #108]	@ 0x6c
 8001144:	4b0d      	ldr	r3, [pc, #52]	@ (800117c <BallbotEKF_Init+0x1f8>)
 8001146:	4a37      	ldr	r2, [pc, #220]	@ (8001224 <BallbotEKF_Init+0x2a0>)
 8001148:	601a      	str	r2, [r3, #0]
 800114a:	615a      	str	r2, [r3, #20]
 800114c:	6298      	str	r0, [r3, #40]	@ 0x28
 800114e:	63d8      	str	r0, [r3, #60]	@ 0x3c
 8001150:	4b35      	ldr	r3, [pc, #212]	@ (8001228 <BallbotEKF_Init+0x2a4>)
 8001152:	2201      	movs	r2, #1
 8001154:	701a      	strb	r2, [r3, #0]
 8001156:	bdf8      	pop	{r3, r4, r5, r6, r7, pc}
 8001158:	20000384 	.word	0x20000384
 800115c:	20000e5c 	.word	0x20000e5c
 8001160:	3dcccccd 	.word	0x3dcccccd
 8001164:	3a83126f 	.word	0x3a83126f
 8001168:	2000038c 	.word	0x2000038c
 800116c:	20000d5c 	.word	0x20000d5c
 8001170:	2000037c 	.word	0x2000037c
 8001174:	20000c5c 	.word	0x20000c5c
 8001178:	20000374 	.word	0x20000374
 800117c:	20000c1c 	.word	0x20000c1c
 8001180:	2000036c 	.word	0x2000036c
 8001184:	20000b1c 	.word	0x20000b1c
 8001188:	20000364 	.word	0x20000364
 800118c:	20000a9c 	.word	0x20000a9c
 8001190:	2000035c 	.word	0x2000035c
 8001194:	20000a8c 	.word	0x20000a8c
 8001198:	20000354 	.word	0x20000354
 800119c:	20000a7c 	.word	0x20000a7c
 80011a0:	2000034c 	.word	0x2000034c
 80011a4:	20000a6c 	.word	0x20000a6c
 80011a8:	20000344 	.word	0x20000344
 80011ac:	20000a2c 	.word	0x20000a2c
 80011b0:	2000033c 	.word	0x2000033c
 80011b4:	200009ec 	.word	0x200009ec
 80011b8:	20000334 	.word	0x20000334
 80011bc:	2000096c 	.word	0x2000096c
 80011c0:	2000032c 	.word	0x2000032c
 80011c4:	20000324 	.word	0x20000324
 80011c8:	2000086c 	.word	0x2000086c
 80011cc:	2000031c 	.word	0x2000031c
 80011d0:	2000076c 	.word	0x2000076c
 80011d4:	20000314 	.word	0x20000314
 80011d8:	2000066c 	.word	0x2000066c
 80011dc:	2000030c 	.word	0x2000030c
 80011e0:	200005ec 	.word	0x200005ec
 80011e4:	20000304 	.word	0x20000304
 80011e8:	2000056c 	.word	0x2000056c
 80011ec:	200002fc 	.word	0x200002fc
 80011f0:	200004ec 	.word	0x200004ec
 80011f4:	200002f4 	.word	0x200002f4
 80011f8:	200004ac 	.word	0x200004ac
 80011fc:	200002ec 	.word	0x200002ec
 8001200:	2000048c 	.word	0x2000048c
 8001204:	200002e4 	.word	0x200002e4
 8001208:	20000d60 	.word	0x20000d60
 800120c:	20000c60 	.word	0x20000c60
 8001210:	20000c20 	.word	0x20000c20
 8001214:	3c23d70a 	.word	0x3c23d70a
 8001218:	33d6bf95 	.word	0x33d6bf95
 800121c:	38d1b717 	.word	0x38d1b717
 8001220:	358637bd 	.word	0x358637bd
 8001224:	40a00000 	.word	0x40a00000
 8001228:	20000e7c 	.word	0x20000e7c

0800122c <BallbotEKF_Update>:
 800122c:	b570      	push	{r4, r5, r6, lr}
 800122e:	ed2d 8b0c 	vpush	{d8-d13}
 8001232:	4bae      	ldr	r3, [pc, #696]	@ (80014ec <BallbotEKF_Update+0x2c0>)
 8001234:	781b      	ldrb	r3, [r3, #0]
 8001236:	eeb0 9a40 	vmov.f32	s18, s0
 800123a:	eeb0 8a60 	vmov.f32	s16, s1
 800123e:	eeb0 aa41 	vmov.f32	s20, s2
 8001242:	eef0 9a61 	vmov.f32	s19, s3
 8001246:	eeb0 ba42 	vmov.f32	s22, s4
 800124a:	eef0 aa62 	vmov.f32	s21, s5
 800124e:	eef0 8a43 	vmov.f32	s17, s6
 8001252:	4605      	mov	r5, r0
 8001254:	b90b      	cbnz	r3, 800125a <BallbotEKF_Update+0x2e>
 8001256:	f7ff fe95 	bl	8000f84 <BallbotEKF_Init>
 800125a:	ee29 0aa9 	vmul.f32	s0, s19, s19
 800125e:	4ca4      	ldr	r4, [pc, #656]	@ (80014f0 <BallbotEKF_Update+0x2c4>)
 8001260:	4ea4      	ldr	r6, [pc, #656]	@ (80014f4 <BallbotEKF_Update+0x2c8>)
 8001262:	ed94 ca00 	vldr	s24, [r4]
 8001266:	edd4 ba01 	vldr	s23, [r4, #4]
 800126a:	ed94 da06 	vldr	s26, [r4, #24]
 800126e:	edd4 ca07 	vldr	s25, [r4, #28]
 8001272:	eeaa 0a0a 	vfma.f32	s0, s20, s20
 8001276:	f007 fa95 	bl	80087a4 <sqrtf>
 800127a:	eddf 0a9f 	vldr	s1, [pc, #636]	@ 80014f8 <BallbotEKF_Update+0x2cc>
 800127e:	eeb0 0a4b 	vmov.f32	s0, s22
 8001282:	f007 fb54 	bl	800892e <fminf>
 8001286:	eddf 0a9d 	vldr	s1, [pc, #628]	@ 80014fc <BallbotEKF_Update+0x2d0>
 800128a:	f007 fb33 	bl	80088f4 <fmaxf>
 800128e:	eef1 0a02 	vmov.f32	s1, #18	@ 0x40900000  4.5
 8001292:	eeb0 ba40 	vmov.f32	s22, s0
 8001296:	eeb0 0a6a 	vmov.f32	s0, s21
 800129a:	f007 fb48 	bl	800892e <fminf>
 800129e:	eef9 0a02 	vmov.f32	s1, #146	@ 0xc0900000 -4.5
 80012a2:	f007 fb27 	bl	80088f4 <fmaxf>
 80012a6:	ee78 0a6c 	vsub.f32	s1, s16, s25
 80012aa:	ee79 7a4d 	vsub.f32	s15, s18, s26
 80012ae:	eee0 baa8 	vfma.f32	s23, s1, s17
 80012b2:	22f8      	movs	r2, #248	@ 0xf8
 80012b4:	2100      	movs	r1, #0
 80012b6:	eea7 caa8 	vfma.f32	s24, s15, s17
 80012ba:	4630      	mov	r0, r6
 80012bc:	edc4 0a03 	vstr	s1, [r4, #12]
 80012c0:	eef0 aa40 	vmov.f32	s21, s0
 80012c4:	edc4 7a02 	vstr	s15, [r4, #8]
 80012c8:	eeb7 8a00 	vmov.f32	s16, #112	@ 0x3f800000  1.0
 80012cc:	eef1 8a68 	vneg.f32	s17, s17
 80012d0:	ed84 ca00 	vstr	s24, [r4]
 80012d4:	edc4 ba01 	vstr	s23, [r4, #4]
 80012d8:	f008 fde1 	bl	8009e9e <memset>
 80012dc:	4a88      	ldr	r2, [pc, #544]	@ (8001500 <BallbotEKF_Update+0x2d4>)
 80012de:	4989      	ldr	r1, [pc, #548]	@ (8001504 <BallbotEKF_Update+0x2d8>)
 80012e0:	4889      	ldr	r0, [pc, #548]	@ (8001508 <BallbotEKF_Update+0x2dc>)
 80012e2:	edc6 8a05 	vstr	s17, [r6, #20]
 80012e6:	edc6 8a0e 	vstr	s17, [r6, #56]	@ 0x38
 80012ea:	6572      	str	r2, [r6, #84]	@ 0x54
 80012ec:	67b2      	str	r2, [r6, #120]	@ 0x78
 80012ee:	ed06 8a01 	vstr	s16, [r6, #-4]
 80012f2:	ed86 8a08 	vstr	s16, [r6, #32]
 80012f6:	ed86 8a23 	vstr	s16, [r6, #140]	@ 0x8c
 80012fa:	ed86 8a2c 	vstr	s16, [r6, #176]	@ 0xb0
 80012fe:	ed86 8a35 	vstr	s16, [r6, #212]	@ 0xd4
 8001302:	ed86 8a3e 	vstr	s16, [r6, #248]	@ 0xf8
 8001306:	f006 ff73 	bl	80081f0 <arm_mat_trans_f32>
 800130a:	4a80      	ldr	r2, [pc, #512]	@ (800150c <BallbotEKF_Update+0x2e0>)
 800130c:	4980      	ldr	r1, [pc, #512]	@ (8001510 <BallbotEKF_Update+0x2e4>)
 800130e:	487e      	ldr	r0, [pc, #504]	@ (8001508 <BallbotEKF_Update+0x2dc>)
 8001310:	4e80      	ldr	r6, [pc, #512]	@ (8001514 <BallbotEKF_Update+0x2e8>)
 8001312:	eddf ba81 	vldr	s23, [pc, #516]	@ 8001518 <BallbotEKF_Update+0x2ec>
 8001316:	f007 f831 	bl	800837c <arm_mat_mult_f32>
 800131a:	4a7d      	ldr	r2, [pc, #500]	@ (8001510 <BallbotEKF_Update+0x2e4>)
 800131c:	4979      	ldr	r1, [pc, #484]	@ (8001504 <BallbotEKF_Update+0x2d8>)
 800131e:	487b      	ldr	r0, [pc, #492]	@ (800150c <BallbotEKF_Update+0x2e0>)
 8001320:	f007 f82c 	bl	800837c <arm_mat_mult_f32>
 8001324:	4a7a      	ldr	r2, [pc, #488]	@ (8001510 <BallbotEKF_Update+0x2e4>)
 8001326:	497d      	ldr	r1, [pc, #500]	@ (800151c <BallbotEKF_Update+0x2f0>)
 8001328:	4610      	mov	r0, r2
 800132a:	f007 f9d1 	bl	80086d0 <arm_mat_add_f32>
 800132e:	2280      	movs	r2, #128	@ 0x80
 8001330:	2100      	movs	r1, #0
 8001332:	4630      	mov	r0, r6
 8001334:	f008 fdb3 	bl	8009e9e <memset>
 8001338:	ed94 ca01 	vldr	s24, [r4, #4]
 800133c:	eeb0 0a4c 	vmov.f32	s0, s24
 8001340:	f007 fa4e 	bl	80087e0 <cosf>
 8001344:	edd4 8a00 	vldr	s17, [r4]
 8001348:	ee60 7a2b 	vmul.f32	s15, s0, s23
 800134c:	eeb0 9a40 	vmov.f32	s18, s0
 8001350:	eeb0 0a68 	vmov.f32	s0, s17
 8001354:	edc6 7a01 	vstr	s15, [r6, #4]
 8001358:	f007 fa42 	bl	80087e0 <cosf>
 800135c:	eddf 7a70 	vldr	s15, [pc, #448]	@ 8001520 <BallbotEKF_Update+0x2f4>
 8001360:	ee60 7a27 	vmul.f32	s15, s0, s15
 8001364:	eeb0 0a68 	vmov.f32	s0, s17
 8001368:	ee67 7a89 	vmul.f32	s15, s15, s18
 800136c:	edc6 7a08 	vstr	s15, [r6, #32]
 8001370:	f007 fa7a 	bl	8008868 <sinf>
 8001374:	ee60 8a2b 	vmul.f32	s17, s0, s23
 8001378:	eeb0 0a4c 	vmov.f32	s0, s24
 800137c:	f007 fa74 	bl	8008868 <sinf>
 8001380:	4b68      	ldr	r3, [pc, #416]	@ (8001524 <BallbotEKF_Update+0x2f8>)
 8001382:	6922      	ldr	r2, [r4, #16]
 8001384:	609a      	str	r2, [r3, #8]
 8001386:	ee28 7a80 	vmul.f32	s14, s17, s0
 800138a:	ee60 7a2b 	vmul.f32	s15, s0, s23
 800138e:	ee68 8ac9 	vnmul.f32	s17, s17, s18
 8001392:	6962      	ldr	r2, [r4, #20]
 8001394:	edc3 7a00 	vstr	s15, [r3]
 8001398:	60da      	str	r2, [r3, #12]
 800139a:	edc3 8a01 	vstr	s17, [r3, #4]
 800139e:	4b62      	ldr	r3, [pc, #392]	@ (8001528 <BallbotEKF_Update+0x2fc>)
 80013a0:	4a62      	ldr	r2, [pc, #392]	@ (800152c <BallbotEKF_Update+0x300>)
 80013a2:	4963      	ldr	r1, [pc, #396]	@ (8001530 <BallbotEKF_Update+0x304>)
 80013a4:	4863      	ldr	r0, [pc, #396]	@ (8001534 <BallbotEKF_Update+0x308>)
 80013a6:	ed86 7a09 	vstr	s14, [r6, #36]	@ 0x24
 80013aa:	ed83 aa00 	vstr	s20, [r3]
 80013ae:	edc3 9a01 	vstr	s19, [r3, #4]
 80013b2:	ed83 ba02 	vstr	s22, [r3, #8]
 80013b6:	edc3 aa03 	vstr	s21, [r3, #12]
 80013ba:	ed86 8a14 	vstr	s16, [r6, #80]	@ 0x50
 80013be:	ed86 8a1d 	vstr	s16, [r6, #116]	@ 0x74
 80013c2:	f006 ff71 	bl	80082a8 <arm_mat_sub_f32>
 80013c6:	495c      	ldr	r1, [pc, #368]	@ (8001538 <BallbotEKF_Update+0x30c>)
 80013c8:	485c      	ldr	r0, [pc, #368]	@ (800153c <BallbotEKF_Update+0x310>)
 80013ca:	f006 ff11 	bl	80081f0 <arm_mat_trans_f32>
 80013ce:	4a5c      	ldr	r2, [pc, #368]	@ (8001540 <BallbotEKF_Update+0x314>)
 80013d0:	494f      	ldr	r1, [pc, #316]	@ (8001510 <BallbotEKF_Update+0x2e4>)
 80013d2:	485a      	ldr	r0, [pc, #360]	@ (800153c <BallbotEKF_Update+0x310>)
 80013d4:	f006 ffd2 	bl	800837c <arm_mat_mult_f32>
 80013d8:	4a5a      	ldr	r2, [pc, #360]	@ (8001544 <BallbotEKF_Update+0x318>)
 80013da:	4957      	ldr	r1, [pc, #348]	@ (8001538 <BallbotEKF_Update+0x30c>)
 80013dc:	4858      	ldr	r0, [pc, #352]	@ (8001540 <BallbotEKF_Update+0x314>)
 80013de:	f006 ffcd 	bl	800837c <arm_mat_mult_f32>
 80013e2:	4a58      	ldr	r2, [pc, #352]	@ (8001544 <BallbotEKF_Update+0x318>)
 80013e4:	4958      	ldr	r1, [pc, #352]	@ (8001548 <BallbotEKF_Update+0x31c>)
 80013e6:	4610      	mov	r0, r2
 80013e8:	f007 f972 	bl	80086d0 <arm_mat_add_f32>
 80013ec:	4957      	ldr	r1, [pc, #348]	@ (800154c <BallbotEKF_Update+0x320>)
 80013ee:	4855      	ldr	r0, [pc, #340]	@ (8001544 <BallbotEKF_Update+0x318>)
 80013f0:	f007 f864 	bl	80084bc <arm_mat_inverse_f32>
 80013f4:	2800      	cmp	r0, #0
 80013f6:	d176      	bne.n	80014e6 <BallbotEKF_Update+0x2ba>
 80013f8:	4a55      	ldr	r2, [pc, #340]	@ (8001550 <BallbotEKF_Update+0x324>)
 80013fa:	494f      	ldr	r1, [pc, #316]	@ (8001538 <BallbotEKF_Update+0x30c>)
 80013fc:	4844      	ldr	r0, [pc, #272]	@ (8001510 <BallbotEKF_Update+0x2e4>)
 80013fe:	f006 ffbd 	bl	800837c <arm_mat_mult_f32>
 8001402:	4a54      	ldr	r2, [pc, #336]	@ (8001554 <BallbotEKF_Update+0x328>)
 8001404:	4951      	ldr	r1, [pc, #324]	@ (800154c <BallbotEKF_Update+0x320>)
 8001406:	4852      	ldr	r0, [pc, #328]	@ (8001550 <BallbotEKF_Update+0x324>)
 8001408:	f006 ffb8 	bl	800837c <arm_mat_mult_f32>
 800140c:	4a52      	ldr	r2, [pc, #328]	@ (8001558 <BallbotEKF_Update+0x32c>)
 800140e:	4947      	ldr	r1, [pc, #284]	@ (800152c <BallbotEKF_Update+0x300>)
 8001410:	4850      	ldr	r0, [pc, #320]	@ (8001554 <BallbotEKF_Update+0x328>)
 8001412:	f006 ffb3 	bl	800837c <arm_mat_mult_f32>
 8001416:	4a51      	ldr	r2, [pc, #324]	@ (800155c <BallbotEKF_Update+0x330>)
 8001418:	494f      	ldr	r1, [pc, #316]	@ (8001558 <BallbotEKF_Update+0x32c>)
 800141a:	4610      	mov	r0, r2
 800141c:	f007 f958 	bl	80086d0 <arm_mat_add_f32>
 8001420:	4a38      	ldr	r2, [pc, #224]	@ (8001504 <BallbotEKF_Update+0x2d8>)
 8001422:	4946      	ldr	r1, [pc, #280]	@ (800153c <BallbotEKF_Update+0x310>)
 8001424:	484b      	ldr	r0, [pc, #300]	@ (8001554 <BallbotEKF_Update+0x328>)
 8001426:	f006 ffa9 	bl	800837c <arm_mat_mult_f32>
 800142a:	4a38      	ldr	r2, [pc, #224]	@ (800150c <BallbotEKF_Update+0x2e0>)
 800142c:	4935      	ldr	r1, [pc, #212]	@ (8001504 <BallbotEKF_Update+0x2d8>)
 800142e:	484c      	ldr	r0, [pc, #304]	@ (8001560 <BallbotEKF_Update+0x334>)
 8001430:	f006 ff3a 	bl	80082a8 <arm_mat_sub_f32>
 8001434:	4a33      	ldr	r2, [pc, #204]	@ (8001504 <BallbotEKF_Update+0x2d8>)
 8001436:	4936      	ldr	r1, [pc, #216]	@ (8001510 <BallbotEKF_Update+0x2e4>)
 8001438:	4834      	ldr	r0, [pc, #208]	@ (800150c <BallbotEKF_Update+0x2e0>)
 800143a:	f006 ff9f 	bl	800837c <arm_mat_mult_f32>
 800143e:	4949      	ldr	r1, [pc, #292]	@ (8001564 <BallbotEKF_Update+0x338>)
 8001440:	4832      	ldr	r0, [pc, #200]	@ (800150c <BallbotEKF_Update+0x2e0>)
 8001442:	f006 fed5 	bl	80081f0 <arm_mat_trans_f32>
 8001446:	4a31      	ldr	r2, [pc, #196]	@ (800150c <BallbotEKF_Update+0x2e0>)
 8001448:	4946      	ldr	r1, [pc, #280]	@ (8001564 <BallbotEKF_Update+0x338>)
 800144a:	482e      	ldr	r0, [pc, #184]	@ (8001504 <BallbotEKF_Update+0x2d8>)
 800144c:	f006 ff96 	bl	800837c <arm_mat_mult_f32>
 8001450:	4a39      	ldr	r2, [pc, #228]	@ (8001538 <BallbotEKF_Update+0x30c>)
 8001452:	493d      	ldr	r1, [pc, #244]	@ (8001548 <BallbotEKF_Update+0x31c>)
 8001454:	483f      	ldr	r0, [pc, #252]	@ (8001554 <BallbotEKF_Update+0x328>)
 8001456:	f006 ff91 	bl	800837c <arm_mat_mult_f32>
 800145a:	4939      	ldr	r1, [pc, #228]	@ (8001540 <BallbotEKF_Update+0x314>)
 800145c:	483d      	ldr	r0, [pc, #244]	@ (8001554 <BallbotEKF_Update+0x328>)
 800145e:	f006 fec7 	bl	80081f0 <arm_mat_trans_f32>
 8001462:	4a28      	ldr	r2, [pc, #160]	@ (8001504 <BallbotEKF_Update+0x2d8>)
 8001464:	4936      	ldr	r1, [pc, #216]	@ (8001540 <BallbotEKF_Update+0x314>)
 8001466:	4834      	ldr	r0, [pc, #208]	@ (8001538 <BallbotEKF_Update+0x30c>)
 8001468:	f006 ff88 	bl	800837c <arm_mat_mult_f32>
 800146c:	4a28      	ldr	r2, [pc, #160]	@ (8001510 <BallbotEKF_Update+0x2e4>)
 800146e:	4925      	ldr	r1, [pc, #148]	@ (8001504 <BallbotEKF_Update+0x2d8>)
 8001470:	4826      	ldr	r0, [pc, #152]	@ (800150c <BallbotEKF_Update+0x2e0>)
 8001472:	f007 f92d 	bl	80086d0 <arm_mat_add_f32>
 8001476:	4b3c      	ldr	r3, [pc, #240]	@ (8001568 <BallbotEKF_Update+0x33c>)
 8001478:	edd3 7a00 	vldr	s15, [r3]
 800147c:	ed93 7a24 	vldr	s14, [r3, #144]	@ 0x90
 8001480:	eef4 7ac8 	vcmpe.f32	s15, s16
 8001484:	edd3 7a09 	vldr	s15, [r3, #36]	@ 0x24
 8001488:	eef1 fa10 	vmrs	APSR_nzcv, fpscr
 800148c:	eef4 7ac8 	vcmpe.f32	s15, s16
 8001490:	eef1 7a00 	vmov.f32	s15, #16	@ 0x40800000  4.0
 8001494:	bfc8      	it	gt
 8001496:	ed83 8a00 	vstrgt	s16, [r3]
 800149a:	eef1 fa10 	vmrs	APSR_nzcv, fpscr
 800149e:	eeb4 7ae7 	vcmpe.f32	s14, s15
 80014a2:	ed93 7a2d 	vldr	s14, [r3, #180]	@ 0xb4
 80014a6:	bfc8      	it	gt
 80014a8:	ed83 8a09 	vstrgt	s16, [r3, #36]	@ 0x24
 80014ac:	eef1 fa10 	vmrs	APSR_nzcv, fpscr
 80014b0:	eeb4 7ae7 	vcmpe.f32	s14, s15
 80014b4:	bfc8      	it	gt
 80014b6:	edc3 7a24 	vstrgt	s15, [r3, #144]	@ 0x90
 80014ba:	eef1 fa10 	vmrs	APSR_nzcv, fpscr
 80014be:	bfc8      	it	gt
 80014c0:	edc3 7a2d 	vstrgt	s15, [r3, #180]	@ 0xb4
 80014c4:	b17d      	cbz	r5, 80014e6 <BallbotEKF_Update+0x2ba>
 80014c6:	6823      	ldr	r3, [r4, #0]
 80014c8:	602b      	str	r3, [r5, #0]
 80014ca:	6863      	ldr	r3, [r4, #4]
 80014cc:	606b      	str	r3, [r5, #4]
 80014ce:	68a3      	ldr	r3, [r4, #8]
 80014d0:	60ab      	str	r3, [r5, #8]
 80014d2:	68e3      	ldr	r3, [r4, #12]
 80014d4:	60eb      	str	r3, [r5, #12]
 80014d6:	6923      	ldr	r3, [r4, #16]
 80014d8:	612b      	str	r3, [r5, #16]
 80014da:	6963      	ldr	r3, [r4, #20]
 80014dc:	616b      	str	r3, [r5, #20]
 80014de:	69a3      	ldr	r3, [r4, #24]
 80014e0:	61ab      	str	r3, [r5, #24]
 80014e2:	69e3      	ldr	r3, [r4, #28]
 80014e4:	61eb      	str	r3, [r5, #28]
 80014e6:	ecbd 8b0c 	vpop	{d8-d13}
 80014ea:	bd70      	pop	{r4, r5, r6, pc}
 80014ec:	20000e7c 	.word	0x20000e7c
 80014f0:	20000e5c 	.word	0x20000e5c
 80014f4:	20000b20 	.word	0x20000b20
 80014f8:	40a66666 	.word	0x40a66666
 80014fc:	c0a66666 	.word	0xc0a66666
 8001500:	bf800000 	.word	0xbf800000
 8001504:	2000031c 	.word	0x2000031c
 8001508:	20000364 	.word	0x20000364
 800150c:	20000314 	.word	0x20000314
 8001510:	2000037c 	.word	0x2000037c
 8001514:	20000a9c 	.word	0x20000a9c
 8001518:	411cf5c3 	.word	0x411cf5c3
 800151c:	20000374 	.word	0x20000374
 8001520:	c11cf5c3 	.word	0xc11cf5c3
 8001524:	20000a6c 	.word	0x20000a6c
 8001528:	20000a7c 	.word	0x20000a7c
 800152c:	20000354 	.word	0x20000354
 8001530:	20000344 	.word	0x20000344
 8001534:	2000034c 	.word	0x2000034c
 8001538:	200002fc 	.word	0x200002fc
 800153c:	2000035c 	.word	0x2000035c
 8001540:	20000304 	.word	0x20000304
 8001544:	2000033c 	.word	0x2000033c
 8001548:	2000036c 	.word	0x2000036c
 800154c:	20000334 	.word	0x20000334
 8001550:	200002f4 	.word	0x200002f4
 8001554:	2000032c 	.word	0x2000032c
 8001558:	200002e4 	.word	0x200002e4
 800155c:	20000384 	.word	0x20000384
 8001560:	20000324 	.word	0x20000324
 8001564:	2000030c 	.word	0x2000030c
 8001568:	20000d5c 	.word	0x20000d5c

0800156c <vApplicationGetIdleTaskMemory>:
static StaticTask_t xIdleTaskTCBBuffer;
static StackType_t xIdleStack[configMINIMAL_STACK_SIZE];

void vApplicationGetIdleTaskMemory( StaticTask_t **ppxIdleTaskTCBBuffer, StackType_t **ppxIdleTaskStackBuffer, uint32_t *pulIdleTaskStackSize )
{
  *ppxIdleTaskTCBBuffer = &xIdleTaskTCBBuffer;
 800156c:	4b03      	ldr	r3, [pc, #12]	@ (800157c <vApplicationGetIdleTaskMemory+0x10>)
 800156e:	6003      	str	r3, [r0, #0]
  *ppxIdleTaskStackBuffer = &xIdleStack[0];
 8001570:	4b03      	ldr	r3, [pc, #12]	@ (8001580 <vApplicationGetIdleTaskMemory+0x14>)
 8001572:	600b      	str	r3, [r1, #0]
  *pulIdleTaskStackSize = configMINIMAL_STACK_SIZE;
 8001574:	2380      	movs	r3, #128	@ 0x80
 8001576:	6013      	str	r3, [r2, #0]
  /* place for user code */
}
 8001578:	4770      	bx	lr
 800157a:	bf00      	nop
 800157c:	20001080 	.word	0x20001080
 8001580:	20000e80 	.word	0x20000e80

08001584 <updateReferencesFromROS>:
float prev_filtered_torque[3] = {0.0f, 0.0f, 0.0f};

float physical_torque[3] = {0};

void updateReferencesFromROS(float ros_v_x, float ros_v_y, float ros_yaw_rate, uint32_t current_time_ms) {
    last_ros_msg_time = current_time_ms;
 8001584:	4b0f      	ldr	r3, [pc, #60]	@ (80015c4 <updateReferencesFromROS+0x40>)
 8001586:	6018      	str	r0, [r3, #0]
    target_world_x = ros_v_x;
 8001588:	4b0f      	ldr	r3, [pc, #60]	@ (80015c8 <updateReferencesFromROS+0x44>)
    target_world_y = ros_v_y;
    if (ros_yaw_rate > MAX_YAW_RATE)  ros_yaw_rate = MAX_YAW_RATE;
 800158a:	eef7 7a00 	vmov.f32	s15, #112	@ 0x3f800000  1.0
    target_world_x = ros_v_x;
 800158e:	ed83 0a00 	vstr	s0, [r3]
    if (ros_yaw_rate > MAX_YAW_RATE)  ros_yaw_rate = MAX_YAW_RATE;
 8001592:	eeb4 1ae7 	vcmpe.f32	s2, s15
    target_world_y = ros_v_y;
 8001596:	4b0d      	ldr	r3, [pc, #52]	@ (80015cc <updateReferencesFromROS+0x48>)
    if (ros_yaw_rate > MAX_YAW_RATE)  ros_yaw_rate = MAX_YAW_RATE;
 8001598:	eef1 fa10 	vmrs	APSR_nzcv, fpscr
    target_world_y = ros_v_y;
 800159c:	edc3 0a00 	vstr	s1, [r3]
    if (ros_yaw_rate > MAX_YAW_RATE)  ros_yaw_rate = MAX_YAW_RATE;
 80015a0:	dc0c      	bgt.n	80015bc <updateReferencesFromROS+0x38>
    if (ros_yaw_rate < -MAX_YAW_RATE) ros_yaw_rate = -MAX_YAW_RATE;
 80015a2:	eeff 7a00 	vmov.f32	s15, #240	@ 0xbf800000 -1.0
 80015a6:	eeb4 1a67 	vcmp.f32	s2, s15
 80015aa:	eef1 fa10 	vmrs	APSR_nzcv, fpscr
 80015ae:	bf48      	it	mi
 80015b0:	eeb0 1a67 	vmovmi.f32	s2, s15
    target_yaw_rate = ros_yaw_rate;
 80015b4:	4b06      	ldr	r3, [pc, #24]	@ (80015d0 <updateReferencesFromROS+0x4c>)
 80015b6:	ed83 1a00 	vstr	s2, [r3]
}
 80015ba:	4770      	bx	lr
    if (ros_yaw_rate > MAX_YAW_RATE)  ros_yaw_rate = MAX_YAW_RATE;
 80015bc:	eeb0 1a67 	vmov.f32	s2, s15
 80015c0:	e7f8      	b.n	80015b4 <updateReferencesFromROS+0x30>
 80015c2:	bf00      	nop
 80015c4:	20001144 	.word	0x20001144
 80015c8:	20001150 	.word	0x20001150
 80015cc:	2000114c 	.word	0x2000114c
 80015d0:	20001148 	.word	0x20001148

080015d4 <controlLoop>:
//        target_world_y = 0.0f;
//        target_yaw_rate = 0.0f;
//    }

    // ── STEP 1: Compute error for the 8 inner states ──
    for (int i = 0; i < 8; i++) {
 80015d4:	4a5b      	ldr	r2, [pc, #364]	@ (8001744 <controlLoop+0x170>)
void controlLoop(float dt, uint32_t current_time_ms, float* out_motor_torques) {
 80015d6:	b5f0      	push	{r4, r5, r6, r7, lr}
 80015d8:	4d5b      	ldr	r5, [pc, #364]	@ (8001748 <controlLoop+0x174>)
 80015da:	4c5c      	ldr	r4, [pc, #368]	@ (800174c <controlLoop+0x178>)
 80015dc:	4610      	mov	r0, r2
    for (int i = 0; i < 8; i++) {
 80015de:	2300      	movs	r3, #0
        error_state[i] = current_state[i] - reference_state[i];
 80015e0:	ecf5 7a01 	vldmia	r5!, {s15}
 80015e4:	ecb4 7a01 	vldmia	r4!, {s14}
    for (int i = 0; i < 8; i++) {
 80015e8:	3301      	adds	r3, #1
        error_state[i] = current_state[i] - reference_state[i];
 80015ea:	ee77 7ac7 	vsub.f32	s15, s15, s14
    for (int i = 0; i < 8; i++) {
 80015ee:	2b08      	cmp	r3, #8
        error_state[i] = current_state[i] - reference_state[i];
 80015f0:	ece0 7a01 	vstmia	r0!, {s15}
    for (int i = 0; i < 8; i++) {
 80015f4:	d1f4      	bne.n	80015e0 <controlLoop+0xc>
    }

    // ── STEP 2: Integrate velocity error (states 3=Vx, 4=Vy) ──
    integral_error_x += error_state[3] * dt;
 80015f6:	4856      	ldr	r0, [pc, #344]	@ (8001750 <controlLoop+0x17c>)
 80015f8:	edd2 7a03 	vldr	s15, [r2, #12]
 80015fc:	ed90 7a00 	vldr	s14, [r0]
    integral_error_y += error_state[4] * dt;
 8001600:	4b54      	ldr	r3, [pc, #336]	@ (8001754 <controlLoop+0x180>)
 8001602:	edd2 6a04 	vldr	s13, [r2, #16]
    integral_error_x += error_state[3] * dt;
 8001606:	eea7 7a80 	vfma.f32	s14, s15, s0
    integral_error_y += error_state[4] * dt;
 800160a:	edd3 7a00 	vldr	s15, [r3]
    integral_error_x += error_state[3] * dt;
 800160e:	ed80 7a00 	vstr	s14, [r0]
    integral_error_y += error_state[4] * dt;
 8001612:	eee6 7a80 	vfma.f32	s15, s13, s0

    // Clamp integrals to prevent windup
    if (integral_error_x >  MAX_INTEGRAL) integral_error_x =  MAX_INTEGRAL;
 8001616:	eddf 6a50 	vldr	s13, [pc, #320]	@ 8001758 <controlLoop+0x184>
    integral_error_y += error_state[4] * dt;
 800161a:	edc3 7a00 	vstr	s15, [r3]
    if (integral_error_x >  MAX_INTEGRAL) integral_error_x =  MAX_INTEGRAL;
 800161e:	eeb4 7ae6 	vcmpe.f32	s14, s13
 8001622:	eef1 fa10 	vmrs	APSR_nzcv, fpscr
 8001626:	dd78      	ble.n	800171a <controlLoop+0x146>
 8001628:	edc0 6a00 	vstr	s13, [r0]
    if (integral_error_x < -MAX_INTEGRAL) integral_error_x = -MAX_INTEGRAL;
    if (integral_error_y >  MAX_INTEGRAL) integral_error_y =  MAX_INTEGRAL;
 800162c:	eef4 7ae6 	vcmpe.f32	s15, s13
 8001630:	eef1 fa10 	vmrs	APSR_nzcv, fpscr
 8001634:	dd7b      	ble.n	800172e <controlLoop+0x15a>
 8001636:	edc3 6a00 	vstr	s13, [r3]
    if (integral_error_y < -MAX_INTEGRAL) integral_error_y = -MAX_INTEGRAL;

    error_state[8] = integral_error_x;
 800163a:	6800      	ldr	r0, [r0, #0]
 800163c:	6210      	str	r0, [r2, #32]
    error_state[9] = integral_error_y;
 800163e:	4847      	ldr	r0, [pc, #284]	@ (800175c <controlLoop+0x188>)
 8001640:	681b      	ldr	r3, [r3, #0]
 8001642:	4d47      	ldr	r5, [pc, #284]	@ (8001760 <controlLoop+0x18c>)
 8001644:	6253      	str	r3, [r2, #36]	@ 0x24
 8001646:	4607      	mov	r7, r0


    // ── STEP 3: Matrix multiply — torques = -K * error ──
    for (int i = 0; i < 3; i++) {
 8001648:	2400      	movs	r4, #0
 800164a:	4603      	mov	r3, r0
 800164c:	eddf 7a45 	vldr	s15, [pc, #276]	@ 8001764 <controlLoop+0x190>
 8001650:	4694      	mov	ip, r2
 8001652:	46ae      	mov	lr, r5
        physical_torque[i] = 0.0f;
        for (int j = 0; j < 10; j++) {
 8001654:	2600      	movs	r6, #0
            physical_torque[i] -= K_LQI[i][j] * error_state[j];
 8001656:	ecfe 6a01 	vldmia	lr!, {s13}
 800165a:	ecbc 7a01 	vldmia	ip!, {s14}
        for (int j = 0; j < 10; j++) {
 800165e:	3601      	adds	r6, #1
 8001660:	2e0a      	cmp	r6, #10
            physical_torque[i] -= K_LQI[i][j] * error_state[j];
 8001662:	eee6 7ac7 	vfms.f32	s15, s13, s14
        for (int j = 0; j < 10; j++) {
 8001666:	d1f6      	bne.n	8001656 <controlLoop+0x82>
    for (int i = 0; i < 3; i++) {
 8001668:	3401      	adds	r4, #1
 800166a:	2c03      	cmp	r4, #3
 800166c:	ece7 7a01 	vstmia	r7!, {s15}
 8001670:	f105 0528 	add.w	r5, r5, #40	@ 0x28
 8001674:	d1ea      	bne.n	800164c <controlLoop+0x78>
    }

    // ── STEP 4: Proportional torque scaling (preserves direction ratios) ──
    float max_req_torque = 0.0f;
    for (int i = 0; i < 3; i++) {
        if (fabsf(physical_torque[i]) > max_req_torque) {
 8001676:	edd3 5a00 	vldr	s11, [r3]
 800167a:	ed93 6a01 	vldr	s12, [r3, #4]
 800167e:	edd3 6a02 	vldr	s13, [r3, #8]
            max_req_torque = fabsf(physical_torque[i]);
        }
    }
    if (max_req_torque > MAX_MOTOR_TORQUE) {
 8001682:	ed9f 5a39 	vldr	s10, [pc, #228]	@ 8001768 <controlLoop+0x194>
        if (fabsf(physical_torque[i]) > max_req_torque) {
 8001686:	eef0 7ae5 	vabs.f32	s15, s11
 800168a:	eef5 7ac0 	vcmpe.f32	s15, #0.0
 800168e:	eef1 fa10 	vmrs	APSR_nzcv, fpscr
    float max_req_torque = 0.0f;
 8001692:	bfd8      	it	le
 8001694:	eddf 7a33 	vldrle	s15, [pc, #204]	@ 8001764 <controlLoop+0x190>
        if (fabsf(physical_torque[i]) > max_req_torque) {
 8001698:	eeb0 7ac6 	vabs.f32	s14, s12
 800169c:	eeb4 7ae7 	vcmpe.f32	s14, s15
 80016a0:	eef1 fa10 	vmrs	APSR_nzcv, fpscr
 80016a4:	bfd8      	it	le
 80016a6:	eeb0 7a67 	vmovle.f32	s14, s15
 80016aa:	eef0 7ae6 	vabs.f32	s15, s13
 80016ae:	eef4 7ac7 	vcmpe.f32	s15, s14
 80016b2:	eef1 fa10 	vmrs	APSR_nzcv, fpscr
 80016b6:	bfd8      	it	le
 80016b8:	eef0 7a47 	vmovle.f32	s15, s14
    if (max_req_torque > MAX_MOTOR_TORQUE) {
 80016bc:	eef4 7ac5 	vcmpe.f32	s15, s10
 80016c0:	eef1 fa10 	vmrs	APSR_nzcv, fpscr
 80016c4:	dd0d      	ble.n	80016e2 <controlLoop+0x10e>
        float scale = MAX_MOTOR_TORQUE / max_req_torque;
 80016c6:	ee85 7a27 	vdiv.f32	s14, s10, s15
        for (int i = 0; i < 3; i++) {
            physical_torque[i] *= scale;
 80016ca:	ee67 5a25 	vmul.f32	s11, s14, s11
 80016ce:	ee26 6a07 	vmul.f32	s12, s12, s14
 80016d2:	ee66 6a87 	vmul.f32	s13, s13, s14
 80016d6:	edc3 5a00 	vstr	s11, [r3]
 80016da:	ed83 6a01 	vstr	s12, [r3, #4]
 80016de:	edc3 6a02 	vstr	s13, [r3, #8]
        }
    }

    // ── STEP 5: Low-pass filter to smooth motor commands ──
    for (int i = 0; i < 3; i++) {
 80016e2:	4c22      	ldr	r4, [pc, #136]	@ (800176c <controlLoop+0x198>)
        float smoothed = (LPF_ALPHA * physical_torque[i]) + ((1.0f - LPF_ALPHA) * prev_filtered_torque[i]);
 80016e4:	ed9f 6a22 	vldr	s12, [pc, #136]	@ 8001770 <controlLoop+0x19c>
 80016e8:	ed9f 7a22 	vldr	s14, [pc, #136]	@ 8001774 <controlLoop+0x1a0>
        if (fabsf(physical_torque[i]) > max_req_torque) {
 80016ec:	2200      	movs	r2, #0
        float smoothed = (LPF_ALPHA * physical_torque[i]) + ((1.0f - LPF_ALPHA) * prev_filtered_torque[i]);
 80016ee:	edd4 7a00 	vldr	s15, [r4]
 80016f2:	edd0 6a00 	vldr	s13, [r0]
 80016f6:	ee67 7a86 	vmul.f32	s15, s15, s12
    for (int i = 0; i < 3; i++) {
 80016fa:	3201      	adds	r2, #1
        float smoothed = (LPF_ALPHA * physical_torque[i]) + ((1.0f - LPF_ALPHA) * prev_filtered_torque[i]);
 80016fc:	eee6 7a87 	vfma.f32	s15, s13, s14
    for (int i = 0; i < 3; i++) {
 8001700:	2a03      	cmp	r2, #3
        prev_filtered_torque[i] = smoothed;
 8001702:	ece4 7a01 	vstmia	r4!, {s15}
        physical_torque[i] = smoothed;
 8001706:	ece0 7a01 	vstmia	r0!, {s15}
    for (int i = 0; i < 3; i++) {
 800170a:	d1f0      	bne.n	80016ee <controlLoop+0x11a>
    }

    out_motor_torques[0] = physical_torque[0];
 800170c:	681a      	ldr	r2, [r3, #0]
 800170e:	600a      	str	r2, [r1, #0]
    out_motor_torques[1] = physical_torque[1];
 8001710:	685a      	ldr	r2, [r3, #4]
 8001712:	604a      	str	r2, [r1, #4]
    out_motor_torques[2] = physical_torque[2];
 8001714:	689b      	ldr	r3, [r3, #8]
 8001716:	608b      	str	r3, [r1, #8]
}
 8001718:	bdf0      	pop	{r4, r5, r6, r7, pc}
    if (integral_error_x < -MAX_INTEGRAL) integral_error_x = -MAX_INTEGRAL;
 800171a:	ed9f 6a17 	vldr	s12, [pc, #92]	@ 8001778 <controlLoop+0x1a4>
 800171e:	eeb4 7ac6 	vcmpe.f32	s14, s12
 8001722:	eef1 fa10 	vmrs	APSR_nzcv, fpscr
 8001726:	bf48      	it	mi
 8001728:	ed80 6a00 	vstrmi	s12, [r0]
 800172c:	e77e      	b.n	800162c <controlLoop+0x58>
    if (integral_error_y < -MAX_INTEGRAL) integral_error_y = -MAX_INTEGRAL;
 800172e:	ed9f 7a12 	vldr	s14, [pc, #72]	@ 8001778 <controlLoop+0x1a4>
 8001732:	eef4 7ac7 	vcmpe.f32	s15, s14
 8001736:	eef1 fa10 	vmrs	APSR_nzcv, fpscr
 800173a:	bf48      	it	mi
 800173c:	ed83 7a00 	vstrmi	s14, [r3]
 8001740:	e77b      	b.n	800163a <controlLoop+0x66>
 8001742:	bf00      	nop
 8001744:	20001154 	.word	0x20001154
 8001748:	200011a4 	.word	0x200011a4
 800174c:	2000117c 	.word	0x2000117c
 8001750:	20001140 	.word	0x20001140
 8001754:	2000113c 	.word	0x2000113c
 8001758:	3dcccccd 	.word	0x3dcccccd
 800175c:	20001124 	.word	0x20001124
 8001760:	0800c148 	.word	0x0800c148
 8001764:	00000000 	.word	0x00000000
 8001768:	3f99999a 	.word	0x3f99999a
 800176c:	20001130 	.word	0x20001130
 8001770:	3f4ccccd 	.word	0x3f4ccccd
 8001774:	3e4ccccd 	.word	0x3e4ccccd
 8001778:	bdcccccd 	.word	0xbdcccccd

0800177c <Velocit_Task>:
  * @param  argument: Not used
  * @retval None
  */
/* USER CODE END Header_Velocit_Task */
void Velocit_Task(void const * argument)
{
 800177c:	b507      	push	{r0, r1, r2, lr}
  /* init code for USB_DEVICE */
//  MX_USB_DEVICE_Init();
  /* USER CODE BEGIN 5 */
	TickType_t xLastWakeTime = xTaskGetTickCount();
 800177e:	f005 fee3 	bl	8007548 <xTaskGetTickCount>
 8001782:	9001      	str	r0, [sp, #4]

  /* Infinite loop */
  for(;;)
  {
	  vTaskDelayUntil(&xLastWakeTime, 10);
 8001784:	210a      	movs	r1, #10
 8001786:	a801      	add	r0, sp, #4
 8001788:	f005 fff4 	bl	8007774 <vTaskDelayUntil>
  for(;;)
 800178c:	e7fa      	b.n	8001784 <Velocit_Task+0x8>
	...

08001790 <SystemClock_Config>:
{
 8001790:	b510      	push	{r4, lr}
  RCC_OscInitTypeDef RCC_OscInitStruct = {0};
 8001792:	2400      	movs	r4, #0
{
 8001794:	b094      	sub	sp, #80	@ 0x50
  RCC_ClkInitTypeDef RCC_ClkInitStruct = {0};
 8001796:	4621      	mov	r1, r4
 8001798:	2214      	movs	r2, #20
 800179a:	a803      	add	r0, sp, #12
  RCC_OscInitTypeDef RCC_OscInitStruct = {0};
 800179c:	e9cd 440a 	strd	r4, r4, [sp, #40]	@ 0x28
 80017a0:	940c      	str	r4, [sp, #48]	@ 0x30
  RCC_ClkInitTypeDef RCC_ClkInitStruct = {0};
 80017a2:	f008 fb7c 	bl	8009e9e <memset>
  __HAL_RCC_PWR_CLK_ENABLE();
 80017a6:	4b20      	ldr	r3, [pc, #128]	@ (8001828 <SystemClock_Config+0x98>)
 80017a8:	9401      	str	r4, [sp, #4]
 80017aa:	6c1a      	ldr	r2, [r3, #64]	@ 0x40
 80017ac:	f042 5280 	orr.w	r2, r2, #268435456	@ 0x10000000
 80017b0:	641a      	str	r2, [r3, #64]	@ 0x40
 80017b2:	6c1b      	ldr	r3, [r3, #64]	@ 0x40
 80017b4:	f003 5380 	and.w	r3, r3, #268435456	@ 0x10000000
 80017b8:	9301      	str	r3, [sp, #4]
 80017ba:	9b01      	ldr	r3, [sp, #4]
  __HAL_PWR_VOLTAGESCALING_CONFIG(PWR_REGULATOR_VOLTAGE_SCALE1);
 80017bc:	4b1b      	ldr	r3, [pc, #108]	@ (800182c <SystemClock_Config+0x9c>)
 80017be:	9402      	str	r4, [sp, #8]
 80017c0:	681a      	ldr	r2, [r3, #0]
 80017c2:	f442 4240 	orr.w	r2, r2, #49152	@ 0xc000
 80017c6:	601a      	str	r2, [r3, #0]
 80017c8:	681b      	ldr	r3, [r3, #0]
 80017ca:	f403 4340 	and.w	r3, r3, #49152	@ 0xc000
 80017ce:	9302      	str	r3, [sp, #8]
 80017d0:	9b02      	ldr	r3, [sp, #8]
  RCC_OscInitStruct.HSEState = RCC_HSE_ON;
 80017d2:	2209      	movs	r2, #9
 80017d4:	f44f 3380 	mov.w	r3, #65536	@ 0x10000
  RCC_OscInitStruct.PLL.PLLState = RCC_PLL_ON;
 80017d8:	2402      	movs	r4, #2
  RCC_OscInitStruct.HSEState = RCC_HSE_ON;
 80017da:	e9cd 2308 	strd	r2, r3, [sp, #32]
  RCC_OscInitStruct.PLL.PLLState = RCC_PLL_ON;
 80017de:	2301      	movs	r3, #1
 80017e0:	e9cd 340d 	strd	r3, r4, [sp, #52]	@ 0x34
  RCC_OscInitStruct.PLL.PLLM = 25;
 80017e4:	f44f 0180 	mov.w	r1, #4194304	@ 0x400000
 80017e8:	2319      	movs	r3, #25
 80017ea:	e9cd 130f 	strd	r1, r3, [sp, #60]	@ 0x3c
  RCC_OscInitStruct.PLL.PLLN = 192;
 80017ee:	23c0      	movs	r3, #192	@ 0xc0
  RCC_OscInitStruct.PLL.PLLP = RCC_PLLP_DIV2;
 80017f0:	e9cd 3411 	strd	r3, r4, [sp, #68]	@ 0x44
  if (HAL_RCC_OscConfig(&RCC_OscInitStruct) != HAL_OK)
 80017f4:	a808      	add	r0, sp, #32
  RCC_OscInitStruct.PLL.PLLQ = 4;
 80017f6:	2304      	movs	r3, #4
 80017f8:	9313      	str	r3, [sp, #76]	@ 0x4c
  if (HAL_RCC_OscConfig(&RCC_OscInitStruct) != HAL_OK)
 80017fa:	f002 ff8d 	bl	8004718 <HAL_RCC_OscConfig>
 80017fe:	b108      	cbz	r0, 8001804 <SystemClock_Config+0x74>
  \details Disables IRQ interrupts by setting special-purpose register PRIMASK.
           Can only be executed in Privileged modes.
 */
__STATIC_FORCEINLINE void __disable_irq(void)
{
  __ASM volatile ("cpsid i" : : : "memory");
 8001800:	b672      	cpsid	i
void Error_Handler(void)
{
  /* USER CODE BEGIN Error_Handler_Debug */
  /* User can add his own implementation to report the HAL error return state */
  __disable_irq();
  while (1)
 8001802:	e7fe      	b.n	8001802 <SystemClock_Config+0x72>
  RCC_ClkInitStruct.ClockType = RCC_CLOCKTYPE_HCLK|RCC_CLOCKTYPE_SYSCLK
 8001804:	230f      	movs	r3, #15
  RCC_ClkInitStruct.SYSCLKSource = RCC_SYSCLKSOURCE_PLLCLK;
 8001806:	e9cd 3403 	strd	r3, r4, [sp, #12]
  RCC_ClkInitStruct.APB1CLKDivider = RCC_HCLK_DIV2;
 800180a:	f44f 5380 	mov.w	r3, #4096	@ 0x1000
  RCC_ClkInitStruct.APB2CLKDivider = RCC_HCLK_DIV1;
 800180e:	e9cd 3006 	strd	r3, r0, [sp, #24]
  RCC_ClkInitStruct.AHBCLKDivider = RCC_SYSCLK_DIV1;
 8001812:	9005      	str	r0, [sp, #20]
  if (HAL_RCC_ClockConfig(&RCC_ClkInitStruct, FLASH_LATENCY_3) != HAL_OK)
 8001814:	2103      	movs	r1, #3
 8001816:	a803      	add	r0, sp, #12
 8001818:	f003 f95a 	bl	8004ad0 <HAL_RCC_ClockConfig>
 800181c:	b108      	cbz	r0, 8001822 <SystemClock_Config+0x92>
 800181e:	b672      	cpsid	i
  while (1)
 8001820:	e7fe      	b.n	8001820 <SystemClock_Config+0x90>
}
 8001822:	b014      	add	sp, #80	@ 0x50
 8001824:	bd10      	pop	{r4, pc}
 8001826:	bf00      	nop
 8001828:	40023800 	.word	0x40023800
 800182c:	40007000 	.word	0x40007000

08001830 <main>:
{
 8001830:	e92d 4ff0 	stmdb	sp!, {r4, r5, r6, r7, r8, r9, sl, fp, lr}
 8001834:	b097      	sub	sp, #92	@ 0x5c
  __HAL_RCC_GPIOC_CLK_ENABLE();
 8001836:	2400      	movs	r4, #0
 8001838:	4da8      	ldr	r5, [pc, #672]	@ (8001adc <main+0x2ac>)
  HAL_Init();
 800183a:	f001 fa07 	bl	8002c4c <HAL_Init>
  SystemClock_Config();
 800183e:	f7ff ffa7 	bl	8001790 <SystemClock_Config>
  GPIO_InitTypeDef GPIO_InitStruct = {0};
 8001842:	2214      	movs	r2, #20
 8001844:	2100      	movs	r1, #0
 8001846:	a80d      	add	r0, sp, #52	@ 0x34
 8001848:	f008 fb29 	bl	8009e9e <memset>
  __HAL_RCC_GPIOC_CLK_ENABLE();
 800184c:	9402      	str	r4, [sp, #8]
 800184e:	6b2b      	ldr	r3, [r5, #48]	@ 0x30
  HAL_GPIO_WritePin(GPIOC, Black_Pill_LED_Pin|ENAPLE_M3_Pin, GPIO_PIN_RESET);
 8001850:	48a3      	ldr	r0, [pc, #652]	@ (8001ae0 <main+0x2b0>)
  __HAL_RCC_GPIOC_CLK_ENABLE();
 8001852:	f043 0304 	orr.w	r3, r3, #4
 8001856:	632b      	str	r3, [r5, #48]	@ 0x30
 8001858:	6b2b      	ldr	r3, [r5, #48]	@ 0x30
 800185a:	f003 0304 	and.w	r3, r3, #4
 800185e:	9302      	str	r3, [sp, #8]
 8001860:	9b02      	ldr	r3, [sp, #8]
  __HAL_RCC_GPIOH_CLK_ENABLE();
 8001862:	9403      	str	r4, [sp, #12]
 8001864:	6b2b      	ldr	r3, [r5, #48]	@ 0x30
 8001866:	f043 0380 	orr.w	r3, r3, #128	@ 0x80
 800186a:	632b      	str	r3, [r5, #48]	@ 0x30
 800186c:	6b2b      	ldr	r3, [r5, #48]	@ 0x30
 800186e:	f003 0380 	and.w	r3, r3, #128	@ 0x80
 8001872:	9303      	str	r3, [sp, #12]
 8001874:	9b03      	ldr	r3, [sp, #12]
  __HAL_RCC_GPIOA_CLK_ENABLE();
 8001876:	9404      	str	r4, [sp, #16]
 8001878:	6b2b      	ldr	r3, [r5, #48]	@ 0x30
 800187a:	f043 0301 	orr.w	r3, r3, #1
 800187e:	632b      	str	r3, [r5, #48]	@ 0x30
 8001880:	6b2b      	ldr	r3, [r5, #48]	@ 0x30
 8001882:	f003 0301 	and.w	r3, r3, #1
 8001886:	9304      	str	r3, [sp, #16]
 8001888:	9b04      	ldr	r3, [sp, #16]
  __HAL_RCC_GPIOB_CLK_ENABLE();
 800188a:	9405      	str	r4, [sp, #20]
 800188c:	6b2b      	ldr	r3, [r5, #48]	@ 0x30
 800188e:	f043 0302 	orr.w	r3, r3, #2
 8001892:	632b      	str	r3, [r5, #48]	@ 0x30
 8001894:	6b2b      	ldr	r3, [r5, #48]	@ 0x30
 8001896:	f003 0302 	and.w	r3, r3, #2
  HAL_GPIO_WritePin(GPIOC, Black_Pill_LED_Pin|ENAPLE_M3_Pin, GPIO_PIN_RESET);
 800189a:	4622      	mov	r2, r4
  __HAL_RCC_GPIOB_CLK_ENABLE();
 800189c:	9305      	str	r3, [sp, #20]
  HAL_GPIO_WritePin(GPIOC, Black_Pill_LED_Pin|ENAPLE_M3_Pin, GPIO_PIN_RESET);
 800189e:	f44f 41c0 	mov.w	r1, #24576	@ 0x6000
  __HAL_RCC_GPIOB_CLK_ENABLE();
 80018a2:	9b05      	ldr	r3, [sp, #20]
  HAL_GPIO_WritePin(GPIOC, Black_Pill_LED_Pin|ENAPLE_M3_Pin, GPIO_PIN_RESET);
 80018a4:	f001 fd06 	bl	80032b4 <HAL_GPIO_WritePin>
  HAL_GPIO_WritePin(GPIOB, ENAPLE_M2_Pin|M1_STEP_Pin|M1_DIR_Pin|M2_STEP_Pin
 80018a8:	4622      	mov	r2, r4
 80018aa:	488e      	ldr	r0, [pc, #568]	@ (8001ae4 <main+0x2b4>)
 80018ac:	f24f 0102 	movw	r1, #61442	@ 0xf002
 80018b0:	f001 fd00 	bl	80032b4 <HAL_GPIO_WritePin>
  HAL_GPIO_WritePin(GPIOA, M3_STEP_Pin|M3_DIR_Pin|ENABLE_PIN_Pin|M3_DIR1_Pin, GPIO_PIN_RESET);
 80018b4:	4622      	mov	r2, r4
 80018b6:	488c      	ldr	r0, [pc, #560]	@ (8001ae8 <main+0x2b8>)
 80018b8:	f44f 4107 	mov.w	r1, #34560	@ 0x8700
 80018bc:	f001 fcfa 	bl	80032b4 <HAL_GPIO_WritePin>
  GPIO_InitStruct.Mode = GPIO_MODE_OUTPUT_PP;
 80018c0:	2601      	movs	r6, #1
 80018c2:	f44f 43c0 	mov.w	r3, #24576	@ 0x6000
  HAL_GPIO_Init(GPIOC, &GPIO_InitStruct);
 80018c6:	4886      	ldr	r0, [pc, #536]	@ (8001ae0 <main+0x2b0>)
 80018c8:	a90d      	add	r1, sp, #52	@ 0x34
  GPIO_InitStruct.Mode = GPIO_MODE_OUTPUT_PP;
 80018ca:	e9cd 360d 	strd	r3, r6, [sp, #52]	@ 0x34
  GPIO_InitStruct.Speed = GPIO_SPEED_FREQ_LOW;
 80018ce:	e9cd 440f 	strd	r4, r4, [sp, #60]	@ 0x3c
  HAL_GPIO_Init(GPIOC, &GPIO_InitStruct);
 80018d2:	f001 fc29 	bl	8003128 <HAL_GPIO_Init>
  GPIO_InitStruct.Pin = ENAPLE_M2_Pin|M1_STEP_Pin|M1_DIR_Pin|M2_STEP_Pin
 80018d6:	f24f 0302 	movw	r3, #61442	@ 0xf002
  HAL_GPIO_Init(GPIOB, &GPIO_InitStruct);
 80018da:	4882      	ldr	r0, [pc, #520]	@ (8001ae4 <main+0x2b4>)
 80018dc:	a90d      	add	r1, sp, #52	@ 0x34
  GPIO_InitStruct.Mode = GPIO_MODE_OUTPUT_PP;
 80018de:	e9cd 360d 	strd	r3, r6, [sp, #52]	@ 0x34
  GPIO_InitStruct.Speed = GPIO_SPEED_FREQ_LOW;
 80018e2:	e9cd 440f 	strd	r4, r4, [sp, #60]	@ 0x3c
  HAL_GPIO_Init(GPIOB, &GPIO_InitStruct);
 80018e6:	f001 fc1f 	bl	8003128 <HAL_GPIO_Init>
  GPIO_InitStruct.Pin = M3_STEP_Pin|M3_DIR_Pin|ENABLE_PIN_Pin|M3_DIR1_Pin;
 80018ea:	f44f 4307 	mov.w	r3, #34560	@ 0x8700
  HAL_GPIO_Init(GPIOA, &GPIO_InitStruct);
 80018ee:	487e      	ldr	r0, [pc, #504]	@ (8001ae8 <main+0x2b8>)
 80018f0:	a90d      	add	r1, sp, #52	@ 0x34
  GPIO_InitStruct.Mode      = GPIO_MODE_AF_PP;
 80018f2:	2702      	movs	r7, #2
  GPIO_InitStruct.Mode = GPIO_MODE_OUTPUT_PP;
 80018f4:	e9cd 360d 	strd	r3, r6, [sp, #52]	@ 0x34
  GPIO_InitStruct.Speed = GPIO_SPEED_FREQ_LOW;
 80018f8:	e9cd 440f 	strd	r4, r4, [sp, #60]	@ 0x3c
  GPIO_InitStruct.Mode      = GPIO_MODE_AF_PP;
 80018fc:	f04f 0903 	mov.w	r9, #3
  HAL_GPIO_Init(GPIOA, &GPIO_InitStruct);
 8001900:	f001 fc12 	bl	8003128 <HAL_GPIO_Init>
  HAL_GPIO_Init(GPIOA, &GPIO_InitStruct);
 8001904:	4878      	ldr	r0, [pc, #480]	@ (8001ae8 <main+0x2b8>)
  GPIO_InitStruct.Alternate = GPIO_AF1_TIM2;
 8001906:	9611      	str	r6, [sp, #68]	@ 0x44
  HAL_GPIO_Init(GPIOA, &GPIO_InitStruct);
 8001908:	a90d      	add	r1, sp, #52	@ 0x34
  GPIO_InitStruct.Pin       = GPIO_PIN_6 | GPIO_PIN_7;
 800190a:	f04f 08c0 	mov.w	r8, #192	@ 0xc0
  GPIO_InitStruct.Mode      = GPIO_MODE_AF_PP;
 800190e:	e9cd 970d 	strd	r9, r7, [sp, #52]	@ 0x34
  GPIO_InitStruct.Speed     = GPIO_SPEED_FREQ_HIGH;
 8001912:	e9cd 670f 	strd	r6, r7, [sp, #60]	@ 0x3c
  HAL_GPIO_Init(GPIOA, &GPIO_InitStruct);
 8001916:	f001 fc07 	bl	8003128 <HAL_GPIO_Init>
  HAL_GPIO_Init(GPIOA, &GPIO_InitStruct);
 800191a:	4873      	ldr	r0, [pc, #460]	@ (8001ae8 <main+0x2b8>)
  GPIO_InitStruct.Alternate = GPIO_AF2_TIM3;
 800191c:	9711      	str	r7, [sp, #68]	@ 0x44
  HAL_GPIO_Init(GPIOA, &GPIO_InitStruct);
 800191e:	a90d      	add	r1, sp, #52	@ 0x34
  GPIO_InitStruct.Mode      = GPIO_MODE_AF_PP;
 8001920:	e9cd 870d 	strd	r8, r7, [sp, #52]	@ 0x34
  GPIO_InitStruct.Speed     = GPIO_SPEED_FREQ_HIGH;
 8001924:	e9cd 670f 	strd	r6, r7, [sp, #60]	@ 0x3c
  HAL_GPIO_Init(GPIOA, &GPIO_InitStruct);
 8001928:	f001 fbfe 	bl	8003128 <HAL_GPIO_Init>
  HAL_GPIO_Init(GPIOB, &GPIO_InitStruct);
 800192c:	486d      	ldr	r0, [pc, #436]	@ (8001ae4 <main+0x2b4>)
  GPIO_InitStruct.Alternate = GPIO_AF2_TIM4;
 800192e:	9711      	str	r7, [sp, #68]	@ 0x44
  HAL_GPIO_Init(GPIOB, &GPIO_InitStruct);
 8001930:	a90d      	add	r1, sp, #52	@ 0x34
  GPIO_InitStruct.Mode      = GPIO_MODE_AF_PP;
 8001932:	e9cd 870d 	strd	r8, r7, [sp, #52]	@ 0x34
  GPIO_InitStruct.Speed     = GPIO_SPEED_FREQ_HIGH;
 8001936:	e9cd 670f 	strd	r6, r7, [sp, #60]	@ 0x3c
  HAL_GPIO_Init(GPIOB, &GPIO_InitStruct);
 800193a:	f001 fbf5 	bl	8003128 <HAL_GPIO_Init>
  __HAL_RCC_DMA1_CLK_ENABLE();
 800193e:	9401      	str	r4, [sp, #4]
 8001940:	6b2b      	ldr	r3, [r5, #48]	@ 0x30
 8001942:	f443 1300 	orr.w	r3, r3, #2097152	@ 0x200000
 8001946:	632b      	str	r3, [r5, #48]	@ 0x30
 8001948:	6b2b      	ldr	r3, [r5, #48]	@ 0x30
  hi2c1.Instance = I2C1;
 800194a:	4d68      	ldr	r5, [pc, #416]	@ (8001aec <main+0x2bc>)
  __HAL_RCC_DMA1_CLK_ENABLE();
 800194c:	f403 1300 	and.w	r3, r3, #2097152	@ 0x200000
  HAL_NVIC_SetPriority(DMA1_Stream5_IRQn, 5, 0);
 8001950:	4622      	mov	r2, r4
 8001952:	2105      	movs	r1, #5
  __HAL_RCC_DMA1_CLK_ENABLE();
 8001954:	9301      	str	r3, [sp, #4]
  HAL_NVIC_SetPriority(DMA1_Stream5_IRQn, 5, 0);
 8001956:	2010      	movs	r0, #16
  __HAL_RCC_DMA1_CLK_ENABLE();
 8001958:	9b01      	ldr	r3, [sp, #4]
  HAL_NVIC_SetPriority(DMA1_Stream5_IRQn, 5, 0);
 800195a:	f001 f9c9 	bl	8002cf0 <HAL_NVIC_SetPriority>
  HAL_NVIC_EnableIRQ(DMA1_Stream5_IRQn);
 800195e:	2010      	movs	r0, #16
 8001960:	f001 f9f8 	bl	8002d54 <HAL_NVIC_EnableIRQ>
  HAL_NVIC_SetPriority(DMA1_Stream6_IRQn, 5, 0);
 8001964:	4622      	mov	r2, r4
 8001966:	2105      	movs	r1, #5
 8001968:	2011      	movs	r0, #17
 800196a:	f001 f9c1 	bl	8002cf0 <HAL_NVIC_SetPriority>
  HAL_NVIC_EnableIRQ(DMA1_Stream6_IRQn);
 800196e:	2011      	movs	r0, #17
 8001970:	f001 f9f0 	bl	8002d54 <HAL_NVIC_EnableIRQ>
  hi2c1.Init.ClockSpeed = 400000;
 8001974:	495e      	ldr	r1, [pc, #376]	@ (8001af0 <main+0x2c0>)
 8001976:	4b5f      	ldr	r3, [pc, #380]	@ (8001af4 <main+0x2c4>)
  hi2c1.Init.NoStretchMode = I2C_NOSTRETCH_DISABLE;
 8001978:	622c      	str	r4, [r5, #32]
  hi2c1.Init.ClockSpeed = 400000;
 800197a:	e9c5 1300 	strd	r1, r3, [r5]
  if (HAL_I2C_Init(&hi2c1) != HAL_OK)
 800197e:	4628      	mov	r0, r5
  hi2c1.Init.AddressingMode = I2C_ADDRESSINGMODE_7BIT;
 8001980:	f44f 4380 	mov.w	r3, #16384	@ 0x4000
  hi2c1.Init.OwnAddress1 = 0;
 8001984:	e9c5 4402 	strd	r4, r4, [r5, #8]
  hi2c1.Init.DualAddressMode = I2C_DUALADDRESS_DISABLE;
 8001988:	e9c5 3404 	strd	r3, r4, [r5, #16]
  hi2c1.Init.GeneralCallMode = I2C_GENERALCALL_DISABLE;
 800198c:	e9c5 4406 	strd	r4, r4, [r5, #24]
  if (HAL_I2C_Init(&hi2c1) != HAL_OK)
 8001990:	f001 fe96 	bl	80036c0 <HAL_I2C_Init>
 8001994:	4604      	mov	r4, r0
 8001996:	b108      	cbz	r0, 800199c <main+0x16c>
 8001998:	b672      	cpsid	i
  while (1)
 800199a:	e7fe      	b.n	800199a <main+0x16a>
  htim2.Instance = TIM2;
 800199c:	f8df a170 	ldr.w	sl, [pc, #368]	@ 8001b10 <main+0x2e0>
  TIM_Encoder_InitTypeDef sConfig = {0};
 80019a0:	4601      	mov	r1, r0
 80019a2:	2220      	movs	r2, #32
 80019a4:	a80e      	add	r0, sp, #56	@ 0x38
 80019a6:	f008 fa7a 	bl	8009e9e <memset>
  htim2.Instance = TIM2;
 80019aa:	f04f 4380 	mov.w	r3, #1073741824	@ 0x40000000
  htim2.Init.Prescaler = 0;
 80019ae:	e9ca 3400 	strd	r3, r4, [sl]
  if (HAL_TIM_Encoder_Init(&htim2, &sConfig) != HAL_OK)
 80019b2:	a90d      	add	r1, sp, #52	@ 0x34
  htim2.Init.Period = 4294967295;
 80019b4:	f04f 33ff 	mov.w	r3, #4294967295
  if (HAL_TIM_Encoder_Init(&htim2, &sConfig) != HAL_OK)
 80019b8:	4650      	mov	r0, sl
  TIM_MasterConfigTypeDef sMasterConfig = {0};
 80019ba:	e9cd 4406 	strd	r4, r4, [sp, #24]
  htim2.Init.ClockDivision = TIM_CLOCKDIVISION_DIV1;
 80019be:	e9ca 3403 	strd	r3, r4, [sl, #12]
  htim2.Init.CounterMode = TIM_COUNTERMODE_UP;
 80019c2:	f8ca 4008 	str.w	r4, [sl, #8]
  htim2.Init.AutoReloadPreload = TIM_AUTORELOAD_PRELOAD_DISABLE;
 80019c6:	f8ca 4018 	str.w	r4, [sl, #24]
  sConfig.EncoderMode = TIM_ENCODERMODE_TI12;
 80019ca:	f8cd 9034 	str.w	r9, [sp, #52]	@ 0x34
  sConfig.IC1Selection = TIM_ICSELECTION_DIRECTTI;
 80019ce:	960f      	str	r6, [sp, #60]	@ 0x3c
  sConfig.IC2Selection = TIM_ICSELECTION_DIRECTTI;
 80019d0:	9613      	str	r6, [sp, #76]	@ 0x4c
  if (HAL_TIM_Encoder_Init(&htim2, &sConfig) != HAL_OK)
 80019d2:	f003 faeb 	bl	8004fac <HAL_TIM_Encoder_Init>
 80019d6:	b108      	cbz	r0, 80019dc <main+0x1ac>
 80019d8:	b672      	cpsid	i
  while (1)
 80019da:	e7fe      	b.n	80019da <main+0x1aa>
  sMasterConfig.MasterSlaveMode = TIM_MASTERSLAVEMODE_DISABLE;
 80019dc:	e9cd 0006 	strd	r0, r0, [sp, #24]
  if (HAL_TIMEx_MasterConfigSynchronization(&htim2, &sMasterConfig) != HAL_OK)
 80019e0:	a906      	add	r1, sp, #24
 80019e2:	4650      	mov	r0, sl
 80019e4:	f003 fb36 	bl	8005054 <HAL_TIMEx_MasterConfigSynchronization>
 80019e8:	4604      	mov	r4, r0
 80019ea:	b108      	cbz	r0, 80019f0 <main+0x1c0>
 80019ec:	b672      	cpsid	i
  while (1)
 80019ee:	e7fe      	b.n	80019ee <main+0x1be>
  TIM_Encoder_InitTypeDef sConfig = {0};
 80019f0:	4601      	mov	r1, r0
 80019f2:	2220      	movs	r2, #32
 80019f4:	a80e      	add	r0, sp, #56	@ 0x38
 80019f6:	f008 fa52 	bl	8009e9e <memset>
  htim4.Instance = TIM4;
 80019fa:	f8df 8118 	ldr.w	r8, [pc, #280]	@ 8001b14 <main+0x2e4>
 80019fe:	4b3e      	ldr	r3, [pc, #248]	@ (8001af8 <main+0x2c8>)
  htim4.Init.CounterMode = TIM_COUNTERMODE_UP;
 8001a00:	f8c8 4008 	str.w	r4, [r8, #8]
  htim4.Init.Prescaler = 0;
 8001a04:	e9c8 3400 	strd	r3, r4, [r8]
  if (HAL_TIM_Encoder_Init(&htim4, &sConfig) != HAL_OK)
 8001a08:	a90d      	add	r1, sp, #52	@ 0x34
  htim4.Init.Period = 65535;
 8001a0a:	f64f 73ff 	movw	r3, #65535	@ 0xffff
  if (HAL_TIM_Encoder_Init(&htim4, &sConfig) != HAL_OK)
 8001a0e:	4640      	mov	r0, r8
  TIM_MasterConfigTypeDef sMasterConfig = {0};
 8001a10:	e9cd 4406 	strd	r4, r4, [sp, #24]
  htim4.Init.ClockDivision = TIM_CLOCKDIVISION_DIV1;
 8001a14:	e9c8 3403 	strd	r3, r4, [r8, #12]
  htim4.Init.AutoReloadPreload = TIM_AUTORELOAD_PRELOAD_DISABLE;
 8001a18:	f8c8 4018 	str.w	r4, [r8, #24]
  sConfig.EncoderMode = TIM_ENCODERMODE_TI12;
 8001a1c:	f8cd 9034 	str.w	r9, [sp, #52]	@ 0x34
  sConfig.IC1Selection = TIM_ICSELECTION_DIRECTTI;
 8001a20:	960f      	str	r6, [sp, #60]	@ 0x3c
  sConfig.IC2Selection = TIM_ICSELECTION_DIRECTTI;
 8001a22:	9613      	str	r6, [sp, #76]	@ 0x4c
  if (HAL_TIM_Encoder_Init(&htim4, &sConfig) != HAL_OK)
 8001a24:	f003 fac2 	bl	8004fac <HAL_TIM_Encoder_Init>
 8001a28:	b108      	cbz	r0, 8001a2e <main+0x1fe>
 8001a2a:	b672      	cpsid	i
  while (1)
 8001a2c:	e7fe      	b.n	8001a2c <main+0x1fc>
  sMasterConfig.MasterSlaveMode = TIM_MASTERSLAVEMODE_DISABLE;
 8001a2e:	e9cd 0006 	strd	r0, r0, [sp, #24]
  if (HAL_TIMEx_MasterConfigSynchronization(&htim4, &sMasterConfig) != HAL_OK)
 8001a32:	a906      	add	r1, sp, #24
 8001a34:	4640      	mov	r0, r8
 8001a36:	f003 fb0d 	bl	8005054 <HAL_TIMEx_MasterConfigSynchronization>
 8001a3a:	b108      	cbz	r0, 8001a40 <main+0x210>
 8001a3c:	b672      	cpsid	i
  while (1)
 8001a3e:	e7fe      	b.n	8001a3e <main+0x20e>
  huart2.Instance = USART2;
 8001a40:	4c2e      	ldr	r4, [pc, #184]	@ (8001afc <main+0x2cc>)
  huart2.Init.BaudRate = 115200;
 8001a42:	4a2f      	ldr	r2, [pc, #188]	@ (8001b00 <main+0x2d0>)
  huart2.Init.Parity = UART_PARITY_NONE;
 8001a44:	6120      	str	r0, [r4, #16]
  huart2.Init.BaudRate = 115200;
 8001a46:	f44f 33e1 	mov.w	r3, #115200	@ 0x1c200
 8001a4a:	e9c4 2300 	strd	r2, r3, [r4]
  huart2.Init.Mode = UART_MODE_TX_RX;
 8001a4e:	230c      	movs	r3, #12
  huart2.Init.StopBits = UART_STOPBITS_1;
 8001a50:	e9c4 0002 	strd	r0, r0, [r4, #8]
  huart2.Init.HwFlowCtl = UART_HWCONTROL_NONE;
 8001a54:	e9c4 3005 	strd	r3, r0, [r4, #20]
  huart2.Init.OverSampling = UART_OVERSAMPLING_16;
 8001a58:	61e0      	str	r0, [r4, #28]
  if (HAL_UART_Init(&huart2) != HAL_OK)
 8001a5a:	4620      	mov	r0, r4
 8001a5c:	f003 fbbe 	bl	80051dc <HAL_UART_Init>
 8001a60:	4607      	mov	r7, r0
 8001a62:	b108      	cbz	r0, 8001a68 <main+0x238>
 8001a64:	b672      	cpsid	i
  while (1)
 8001a66:	e7fe      	b.n	8001a66 <main+0x236>
  htim3.Instance = TIM3;
 8001a68:	f8df b0ac 	ldr.w	fp, [pc, #172]	@ 8001b18 <main+0x2e8>
  TIM_Encoder_InitTypeDef sConfig = {0};
 8001a6c:	4601      	mov	r1, r0
 8001a6e:	2220      	movs	r2, #32
 8001a70:	a80e      	add	r0, sp, #56	@ 0x38
 8001a72:	f008 fa14 	bl	8009e9e <memset>
  htim3.Instance = TIM3;
 8001a76:	4a23      	ldr	r2, [pc, #140]	@ (8001b04 <main+0x2d4>)
  htim3.Init.CounterMode = TIM_COUNTERMODE_UP;
 8001a78:	f8cb 7008 	str.w	r7, [fp, #8]
  htim3.Init.Period = 65535;
 8001a7c:	f64f 73ff 	movw	r3, #65535	@ 0xffff
  if (HAL_TIM_Encoder_Init(&htim3, &sConfig) != HAL_OK)
 8001a80:	a90d      	add	r1, sp, #52	@ 0x34
 8001a82:	4658      	mov	r0, fp
  TIM_MasterConfigTypeDef sMasterConfig = {0};
 8001a84:	e9cd 7706 	strd	r7, r7, [sp, #24]
  htim3.Init.Prescaler = 0;
 8001a88:	e9cb 2700 	strd	r2, r7, [fp]
  htim3.Init.ClockDivision = TIM_CLOCKDIVISION_DIV1;
 8001a8c:	e9cb 3703 	strd	r3, r7, [fp, #12]
  htim3.Init.AutoReloadPreload = TIM_AUTORELOAD_PRELOAD_DISABLE;
 8001a90:	f8cb 7018 	str.w	r7, [fp, #24]
  sConfig.EncoderMode = TIM_ENCODERMODE_TI12;
 8001a94:	f8cd 9034 	str.w	r9, [sp, #52]	@ 0x34
  sConfig.IC1Selection = TIM_ICSELECTION_DIRECTTI;
 8001a98:	960f      	str	r6, [sp, #60]	@ 0x3c
  sConfig.IC2Selection = TIM_ICSELECTION_DIRECTTI;
 8001a9a:	9613      	str	r6, [sp, #76]	@ 0x4c
  if (HAL_TIM_Encoder_Init(&htim3, &sConfig) != HAL_OK)
 8001a9c:	f003 fa86 	bl	8004fac <HAL_TIM_Encoder_Init>
 8001aa0:	b108      	cbz	r0, 8001aa6 <main+0x276>
 8001aa2:	b672      	cpsid	i
  while (1)
 8001aa4:	e7fe      	b.n	8001aa4 <main+0x274>
  sMasterConfig.MasterSlaveMode = TIM_MASTERSLAVEMODE_DISABLE;
 8001aa6:	e9cd 0006 	strd	r0, r0, [sp, #24]
  if (HAL_TIMEx_MasterConfigSynchronization(&htim3, &sMasterConfig) != HAL_OK)
 8001aaa:	a906      	add	r1, sp, #24
 8001aac:	4658      	mov	r0, fp
 8001aae:	f003 fad1 	bl	8005054 <HAL_TIMEx_MasterConfigSynchronization>
 8001ab2:	b108      	cbz	r0, 8001ab8 <main+0x288>
 8001ab4:	b672      	cpsid	i
  while (1)
 8001ab6:	e7fe      	b.n	8001ab6 <main+0x286>
  htim11.Instance = TIM11;
 8001ab8:	4f13      	ldr	r7, [pc, #76]	@ (8001b08 <main+0x2d8>)
 8001aba:	4a14      	ldr	r2, [pc, #80]	@ (8001b0c <main+0x2dc>)
  htim11.Init.CounterMode = TIM_COUNTERMODE_UP;
 8001abc:	60b8      	str	r0, [r7, #8]
  htim11.Init.Prescaler = 0;
 8001abe:	e9c7 2000 	strd	r2, r0, [r7]
  htim11.Init.Period = 1370;
 8001ac2:	f240 525a 	movw	r2, #1370	@ 0x55a
  htim11.Init.ClockDivision = TIM_CLOCKDIVISION_DIV1;
 8001ac6:	e9c7 2003 	strd	r2, r0, [r7, #12]
  htim11.Init.AutoReloadPreload = TIM_AUTORELOAD_PRELOAD_ENABLE;
 8001aca:	2280      	movs	r2, #128	@ 0x80
  if (HAL_TIM_Base_Init(&htim11) != HAL_OK)
 8001acc:	4638      	mov	r0, r7
  htim11.Init.AutoReloadPreload = TIM_AUTORELOAD_PRELOAD_ENABLE;
 8001ace:	61ba      	str	r2, [r7, #24]
  if (HAL_TIM_Base_Init(&htim11) != HAL_OK)
 8001ad0:	f003 fa40 	bl	8004f54 <HAL_TIM_Base_Init>
 8001ad4:	4606      	mov	r6, r0
 8001ad6:	b308      	cbz	r0, 8001b1c <main+0x2ec>
 8001ad8:	b672      	cpsid	i
  while (1)
 8001ada:	e7fe      	b.n	8001ada <main+0x2aa>
 8001adc:	40023800 	.word	0x40023800
 8001ae0:	40020800 	.word	0x40020800
 8001ae4:	40020400 	.word	0x40020400
 8001ae8:	40020000 	.word	0x40020000
 8001aec:	20001598 	.word	0x20001598
 8001af0:	40005400 	.word	0x40005400
 8001af4:	00061a80 	.word	0x00061a80
 8001af8:	40000800 	.word	0x40000800
 8001afc:	20001430 	.word	0x20001430
 8001b00:	40004400 	.word	0x40004400
 8001b04:	40000400 	.word	0x40000400
 8001b08:	20001478 	.word	0x20001478
 8001b0c:	40014800 	.word	0x40014800
 8001b10:	20001550 	.word	0x20001550
 8001b14:	200014c0 	.word	0x200014c0
 8001b18:	20001508 	.word	0x20001508
  HAL_TIM_Base_Start_IT(&htim11);
 8001b1c:	4638      	mov	r0, r7
 8001b1e:	f003 f8b5 	bl	8004c8c <HAL_TIM_Base_Start_IT>
  HAL_TIM_Encoder_Start(&htim2, TIM_CHANNEL_ALL);
 8001b22:	213c      	movs	r1, #60	@ 0x3c
 8001b24:	4650      	mov	r0, sl
 8001b26:	f003 f8e3 	bl	8004cf0 <HAL_TIM_Encoder_Start>
  HAL_TIM_Encoder_Start(&htim3, TIM_CHANNEL_ALL);
 8001b2a:	213c      	movs	r1, #60	@ 0x3c
 8001b2c:	4658      	mov	r0, fp
 8001b2e:	f003 f8df 	bl	8004cf0 <HAL_TIM_Encoder_Start>
  HAL_TIM_Encoder_Start(&htim4, TIM_CHANNEL_ALL);
 8001b32:	213c      	movs	r1, #60	@ 0x3c
 8001b34:	4640      	mov	r0, r8
 8001b36:	f003 f8db 	bl	8004cf0 <HAL_TIM_Encoder_Start>
  MX_USB_DEVICE_Init();
 8001b3a:	f006 f941 	bl	8007dc0 <MX_USB_DEVICE_Init>
  HAL_UART_Receive_DMA(&huart2, uart_rx_buf, UART_RX_BUF_SIZE);
 8001b3e:	491f      	ldr	r1, [pc, #124]	@ (8001bbc <main+0x38c>)
 8001b40:	2240      	movs	r2, #64	@ 0x40
 8001b42:	4620      	mov	r0, r4
 8001b44:	f003 fec0 	bl	80058c8 <HAL_UART_Receive_DMA>
  __HAL_UART_ENABLE_IT(&huart2, UART_IT_IDLE);
 8001b48:	6822      	ldr	r2, [r4, #0]
  osThreadDef(VelocityTask, Velocit_Task, osPriorityNormal, 0, 512);
 8001b4a:	4c1d      	ldr	r4, [pc, #116]	@ (8001bc0 <main+0x390>)
  __HAL_UART_ENABLE_IT(&huart2, UART_IT_IDLE);
 8001b4c:	68d3      	ldr	r3, [r2, #12]
 8001b4e:	f043 0310 	orr.w	r3, r3, #16
 8001b52:	60d3      	str	r3, [r2, #12]
  CoreDebug->DEMCR |= CoreDebug_DEMCR_TRCENA_Msk;
 8001b54:	4a1b      	ldr	r2, [pc, #108]	@ (8001bc4 <main+0x394>)
 8001b56:	f8d2 30fc 	ldr.w	r3, [r2, #252]	@ 0xfc
 8001b5a:	f043 7380 	orr.w	r3, r3, #16777216	@ 0x1000000
 8001b5e:	f8c2 30fc 	str.w	r3, [r2, #252]	@ 0xfc
  DWT->CYCCNT = 0;
 8001b62:	4b19      	ldr	r3, [pc, #100]	@ (8001bc8 <main+0x398>)
 8001b64:	605e      	str	r6, [r3, #4]
  DWT->CTRL  |= DWT_CTRL_CYCCNTENA_Msk;
 8001b66:	681a      	ldr	r2, [r3, #0]
 8001b68:	f042 0201 	orr.w	r2, r2, #1
 8001b6c:	601a      	str	r2, [r3, #0]
 HAL_Delay(100);
 8001b6e:	2064      	movs	r0, #100	@ 0x64
 8001b70:	f001 f898 	bl	8002ca4 <HAL_Delay>
 HAL_StatusTypeDef mpu_status = HAL_I2C_IsDeviceReady(&hi2c1, (0x68 << 1), 3, 100);
 8001b74:	2364      	movs	r3, #100	@ 0x64
 8001b76:	464a      	mov	r2, r9
 8001b78:	21d0      	movs	r1, #208	@ 0xd0
 8001b7a:	4628      	mov	r0, r5
 8001b7c:	f001 ffe8 	bl	8003b50 <HAL_I2C_IsDeviceReady>
  osThreadDef(VelocityTask, Velocit_Task, osPriorityNormal, 0, 512);
 8001b80:	cc0f      	ldmia	r4!, {r0, r1, r2, r3}
 8001b82:	ad06      	add	r5, sp, #24
 8001b84:	c50f      	stmia	r5!, {r0, r1, r2, r3}
 8001b86:	e894 0007 	ldmia.w	r4, {r0, r1, r2}
 8001b8a:	e885 0007 	stmia.w	r5, {r0, r1, r2}
  VelocityTaskHandle = osThreadCreate(osThread(VelocityTask), NULL);
 8001b8e:	4631      	mov	r1, r6
 8001b90:	a806      	add	r0, sp, #24
 8001b92:	f005 fa44 	bl	800701e <osThreadCreate>
 8001b96:	4b0d      	ldr	r3, [pc, #52]	@ (8001bcc <main+0x39c>)
  osThreadDef(BalanceTask, Balance_Task, osPriorityHigh, 0, 2048);
 8001b98:	340c      	adds	r4, #12
  VelocityTaskHandle = osThreadCreate(osThread(VelocityTask), NULL);
 8001b9a:	6018      	str	r0, [r3, #0]
  osThreadDef(BalanceTask, Balance_Task, osPriorityHigh, 0, 2048);
 8001b9c:	cc0f      	ldmia	r4!, {r0, r1, r2, r3}
 8001b9e:	ad0d      	add	r5, sp, #52	@ 0x34
 8001ba0:	c50f      	stmia	r5!, {r0, r1, r2, r3}
 8001ba2:	e894 0007 	ldmia.w	r4, {r0, r1, r2}
 8001ba6:	e885 0007 	stmia.w	r5, {r0, r1, r2}
  BalanceTaskHandle = osThreadCreate(osThread(BalanceTask), NULL);
 8001baa:	4631      	mov	r1, r6
 8001bac:	a80d      	add	r0, sp, #52	@ 0x34
 8001bae:	f005 fa36 	bl	800701e <osThreadCreate>
 8001bb2:	4b07      	ldr	r3, [pc, #28]	@ (8001bd0 <main+0x3a0>)
 8001bb4:	6018      	str	r0, [r3, #0]
  osKernelStart();
 8001bb6:	f005 fa2d 	bl	8007014 <osKernelStart>
  while (1)
 8001bba:	e7fe      	b.n	8001bba <main+0x38a>
 8001bbc:	20001326 	.word	0x20001326
 8001bc0:	0800c110 	.word	0x0800c110
 8001bc4:	e000ed00 	.word	0xe000ed00
 8001bc8:	e0001000 	.word	0xe0001000
 8001bcc:	2000136c 	.word	0x2000136c
 8001bd0:	20001368 	.word	0x20001368

08001bd4 <CDC_ReceiveCallback>:
{
 8001bd4:	b5f0      	push	{r4, r5, r6, r7, lr}
    if (len < 15) return;
 8001bd6:	290e      	cmp	r1, #14
{
 8001bd8:	b085      	sub	sp, #20
    if (len < 15) return;
 8001bda:	d930      	bls.n	8001c3e <CDC_ReceiveCallback+0x6a>
    for (uint32_t i = 0; i <= len - 15; i++) {
 8001bdc:	390f      	subs	r1, #15
 8001bde:	1e43      	subs	r3, r0, #1
 8001be0:	2200      	movs	r2, #0
        if (buf[i] == 0xAA && buf[i+1] == 0x55) {
 8001be2:	f813 4f01 	ldrb.w	r4, [r3, #1]!
 8001be6:	2caa      	cmp	r4, #170	@ 0xaa
 8001be8:	4616      	mov	r6, r2
 8001bea:	f102 0201 	add.w	r2, r2, #1
 8001bee:	d124      	bne.n	8001c3a <CDC_ReceiveCallback+0x66>
 8001bf0:	785c      	ldrb	r4, [r3, #1]
 8001bf2:	2c55      	cmp	r4, #85	@ 0x55
 8001bf4:	d121      	bne.n	8001c3a <CDC_ReceiveCallback+0x66>
            for (int k = 2; k < 14; k++) {
 8001bf6:	2402      	movs	r4, #2
            uint8_t chk = 0;
 8001bf8:	2500      	movs	r5, #0
                chk ^= buf[i+k];
 8001bfa:	5d1f      	ldrb	r7, [r3, r4]
            for (int k = 2; k < 14; k++) {
 8001bfc:	3401      	adds	r4, #1
 8001bfe:	2c0e      	cmp	r4, #14
                chk ^= buf[i+k];
 8001c00:	ea85 0507 	eor.w	r5, r5, r7
            for (int k = 2; k < 14; k++) {
 8001c04:	d1f9      	bne.n	8001bfa <CDC_ReceiveCallback+0x26>
            if (chk != buf[i+14]) continue;  // bad checksum, skip
 8001c06:	7b9c      	ldrb	r4, [r3, #14]
 8001c08:	42ac      	cmp	r4, r5
 8001c0a:	d116      	bne.n	8001c3a <CDC_ReceiveCallback+0x66>
            memcpy(&vx,       &buf[i+2],  4);
 8001c0c:	4430      	add	r0, r6
 8001c0e:	f8d0 3002 	ldr.w	r3, [r0, #2]
 8001c12:	9303      	str	r3, [sp, #12]
 8001c14:	f8d0 3006 	ldr.w	r3, [r0, #6]
 8001c18:	9302      	str	r3, [sp, #8]
 8001c1a:	f8d0 300a 	ldr.w	r3, [r0, #10]
 8001c1e:	9301      	str	r3, [sp, #4]
            updateReferencesFromROS(vx, vy, yaw_rate, HAL_GetTick());
 8001c20:	f001 f83a 	bl	8002c98 <HAL_GetTick>
 8001c24:	ed9d 1a01 	vldr	s2, [sp, #4]
 8001c28:	eddd 0a02 	vldr	s1, [sp, #8]
 8001c2c:	ed9d 0a03 	vldr	s0, [sp, #12]
}
 8001c30:	b005      	add	sp, #20
 8001c32:	e8bd 40f0 	ldmia.w	sp!, {r4, r5, r6, r7, lr}
            updateReferencesFromROS(vx, vy, yaw_rate, HAL_GetTick());
 8001c36:	f7ff bca5 	b.w	8001584 <updateReferencesFromROS>
    for (uint32_t i = 0; i <= len - 15; i++) {
 8001c3a:	4291      	cmp	r1, r2
 8001c3c:	d2d1      	bcs.n	8001be2 <CDC_ReceiveCallback+0xe>
}
 8001c3e:	b005      	add	sp, #20
 8001c40:	bdf0      	pop	{r4, r5, r6, r7, pc}
	...

08001c44 <USART2_IRQHandler_Extension>:
{
 8001c44:	b5f7      	push	{r0, r1, r2, r4, r5, r6, r7, lr}
    if (!__HAL_UART_GET_FLAG(&huart2, UART_FLAG_IDLE)) return;
 8001c46:	4928      	ldr	r1, [pc, #160]	@ (8001ce8 <USART2_IRQHandler_Extension+0xa4>)
 8001c48:	680a      	ldr	r2, [r1, #0]
 8001c4a:	6813      	ldr	r3, [r2, #0]
 8001c4c:	06db      	lsls	r3, r3, #27
 8001c4e:	d548      	bpl.n	8001ce2 <USART2_IRQHandler_Extension+0x9e>
    __HAL_UART_CLEAR_IDLEFLAG(&huart2);
 8001c50:	2300      	movs	r3, #0
 8001c52:	9301      	str	r3, [sp, #4]
 8001c54:	6810      	ldr	r0, [r2, #0]
 8001c56:	9001      	str	r0, [sp, #4]
 8001c58:	6852      	ldr	r2, [r2, #4]
 8001c5a:	9201      	str	r2, [sp, #4]
 8001c5c:	9a01      	ldr	r2, [sp, #4]
    uint16_t bytes = UART_RX_BUF_SIZE - (uint16_t)__HAL_DMA_GET_COUNTER(huart2.hdmarx);
 8001c5e:	6bca      	ldr	r2, [r1, #60]	@ 0x3c
 8001c60:	6812      	ldr	r2, [r2, #0]
 8001c62:	6852      	ldr	r2, [r2, #4]
 8001c64:	f1c2 0240 	rsb	r2, r2, #64	@ 0x40
 8001c68:	b292      	uxth	r2, r2
    if (bytes < 16) goto reset_dma;
 8001c6a:	2a0f      	cmp	r2, #15
 8001c6c:	d928      	bls.n	8001cc0 <USART2_IRQHandler_Extension+0x7c>
    for (uint16_t i = 0; i + 16 <= bytes; i++) {
 8001c6e:	491f      	ldr	r1, [pc, #124]	@ (8001cec <USART2_IRQHandler_Extension+0xa8>)
 8001c70:	460c      	mov	r4, r1
        if (uart_rx_buf[i] != 0xAA || uart_rx_buf[i+1] != 0x55) continue;
 8001c72:	460e      	mov	r6, r1
 8001c74:	3101      	adds	r1, #1
 8001c76:	7830      	ldrb	r0, [r6, #0]
 8001c78:	28aa      	cmp	r0, #170	@ 0xaa
 8001c7a:	d12c      	bne.n	8001cd6 <USART2_IRQHandler_Extension+0x92>
 8001c7c:	7808      	ldrb	r0, [r1, #0]
 8001c7e:	2855      	cmp	r0, #85	@ 0x55
 8001c80:	d129      	bne.n	8001cd6 <USART2_IRQHandler_Extension+0x92>
        for (int k = 2; k < 15; k++) chk ^= uart_rx_buf[i+k];
 8001c82:	2002      	movs	r0, #2
        uint8_t chk = 0;
 8001c84:	2500      	movs	r5, #0
        for (int k = 2; k < 15; k++) chk ^= uart_rx_buf[i+k];
 8001c86:	5c37      	ldrb	r7, [r6, r0]
 8001c88:	3001      	adds	r0, #1
 8001c8a:	280f      	cmp	r0, #15
 8001c8c:	ea85 0507 	eor.w	r5, r5, r7
 8001c90:	d1f9      	bne.n	8001c86 <USART2_IRQHandler_Extension+0x42>
        if (chk != uart_rx_buf[i+15]) continue;
 8001c92:	7b88      	ldrb	r0, [r1, #14]
 8001c94:	42a8      	cmp	r0, r5
 8001c96:	d11e      	bne.n	8001cd6 <USART2_IRQHandler_Extension+0x92>
        memcpy(&vx,  &uart_rx_buf[i+3],  4);
 8001c98:	4a15      	ldr	r2, [pc, #84]	@ (8001cf0 <USART2_IRQHandler_Extension+0xac>)
        uint8_t rx_mode = uart_rx_buf[i+2];
 8001c9a:	441c      	add	r4, r3
        memcpy(&vy,  &uart_rx_buf[i+7],  4);
 8001c9c:	1d10      	adds	r0, r2, #4
        uint8_t rx_mode = uart_rx_buf[i+2];
 8001c9e:	78a1      	ldrb	r1, [r4, #2]
        memcpy(&vx,  &uart_rx_buf[i+3],  4);
 8001ca0:	58d4      	ldr	r4, [r2, r3]
        memcpy(&vy,  &uart_rx_buf[i+7],  4);
 8001ca2:	58c5      	ldr	r5, [r0, r3]
        memcpy(&yaw, &uart_rx_buf[i+11], 4);
 8001ca4:	3208      	adds	r2, #8
 8001ca6:	58d6      	ldr	r6, [r2, r3]
        robot_mode = rx_mode;
 8001ca8:	4b12      	ldr	r3, [pc, #72]	@ (8001cf4 <USART2_IRQHandler_Extension+0xb0>)
 8001caa:	7019      	strb	r1, [r3, #0]
        updateReferencesFromROS(vx, vy, yaw, HAL_GetTick());
 8001cac:	f000 fff4 	bl	8002c98 <HAL_GetTick>
 8001cb0:	ee01 6a10 	vmov	s2, r6
 8001cb4:	ee00 5a90 	vmov	s1, r5
 8001cb8:	ee00 4a10 	vmov	s0, r4
 8001cbc:	f7ff fc62 	bl	8001584 <updateReferencesFromROS>
    HAL_UART_DMAStop(&huart2);
 8001cc0:	4809      	ldr	r0, [pc, #36]	@ (8001ce8 <USART2_IRQHandler_Extension+0xa4>)
 8001cc2:	f003 fafb 	bl	80052bc <HAL_UART_DMAStop>
    HAL_UART_Receive_DMA(&huart2, uart_rx_buf, UART_RX_BUF_SIZE);
 8001cc6:	4909      	ldr	r1, [pc, #36]	@ (8001cec <USART2_IRQHandler_Extension+0xa8>)
 8001cc8:	4807      	ldr	r0, [pc, #28]	@ (8001ce8 <USART2_IRQHandler_Extension+0xa4>)
 8001cca:	2240      	movs	r2, #64	@ 0x40
}
 8001ccc:	b003      	add	sp, #12
 8001cce:	e8bd 40f0 	ldmia.w	sp!, {r4, r5, r6, r7, lr}
    HAL_UART_Receive_DMA(&huart2, uart_rx_buf, UART_RX_BUF_SIZE);
 8001cd2:	f003 bdf9 	b.w	80058c8 <HAL_UART_Receive_DMA>
    for (uint16_t i = 0; i + 16 <= bytes; i++) {
 8001cd6:	1c58      	adds	r0, r3, #1
 8001cd8:	3310      	adds	r3, #16
 8001cda:	429a      	cmp	r2, r3
 8001cdc:	ddf0      	ble.n	8001cc0 <USART2_IRQHandler_Extension+0x7c>
 8001cde:	4603      	mov	r3, r0
 8001ce0:	e7c7      	b.n	8001c72 <USART2_IRQHandler_Extension+0x2e>
}
 8001ce2:	b003      	add	sp, #12
 8001ce4:	bdf0      	pop	{r4, r5, r6, r7, pc}
 8001ce6:	bf00      	nop
 8001ce8:	20001430 	.word	0x20001430
 8001cec:	20001326 	.word	0x20001326
 8001cf0:	20001329 	.word	0x20001329
 8001cf4:	20001265 	.word	0x20001265

08001cf8 <Update_Encoder_Velocities>:
    uint32_t enc1_current = htim2.Instance->CNT;
 8001cf8:	4b0f      	ldr	r3, [pc, #60]	@ (8001d38 <Update_Encoder_Velocities+0x40>)
    enc1_velocity = (int32_t)(enc1_current - enc1_prev);
 8001cfa:	4a10      	ldr	r2, [pc, #64]	@ (8001d3c <Update_Encoder_Velocities+0x44>)
    uint32_t enc1_current = htim2.Instance->CNT;
 8001cfc:	681b      	ldr	r3, [r3, #0]
    enc1_velocity = (int32_t)(enc1_current - enc1_prev);
 8001cfe:	4810      	ldr	r0, [pc, #64]	@ (8001d40 <Update_Encoder_Velocities+0x48>)
    uint32_t enc1_current = htim2.Instance->CNT;
 8001d00:	6a59      	ldr	r1, [r3, #36]	@ 0x24
    enc1_velocity = (int32_t)(enc1_current - enc1_prev);
 8001d02:	6813      	ldr	r3, [r2, #0]
    enc1_prev = enc1_current;
 8001d04:	6011      	str	r1, [r2, #0]
    enc1_velocity = (int32_t)(enc1_current - enc1_prev);
 8001d06:	1acb      	subs	r3, r1, r3
 8001d08:	6003      	str	r3, [r0, #0]
    uint16_t enc2_current = htim3.Instance->CNT;
 8001d0a:	4b0e      	ldr	r3, [pc, #56]	@ (8001d44 <Update_Encoder_Velocities+0x4c>)
    int16_t enc2_diff  = (int16_t)(enc2_current - enc2_prev);
 8001d0c:	490e      	ldr	r1, [pc, #56]	@ (8001d48 <Update_Encoder_Velocities+0x50>)
    uint16_t enc2_current = htim3.Instance->CNT;
 8001d0e:	681b      	ldr	r3, [r3, #0]
    enc2_velocity = (int32_t)enc2_diff;
 8001d10:	480e      	ldr	r0, [pc, #56]	@ (8001d4c <Update_Encoder_Velocities+0x54>)
    uint16_t enc2_current = htim3.Instance->CNT;
 8001d12:	6a5a      	ldr	r2, [r3, #36]	@ 0x24
    int16_t enc2_diff  = (int16_t)(enc2_current - enc2_prev);
 8001d14:	880b      	ldrh	r3, [r1, #0]
    uint16_t enc2_current = htim3.Instance->CNT;
 8001d16:	b292      	uxth	r2, r2
    int16_t enc2_diff  = (int16_t)(enc2_current - enc2_prev);
 8001d18:	1ad3      	subs	r3, r2, r3
    enc2_velocity = (int32_t)enc2_diff;
 8001d1a:	b21b      	sxth	r3, r3
 8001d1c:	6003      	str	r3, [r0, #0]
    uint16_t enc3_current = htim4.Instance->CNT;
 8001d1e:	4b0c      	ldr	r3, [pc, #48]	@ (8001d50 <Update_Encoder_Velocities+0x58>)
    enc2_prev = enc2_current;
 8001d20:	800a      	strh	r2, [r1, #0]
    uint16_t enc3_current = htim4.Instance->CNT;
 8001d22:	681b      	ldr	r3, [r3, #0]
    int16_t enc3_diff  = (int16_t)(enc3_current - enc3_prev);
 8001d24:	490b      	ldr	r1, [pc, #44]	@ (8001d54 <Update_Encoder_Velocities+0x5c>)
    uint16_t enc3_current = htim4.Instance->CNT;
 8001d26:	6a5a      	ldr	r2, [r3, #36]	@ 0x24
    int16_t enc3_diff  = (int16_t)(enc3_current - enc3_prev);
 8001d28:	880b      	ldrh	r3, [r1, #0]
    enc3_velocity = (int32_t)enc3_diff;
 8001d2a:	480b      	ldr	r0, [pc, #44]	@ (8001d58 <Update_Encoder_Velocities+0x60>)
    uint16_t enc3_current = htim4.Instance->CNT;
 8001d2c:	b292      	uxth	r2, r2
    int16_t enc3_diff  = (int16_t)(enc3_current - enc3_prev);
 8001d2e:	1ad3      	subs	r3, r2, r3
    enc3_velocity = (int32_t)enc3_diff;
 8001d30:	b21b      	sxth	r3, r3
 8001d32:	6003      	str	r3, [r0, #0]
    enc3_prev = enc3_current;
 8001d34:	800a      	strh	r2, [r1, #0]
}
 8001d36:	4770      	bx	lr
 8001d38:	20001550 	.word	0x20001550
 8001d3c:	2000123c 	.word	0x2000123c
 8001d40:	20001248 	.word	0x20001248
 8001d44:	20001508 	.word	0x20001508
 8001d48:	2000123a 	.word	0x2000123a
 8001d4c:	20001244 	.word	0x20001244
 8001d50:	200014c0 	.word	0x200014c0
 8001d54:	20001238 	.word	0x20001238
 8001d58:	20001240 	.word	0x20001240

08001d5c <convert_torque_to_speed>:
    float w1 = t1 * TORQUE_TO_OMEGA;
 8001d5c:	eeb7 7a08 	vmov.f32	s14, #120	@ 0x3fc00000  1.5
 8001d60:	ee20 0a07 	vmul.f32	s0, s0, s14
    int32_t target1 = (int32_t)(w1 * STEPS_PER_RAD);
 8001d64:	eddf 7a3d 	vldr	s15, [pc, #244]	@ 8001e5c <convert_torque_to_speed+0x100>
 8001d68:	ee20 0a27 	vmul.f32	s0, s0, s15
{
 8001d6c:	b5f8      	push	{r3, r4, r5, r6, r7, lr}
    int32_t target1 = (int32_t)(w1 * STEPS_PER_RAD);
 8001d6e:	eebd 0ac0 	vcvt.s32.f32	s0, s0
    int32_t diff1 = target1 - prev_spd1;
 8001d72:	4d3b      	ldr	r5, [pc, #236]	@ (8001e60 <convert_torque_to_speed+0x104>)
    int32_t diff2 = target2 - prev_spd2;
 8001d74:	4f3b      	ldr	r7, [pc, #236]	@ (8001e64 <convert_torque_to_speed+0x108>)
    int32_t diff1 = target1 - prev_spd1;
 8001d76:	6828      	ldr	r0, [r5, #0]
    int32_t diff2 = target2 - prev_spd2;
 8001d78:	6839      	ldr	r1, [r7, #0]
    int32_t diff3 = target3 - prev_spd3;
 8001d7a:	4e3b      	ldr	r6, [pc, #236]	@ (8001e68 <convert_torque_to_speed+0x10c>)
    float w2 = t2 * TORQUE_TO_OMEGA;
 8001d7c:	ee60 0a87 	vmul.f32	s1, s1, s14
    int32_t diff1 = target1 - prev_spd1;
 8001d80:	ee10 3a10 	vmov	r3, s0
    int32_t target2 = (int32_t)(w2 * STEPS_PER_RAD);
 8001d84:	ee60 0aa7 	vmul.f32	s1, s1, s15
    if (diff1 < -MAX_RAMP) diff1 = -MAX_RAMP;
 8001d88:	f06f 044f 	mvn.w	r4, #79	@ 0x4f
    int32_t diff1 = target1 - prev_spd1;
 8001d8c:	1a1b      	subs	r3, r3, r0
    if (diff1 < -MAX_RAMP) diff1 = -MAX_RAMP;
 8001d8e:	42a3      	cmp	r3, r4
    int32_t target2 = (int32_t)(w2 * STEPS_PER_RAD);
 8001d90:	eefd 0ae0 	vcvt.s32.f32	s1, s1
    float w3 = t3 * TORQUE_TO_OMEGA;
 8001d94:	ee21 1a07 	vmul.f32	s2, s2, s14
    if (diff1 < -MAX_RAMP) diff1 = -MAX_RAMP;
 8001d98:	bfb8      	it	lt
 8001d9a:	4623      	movlt	r3, r4
    prev_spd1 += diff1;
 8001d9c:	2b50      	cmp	r3, #80	@ 0x50
 8001d9e:	bfd4      	ite	le
 8001da0:	18c0      	addle	r0, r0, r3
 8001da2:	3050      	addgt	r0, #80	@ 0x50
    int32_t diff2 = target2 - prev_spd2;
 8001da4:	ee10 3a90 	vmov	r3, s1
    int32_t target3 = (int32_t)(w3 * STEPS_PER_RAD);
 8001da8:	ee21 1a27 	vmul.f32	s2, s2, s15
    int32_t diff2 = target2 - prev_spd2;
 8001dac:	1a5b      	subs	r3, r3, r1
    int32_t target3 = (int32_t)(w3 * STEPS_PER_RAD);
 8001dae:	eebd 1ac1 	vcvt.s32.f32	s2, s2
    if (diff2 < -MAX_RAMP) diff2 = -MAX_RAMP;
 8001db2:	42a3      	cmp	r3, r4
 8001db4:	bfb8      	it	lt
 8001db6:	4623      	movlt	r3, r4
{
 8001db8:	ed2d 8b02 	vpush	{d8}
    int32_t diff3 = target3 - prev_spd3;
 8001dbc:	6832      	ldr	r2, [r6, #0]
    prev_spd1 += diff1;
 8001dbe:	6028      	str	r0, [r5, #0]
    prev_spd2 += diff2;
 8001dc0:	2b50      	cmp	r3, #80	@ 0x50
 8001dc2:	bfd4      	ite	le
 8001dc4:	18cd      	addle	r5, r1, r3
 8001dc6:	f101 0550 	addgt.w	r5, r1, #80	@ 0x50
    int32_t diff3 = target3 - prev_spd3;
 8001dca:	ee11 3a10 	vmov	r3, s2
 8001dce:	1a9b      	subs	r3, r3, r2
    if (diff3 < -MAX_RAMP) diff3 = -MAX_RAMP;
 8001dd0:	42a3      	cmp	r3, r4
        (int32_t)fmaxf(-MAX_SPEED_HZ, fminf(MAX_SPEED_HZ, (float)prev_spd1)),
 8001dd2:	ee07 0a90 	vmov	s15, r0
 8001dd6:	eddf 8a25 	vldr	s17, [pc, #148]	@ 8001e6c <convert_torque_to_speed+0x110>
 8001dda:	ed9f 8a25 	vldr	s16, [pc, #148]	@ 8001e70 <convert_torque_to_speed+0x114>
    prev_spd2 += diff2;
 8001dde:	603d      	str	r5, [r7, #0]
    if (diff3 < -MAX_RAMP) diff3 = -MAX_RAMP;
 8001de0:	bfb8      	it	lt
 8001de2:	4623      	movlt	r3, r4
    prev_spd3 += diff3;
 8001de4:	2b50      	cmp	r3, #80	@ 0x50
 8001de6:	bfd4      	ite	le
 8001de8:	18d4      	addle	r4, r2, r3
 8001dea:	f102 0450 	addgt.w	r4, r2, #80	@ 0x50
        (int32_t)fmaxf(-MAX_SPEED_HZ, fminf(MAX_SPEED_HZ, (float)prev_spd1)),
 8001dee:	eeb8 0ae7 	vcvt.f32.s32	s0, s15
 8001df2:	eef0 0a68 	vmov.f32	s1, s17
    prev_spd3 += diff3;
 8001df6:	6034      	str	r4, [r6, #0]
        (int32_t)fmaxf(-MAX_SPEED_HZ, fminf(MAX_SPEED_HZ, (float)prev_spd1)),
 8001df8:	f006 fd99 	bl	800892e <fminf>
 8001dfc:	eef0 0a48 	vmov.f32	s1, s16
 8001e00:	f006 fd78 	bl	80088f4 <fmaxf>
    Set_Motor_Speeds(
 8001e04:	eefd 7ac0 	vcvt.s32.f32	s15, s0
        (int32_t)fmaxf(-MAX_SPEED_HZ, fminf(MAX_SPEED_HZ, (float)prev_spd2)),
 8001e08:	eef0 0a68 	vmov.f32	s1, s17
    Set_Motor_Speeds(
 8001e0c:	ee17 6a90 	vmov	r6, s15
        (int32_t)fmaxf(-MAX_SPEED_HZ, fminf(MAX_SPEED_HZ, (float)prev_spd2)),
 8001e10:	ee07 5a90 	vmov	s15, r5
 8001e14:	eeb8 0ae7 	vcvt.f32.s32	s0, s15
 8001e18:	f006 fd89 	bl	800892e <fminf>
 8001e1c:	eef0 0a48 	vmov.f32	s1, s16
 8001e20:	f006 fd68 	bl	80088f4 <fmaxf>
    Set_Motor_Speeds(
 8001e24:	eefd 7ac0 	vcvt.s32.f32	s15, s0
        (int32_t)fmaxf(-MAX_SPEED_HZ, fminf(MAX_SPEED_HZ, (float)prev_spd3))
 8001e28:	eef0 0a68 	vmov.f32	s1, s17
    Set_Motor_Speeds(
 8001e2c:	ee17 5a90 	vmov	r5, s15
        (int32_t)fmaxf(-MAX_SPEED_HZ, fminf(MAX_SPEED_HZ, (float)prev_spd3))
 8001e30:	ee07 4a90 	vmov	s15, r4
 8001e34:	eeb8 0ae7 	vcvt.f32.s32	s0, s15
 8001e38:	f006 fd79 	bl	800892e <fminf>
 8001e3c:	eef0 0a48 	vmov.f32	s1, s16
 8001e40:	f006 fd58 	bl	80088f4 <fmaxf>
    m1_speed_hz = speed1;
 8001e44:	4b0b      	ldr	r3, [pc, #44]	@ (8001e74 <convert_torque_to_speed+0x118>)
}
 8001e46:	ecbd 8b02 	vpop	{d8}
    m1_speed_hz = speed1;
 8001e4a:	601e      	str	r6, [r3, #0]
    m2_speed_hz = speed2;
 8001e4c:	4b0a      	ldr	r3, [pc, #40]	@ (8001e78 <convert_torque_to_speed+0x11c>)
    Set_Motor_Speeds(
 8001e4e:	eebd 0ac0 	vcvt.s32.f32	s0, s0
    m2_speed_hz = speed2;
 8001e52:	601d      	str	r5, [r3, #0]
    m3_speed_hz = speed3;
 8001e54:	4b09      	ldr	r3, [pc, #36]	@ (8001e7c <convert_torque_to_speed+0x120>)
 8001e56:	ed83 0a00 	vstr	s0, [r3]
}
 8001e5a:	bdf8      	pop	{r3, r4, r5, r6, r7, pc}
 8001e5c:	43fea5eb 	.word	0x43fea5eb
 8001e60:	200011d8 	.word	0x200011d8
 8001e64:	200011d4 	.word	0x200011d4
 8001e68:	200011d0 	.word	0x200011d0
 8001e6c:	46dac000 	.word	0x46dac000
 8001e70:	c6dac000 	.word	0xc6dac000
 8001e74:	20001260 	.word	0x20001260
 8001e78:	2000125c 	.word	0x2000125c
 8001e7c:	20001258 	.word	0x20001258

08001e80 <Balance_Task>:
{
 8001e80:	e92d 4ff0 	stmdb	sp!, {r4, r5, r6, r7, r8, r9, sl, fp, lr}
 8001e84:	ed2d 8b0c 	vpush	{d8-d13}
    vTaskDelay(pdMS_TO_TICKS(200));
 8001e88:	20c8      	movs	r0, #200	@ 0xc8
{
 8001e8a:	b09d      	sub	sp, #116	@ 0x74
    vTaskDelay(pdMS_TO_TICKS(200));
 8001e8c:	f005 fcbc 	bl	8007808 <vTaskDelay>
    MPU6050_Init(&hi2c1);
 8001e90:	4853      	ldr	r0, [pc, #332]	@ (8001fe0 <Balance_Task+0x160>)
    float gyro_bias_x = 0.0f, gyro_bias_y = 0.0f, gyro_bias_z = 0.0f;
 8001e92:	ed9f 8a54 	vldr	s16, [pc, #336]	@ 8001fe4 <Balance_Task+0x164>
        MPU6050_Read_All(&hi2c1, &MPU6050);
 8001e96:	4e54      	ldr	r6, [pc, #336]	@ (8001fe8 <Balance_Task+0x168>)
 8001e98:	4c51      	ldr	r4, [pc, #324]	@ (8001fe0 <Balance_Task+0x160>)
    MPU6050_Init(&hi2c1);
 8001e9a:	f000 fb59 	bl	8002550 <MPU6050_Init>
    vTaskDelay(pdMS_TO_TICKS(50));
 8001e9e:	2032      	movs	r0, #50	@ 0x32
 8001ea0:	f005 fcb2 	bl	8007808 <vTaskDelay>
    BallbotEKF_Init();
 8001ea4:	f7ff f86e 	bl	8000f84 <BallbotEKF_Init>
    HAL_GPIO_WritePin(ENABLE_PIN_GPIO_Port, ENABLE_PIN_Pin, GPIO_PIN_SET);
 8001ea8:	4850      	ldr	r0, [pc, #320]	@ (8001fec <Balance_Task+0x16c>)
 8001eaa:	2201      	movs	r2, #1
 8001eac:	f44f 6180 	mov.w	r1, #1024	@ 0x400
 8001eb0:	f001 fa00 	bl	80032b4 <HAL_GPIO_WritePin>
    vTaskDelay(pdMS_TO_TICKS(2000));
 8001eb4:	f44f 60fa 	mov.w	r0, #2000	@ 0x7d0
 8001eb8:	f005 fca6 	bl	8007808 <vTaskDelay>
 8001ebc:	f44f 75c8 	mov.w	r5, #400	@ 0x190
    float gyro_bias_x = 0.0f, gyro_bias_y = 0.0f, gyro_bias_z = 0.0f;
 8001ec0:	eef0 8a48 	vmov.f32	s17, s16
 8001ec4:	eeb0 9a48 	vmov.f32	s18, s16
 8001ec8:	eeb0 aa48 	vmov.f32	s20, s16
        MPU6050_Read_All(&hi2c1, &MPU6050);
 8001ecc:	4946      	ldr	r1, [pc, #280]	@ (8001fe8 <Balance_Task+0x168>)
 8001ece:	4620      	mov	r0, r4
 8001ed0:	f000 fbba 	bl	8002648 <MPU6050_Read_All>
        gyro_bias_x += MPU6050.Gx;
 8001ed4:	ee19 0a10 	vmov	r0, s18
 8001ed8:	f7fe fb3e 	bl	8000558 <__aeabi_f2d>
 8001edc:	e9d6 230a 	ldrd	r2, r3, [r6, #40]	@ 0x28
 8001ee0:	f7fe f9dc 	bl	800029c <__adddf3>
 8001ee4:	f7fe fe68 	bl	8000bb8 <__aeabi_d2f>
 8001ee8:	ee09 0a10 	vmov	s18, r0
        gyro_bias_y += MPU6050.Gy;
 8001eec:	ee18 0a90 	vmov	r0, s17
 8001ef0:	f7fe fb32 	bl	8000558 <__aeabi_f2d>
 8001ef4:	e9d6 230c 	ldrd	r2, r3, [r6, #48]	@ 0x30
 8001ef8:	f7fe f9d0 	bl	800029c <__adddf3>
 8001efc:	f7fe fe5c 	bl	8000bb8 <__aeabi_d2f>
 8001f00:	ee08 0a90 	vmov	s17, r0
        gyro_bias_z += MPU6050.Gz;
 8001f04:	ee18 0a10 	vmov	r0, s16
 8001f08:	f7fe fb26 	bl	8000558 <__aeabi_f2d>
 8001f0c:	e9d6 230e 	ldrd	r2, r3, [r6, #56]	@ 0x38
 8001f10:	f7fe f9c4 	bl	800029c <__adddf3>
 8001f14:	f7fe fe50 	bl	8000bb8 <__aeabi_d2f>
 8001f18:	ee08 0a10 	vmov	s16, r0
        vTaskDelay(pdMS_TO_TICKS(5));   // FIX: was HAL_Delay — yields FreeRTOS
 8001f1c:	2005      	movs	r0, #5
 8001f1e:	f005 fc73 	bl	8007808 <vTaskDelay>
    for (int i = 0; i < CAL_SAMPLES; i++) {
 8001f22:	3d01      	subs	r5, #1
 8001f24:	d1d2      	bne.n	8001ecc <Balance_Task+0x4c>
    gyro_bias_x /= CAL_SAMPLES;
 8001f26:	eddf 7a32 	vldr	s15, [pc, #200]	@ 8001ff0 <Balance_Task+0x170>
    HAL_GPIO_WritePin(ENABLE_PIN_GPIO_Port, ENABLE_PIN_Pin, GPIO_PIN_RESET);
 8001f2a:	4830      	ldr	r0, [pc, #192]	@ (8001fec <Balance_Task+0x16c>)
            if (robot_mode == 0) {
 8001f2c:	4f31      	ldr	r7, [pc, #196]	@ (8001ff4 <Balance_Task+0x174>)
    HAL_GPIO_WritePin(ENABLE_PIN_GPIO_Port, ENABLE_PIN_Pin, GPIO_PIN_RESET);
 8001f2e:	462a      	mov	r2, r5
 8001f30:	f44f 6180 	mov.w	r1, #1024	@ 0x400
    gyro_bias_x /= CAL_SAMPLES;
 8001f34:	eec9 aa27 	vdiv.f32	s21, s18, s15
       float accel_x = MPU6050.Ax * 9.81f;
 8001f38:	f20f 099c 	addw	r9, pc, #156	@ 0x9c
 8001f3c:	e9d9 8900 	ldrd	r8, r9, [r9]
    gyro_bias_y /= CAL_SAMPLES;
 8001f40:	ee88 baa7 	vdiv.f32	s22, s17, s15
    gyro_bias_z /= CAL_SAMPLES;
 8001f44:	eec8 ba27 	vdiv.f32	s23, s16, s15
    HAL_GPIO_WritePin(ENABLE_PIN_GPIO_Port, ENABLE_PIN_Pin, GPIO_PIN_RESET);
 8001f48:	f001 f9b4 	bl	80032b4 <HAL_GPIO_WritePin>
    BallbotStates ekf = {0};
 8001f4c:	2220      	movs	r2, #32
 8001f4e:	4629      	mov	r1, r5
 8001f50:	a814      	add	r0, sp, #80	@ 0x50
 8001f52:	f007 ffa4 	bl	8009e9e <memset>
    TickType_t xLastWake = xTaskGetTickCount();
 8001f56:	f005 faf7 	bl	8007548 <xTaskGetTickCount>
 8001f5a:	9010      	str	r0, [sp, #64]	@ 0x40
            if (robot_mode == 0) {
 8001f5c:	783b      	ldrb	r3, [r7, #0]
 8001f5e:	4c26      	ldr	r4, [pc, #152]	@ (8001ff8 <Balance_Task+0x178>)
      tick_count++;
 8001f60:	3501      	adds	r5, #1
            if (robot_mode == 0) {
 8001f62:	f003 0aff 	and.w	sl, r3, #255	@ 0xff
 8001f66:	2b00      	cmp	r3, #0
 8001f68:	d156      	bne.n	8002018 <Balance_Task+0x198>
    m1_speed_hz = speed1;
 8001f6a:	4b24      	ldr	r3, [pc, #144]	@ (8001ffc <Balance_Task+0x17c>)
                HAL_GPIO_WritePin(ENABLE_PIN_GPIO_Port, ENABLE_PIN_Pin, GPIO_PIN_SET); // Keep drivers offline
 8001f6c:	481f      	ldr	r0, [pc, #124]	@ (8001fec <Balance_Task+0x16c>)
    m1_speed_hz = speed1;
 8001f6e:	f8c3 a000 	str.w	sl, [r3]
    m2_speed_hz = speed2;
 8001f72:	4b23      	ldr	r3, [pc, #140]	@ (8002000 <Balance_Task+0x180>)
 8001f74:	f8c3 a000 	str.w	sl, [r3]
    m3_speed_hz = speed3;
 8001f78:	4b22      	ldr	r3, [pc, #136]	@ (8002004 <Balance_Task+0x184>)
                HAL_GPIO_WritePin(ENABLE_PIN_GPIO_Port, ENABLE_PIN_Pin, GPIO_PIN_SET); // Keep drivers offline
 8001f7a:	2201      	movs	r2, #1
 8001f7c:	f44f 6180 	mov.w	r1, #1024	@ 0x400
    m3_speed_hz = speed3;
 8001f80:	f8c3 a000 	str.w	sl, [r3]
                HAL_GPIO_WritePin(ENABLE_PIN_GPIO_Port, ENABLE_PIN_Pin, GPIO_PIN_SET); // Keep drivers offline
 8001f84:	f001 f996 	bl	80032b4 <HAL_GPIO_WritePin>
                BallbotEKF_Init();
 8001f88:	f7fe fffc 	bl	8000f84 <BallbotEKF_Init>
                ekf = (BallbotStates){0};
 8001f8c:	2220      	movs	r2, #32
 8001f8e:	4651      	mov	r1, sl
 8001f90:	a814      	add	r0, sp, #80	@ 0x50
 8001f92:	f007 ff84 	bl	8009e9e <memset>
                integral_error_x = 0.0f;
 8001f96:	4b1c      	ldr	r3, [pc, #112]	@ (8002008 <Balance_Task+0x188>)
                if (prev_robot_mode != robot_mode) {
 8001f98:	7822      	ldrb	r2, [r4, #0]
                integral_error_x = 0.0f;
 8001f9a:	ed83 aa00 	vstr	s20, [r3]
                integral_error_y = 0.0f;
 8001f9e:	4b1b      	ldr	r3, [pc, #108]	@ (800200c <Balance_Task+0x18c>)
 8001fa0:	ed83 aa00 	vstr	s20, [r3]
                if (prev_robot_mode != robot_mode) {
 8001fa4:	783b      	ldrb	r3, [r7, #0]
 8001fa6:	429a      	cmp	r2, r3
 8001fa8:	d00e      	beq.n	8001fc8 <Balance_Task+0x148>
                    CDC_Transmit_FS((uint8_t*)"MOTORS_DISABLED\r\n", 17);
 8001faa:	4819      	ldr	r0, [pc, #100]	@ (8002010 <Balance_Task+0x190>)
 8001fac:	2111      	movs	r1, #17
 8001fae:	f005 ff5b 	bl	8007e68 <CDC_Transmit_FS>
                    if (huart2.gState == HAL_UART_STATE_READY)
 8001fb2:	4818      	ldr	r0, [pc, #96]	@ (8002014 <Balance_Task+0x194>)
 8001fb4:	f890 3041 	ldrb.w	r3, [r0, #65]	@ 0x41
 8001fb8:	2b20      	cmp	r3, #32
 8001fba:	d103      	bne.n	8001fc4 <Balance_Task+0x144>
                        HAL_UART_Transmit_DMA(&huart2, (uint8_t*)"MOTORS_DISABLED\r\n", 17);
 8001fbc:	4914      	ldr	r1, [pc, #80]	@ (8002010 <Balance_Task+0x190>)
 8001fbe:	2211      	movs	r2, #17
 8001fc0:	f003 f93c 	bl	800523c <HAL_UART_Transmit_DMA>
                    prev_robot_mode = robot_mode;
 8001fc4:	783b      	ldrb	r3, [r7, #0]
 8001fc6:	7023      	strb	r3, [r4, #0]
                vTaskDelayUntil(&xLastWake, EKF_PERIOD);
 8001fc8:	2105      	movs	r1, #5
 8001fca:	a810      	add	r0, sp, #64	@ 0x40
 8001fcc:	f005 fbd2 	bl	8007774 <vTaskDelayUntil>
                continue;
 8001fd0:	e7c4      	b.n	8001f5c <Balance_Task+0xdc>
 8001fd2:	bf00      	nop
 8001fd4:	f3af 8000 	nop.w
 8001fd8:	60000000 	.word	0x60000000
 8001fdc:	40239eb8 	.word	0x40239eb8
 8001fe0:	20001598 	.word	0x20001598
 8001fe4:	00000000 	.word	0x00000000
 8001fe8:	200011e0 	.word	0x200011e0
 8001fec:	40020000 	.word	0x40020000
 8001ff0:	43c80000 	.word	0x43c80000
 8001ff4:	20001265 	.word	0x20001265
 8001ff8:	20001264 	.word	0x20001264
 8001ffc:	20001260 	.word	0x20001260
 8002000:	2000125c 	.word	0x2000125c
 8002004:	20001258 	.word	0x20001258
 8002008:	20001140 	.word	0x20001140
 800200c:	2000113c 	.word	0x2000113c
 8002010:	0800c1c0 	.word	0x0800c1c0
 8002014:	20001430 	.word	0x20001430
            if (prev_robot_mode != robot_mode) {
 8002018:	783b      	ldrb	r3, [r7, #0]
 800201a:	7822      	ldrb	r2, [r4, #0]
 800201c:	429a      	cmp	r2, r3
 800201e:	d017      	beq.n	8002050 <Balance_Task+0x1d0>
                HAL_GPIO_WritePin(ENABLE_PIN_GPIO_Port, ENABLE_PIN_Pin, GPIO_PIN_RESET); // Energize drivers
 8002020:	2200      	movs	r2, #0
 8002022:	f44f 6180 	mov.w	r1, #1024	@ 0x400
 8002026:	48b8      	ldr	r0, [pc, #736]	@ (8002308 <Balance_Task+0x488>)
 8002028:	f001 f944 	bl	80032b4 <HAL_GPIO_WritePin>
                xLastWake = xTaskGetTickCount();
 800202c:	f005 fa8c 	bl	8007548 <xTaskGetTickCount>
                CDC_Transmit_FS((uint8_t*)"MOTORS_ENABLED\r\n", 16);
 8002030:	2110      	movs	r1, #16
                xLastWake = xTaskGetTickCount();
 8002032:	9010      	str	r0, [sp, #64]	@ 0x40
                CDC_Transmit_FS((uint8_t*)"MOTORS_ENABLED\r\n", 16);
 8002034:	48b5      	ldr	r0, [pc, #724]	@ (800230c <Balance_Task+0x48c>)
 8002036:	f005 ff17 	bl	8007e68 <CDC_Transmit_FS>
                if (huart2.gState == HAL_UART_STATE_READY)
 800203a:	48b5      	ldr	r0, [pc, #724]	@ (8002310 <Balance_Task+0x490>)
 800203c:	f890 3041 	ldrb.w	r3, [r0, #65]	@ 0x41
 8002040:	2b20      	cmp	r3, #32
 8002042:	d103      	bne.n	800204c <Balance_Task+0x1cc>
                    HAL_UART_Transmit_DMA(&huart2, (uint8_t*)"MOTORS_ENABLED\r\n", 16);
 8002044:	49b1      	ldr	r1, [pc, #708]	@ (800230c <Balance_Task+0x48c>)
 8002046:	2210      	movs	r2, #16
 8002048:	f003 f8f8 	bl	800523c <HAL_UART_Transmit_DMA>
                prev_robot_mode = robot_mode;
 800204c:	783b      	ldrb	r3, [r7, #0]
 800204e:	7023      	strb	r3, [r4, #0]
       Update_Encoder_Velocities();
 8002050:	f7ff fe52 	bl	8001cf8 <Update_Encoder_Velocities>
       MPU6050_Read_All(&hi2c1, &MPU6050);
 8002054:	49af      	ldr	r1, [pc, #700]	@ (8002314 <Balance_Task+0x494>)
 8002056:	48b0      	ldr	r0, [pc, #704]	@ (8002318 <Balance_Task+0x498>)
 8002058:	f000 faf6 	bl	8002648 <MPU6050_Read_All>
       float gyro_x  = (MPU6050.Gx - gyro_bias_x) * D2R;
 800205c:	ee1a 0a90 	vmov	r0, s21
 8002060:	f7fe fa7a 	bl	8000558 <__aeabi_f2d>
 8002064:	4602      	mov	r2, r0
 8002066:	460b      	mov	r3, r1
 8002068:	e9d6 010a 	ldrd	r0, r1, [r6, #40]	@ 0x28
 800206c:	f7fe f914 	bl	8000298 <__aeabi_dsub>
 8002070:	a3a3      	add	r3, pc, #652	@ (adr r3, 8002300 <Balance_Task+0x480>)
 8002072:	e9d3 2300 	ldrd	r2, r3, [r3]
 8002076:	f7fe fac7 	bl	8000608 <__aeabi_dmul>
 800207a:	f7fe fd9d 	bl	8000bb8 <__aeabi_d2f>
 800207e:	ee0c 0a90 	vmov	s25, r0
       float gyro_y  = (MPU6050.Gy - gyro_bias_y) * D2R;
 8002082:	ee1b 0a10 	vmov	r0, s22
 8002086:	f7fe fa67 	bl	8000558 <__aeabi_f2d>
 800208a:	4602      	mov	r2, r0
 800208c:	460b      	mov	r3, r1
 800208e:	e9d6 010c 	ldrd	r0, r1, [r6, #48]	@ 0x30
 8002092:	f7fe f901 	bl	8000298 <__aeabi_dsub>
 8002096:	a39a      	add	r3, pc, #616	@ (adr r3, 8002300 <Balance_Task+0x480>)
 8002098:	e9d3 2300 	ldrd	r2, r3, [r3]
 800209c:	f7fe fab4 	bl	8000608 <__aeabi_dmul>
 80020a0:	f7fe fd8a 	bl	8000bb8 <__aeabi_d2f>
 80020a4:	ee0d 0a10 	vmov	s26, r0
       float gyro_z  = (MPU6050.Gz - gyro_bias_z) * D2R;
 80020a8:	ee1b 0a90 	vmov	r0, s23
 80020ac:	f7fe fa54 	bl	8000558 <__aeabi_f2d>
 80020b0:	4602      	mov	r2, r0
 80020b2:	460b      	mov	r3, r1
 80020b4:	e9d6 010e 	ldrd	r0, r1, [r6, #56]	@ 0x38
 80020b8:	f7fe f8ee 	bl	8000298 <__aeabi_dsub>
 80020bc:	a390      	add	r3, pc, #576	@ (adr r3, 8002300 <Balance_Task+0x480>)
 80020be:	e9d3 2300 	ldrd	r2, r3, [r3]
 80020c2:	f7fe faa1 	bl	8000608 <__aeabi_dmul>
 80020c6:	f7fe fd77 	bl	8000bb8 <__aeabi_d2f>
       float accel_x = MPU6050.Ax * 9.81f;
 80020ca:	4642      	mov	r2, r8
 80020cc:	464b      	mov	r3, r9
       float gyro_z  = (MPU6050.Gz - gyro_bias_z) * D2R;
 80020ce:	ee0c 0a10 	vmov	s24, r0
       float accel_x = MPU6050.Ax * 9.81f;
 80020d2:	e9d6 0102 	ldrd	r0, r1, [r6, #8]
 80020d6:	f7fe fa97 	bl	8000608 <__aeabi_dmul>
 80020da:	f7fe fd6d 	bl	8000bb8 <__aeabi_d2f>
       float accel_y = MPU6050.Ay * 9.81f;
 80020de:	4642      	mov	r2, r8
 80020e0:	464b      	mov	r3, r9
       float accel_x = MPU6050.Ax * 9.81f;
 80020e2:	ee09 0a90 	vmov	s19, r0
       float accel_y = MPU6050.Ay * 9.81f;
 80020e6:	e9d6 0104 	ldrd	r0, r1, [r6, #16]
 80020ea:	f7fe fa8d 	bl	8000608 <__aeabi_dmul>
 80020ee:	f7fe fd63 	bl	8000bb8 <__aeabi_d2f>
       float accel_z = MPU6050.Az * 9.81f;
 80020f2:	4642      	mov	r2, r8
       float accel_y = MPU6050.Ay * 9.81f;
 80020f4:	ee08 0a90 	vmov	s17, r0
       float accel_z = MPU6050.Az * 9.81f;
 80020f8:	464b      	mov	r3, r9
 80020fa:	e9d6 0106 	ldrd	r0, r1, [r6, #24]
 80020fe:	f7fe fa83 	bl	8000608 <__aeabi_dmul>
 8002102:	f7fe fd59 	bl	8000bb8 <__aeabi_d2f>
       float accel_mag2 = accel_x*accel_x + accel_y*accel_y + accel_z*accel_z;
 8002106:	ee68 7aa8 	vmul.f32	s15, s17, s17
       float accel_z = MPU6050.Az * 9.81f;
 800210a:	ee07 0a10 	vmov	s14, r0
       float accel_mag2 = accel_x*accel_x + accel_y*accel_y + accel_z*accel_z;
 800210e:	eee9 7aa9 	vfma.f32	s15, s19, s19
 8002112:	eee7 7a07 	vfma.f32	s15, s14, s14
       if (accel_mag2 > (147.0f*147.0f) || accel_mag2 < (2.0f*2.0f)) {
 8002116:	ed9f 7a81 	vldr	s14, [pc, #516]	@ 800231c <Balance_Task+0x49c>
 800211a:	eef4 7ac7 	vcmpe.f32	s15, s14
 800211e:	eef1 fa10 	vmrs	APSR_nzcv, fpscr
 8002122:	dc06      	bgt.n	8002132 <Balance_Task+0x2b2>
 8002124:	eeb1 7a00 	vmov.f32	s14, #16	@ 0x40800000  4.0
 8002128:	eef4 7ac7 	vcmpe.f32	s15, s14
 800212c:	eef1 fa10 	vmrs	APSR_nzcv, fpscr
 8002130:	d519      	bpl.n	8002166 <Balance_Task+0x2e6>
           safe_ax =  9.81f * sinf(ekf.theta);
 8002132:	ed9d 8a15 	vldr	s16, [sp, #84]	@ 0x54
 8002136:	eeb0 0a48 	vmov.f32	s0, s16
 800213a:	f006 fb95 	bl	8008868 <sinf>
 800213e:	eddf 7a78 	vldr	s15, [pc, #480]	@ 8002320 <Balance_Task+0x4a0>
 8002142:	ee60 9a27 	vmul.f32	s19, s0, s15
           safe_ay = -9.81f * sinf(ekf.phi) * cosf(ekf.theta);
 8002146:	ed9d 0a14 	vldr	s0, [sp, #80]	@ 0x50
 800214a:	f006 fb8d 	bl	8008868 <sinf>
 800214e:	eef0 8a40 	vmov.f32	s17, s0
 8002152:	eeb0 0a48 	vmov.f32	s0, s16
 8002156:	f006 fb43 	bl	80087e0 <cosf>
 800215a:	eddf 7a72 	vldr	s15, [pc, #456]	@ 8002324 <Balance_Task+0x4a4>
 800215e:	ee68 8aa7 	vmul.f32	s17, s17, s15
 8002162:	ee68 8a80 	vmul.f32	s17, s17, s0
       float w1 = (float)enc1_velocity * TICKS_TO_RADS;
 8002166:	4b70      	ldr	r3, [pc, #448]	@ (8002328 <Balance_Task+0x4a8>)
       float w2 = (float)enc2_velocity * TICKS_TO_RADS;
 8002168:	f8df b204 	ldr.w	fp, [pc, #516]	@ 8002370 <Balance_Task+0x4f0>
       float w1 = (float)enc1_velocity * TICKS_TO_RADS;
 800216c:	ed93 7a00 	vldr	s14, [r3]
       float w3 = (float)enc3_velocity * TICKS_TO_RADS;
 8002170:	f8df a200 	ldr.w	sl, [pc, #512]	@ 8002374 <Balance_Task+0x4f4>
       float w2 = (float)enc2_velocity * TICKS_TO_RADS;
 8002174:	ed9b 8a00 	vldr	s16, [fp]
       float w1 = (float)enc1_velocity * TICKS_TO_RADS;
 8002178:	eddf 6a6c 	vldr	s13, [pc, #432]	@ 800232c <Balance_Task+0x4ac>
       float w3 = (float)enc3_velocity * TICKS_TO_RADS;
 800217c:	edda 7a00 	vldr	s15, [sl]
       float enc_vx = KIN_VX_W1*w1 + KIN_VX_W2*w2 + KIN_VX_W3*w3;
 8002180:	ed9f 9a6b 	vldr	s18, [pc, #428]	@ 8002330 <Balance_Task+0x4b0>
       BallbotEKF_Update(gyro_x, gyro_y, safe_ax, safe_ay,
 8002184:	ed9f 3a6b 	vldr	s6, [pc, #428]	@ 8002334 <Balance_Task+0x4b4>
       current_state[0] = ekf.phi   - PHI_OFFSET;
 8002188:	4c6b      	ldr	r4, [pc, #428]	@ (8002338 <Balance_Task+0x4b8>)
       float w2 = (float)enc2_velocity * TICKS_TO_RADS;
 800218a:	eeb8 8ac8 	vcvt.f32.s32	s16, s16
       float w1 = (float)enc1_velocity * TICKS_TO_RADS;
 800218e:	eeb8 7ac7 	vcvt.f32.s32	s14, s14
       float w2 = (float)enc2_velocity * TICKS_TO_RADS;
 8002192:	ee28 8a26 	vmul.f32	s16, s16, s13
       float w3 = (float)enc3_velocity * TICKS_TO_RADS;
 8002196:	eef8 7ae7 	vcvt.f32.s32	s15, s15
       float w1 = (float)enc1_velocity * TICKS_TO_RADS;
 800219a:	ee27 7a26 	vmul.f32	s14, s14, s13
       float w3 = (float)enc3_velocity * TICKS_TO_RADS;
 800219e:	ee67 7aa6 	vmul.f32	s15, s15, s13
       float enc_vx = KIN_VX_W1*w1 + KIN_VX_W2*w2 + KIN_VX_W3*w3;
 80021a2:	ee28 9a09 	vmul.f32	s18, s16, s18
 80021a6:	eddf 6a65 	vldr	s13, [pc, #404]	@ 800233c <Balance_Task+0x4bc>
 80021aa:	eea7 9a26 	vfma.f32	s18, s14, s13
       BallbotEKF_Update(gyro_x, gyro_y, safe_ax, safe_ay,
 80021ae:	a814      	add	r0, sp, #80	@ 0x50
       float enc_vx = KIN_VX_W1*w1 + KIN_VX_W2*w2 + KIN_VX_W3*w3;
 80021b0:	eddf 6a63 	vldr	s13, [pc, #396]	@ 8002340 <Balance_Task+0x4c0>
 80021b4:	eea7 9aa6 	vfma.f32	s18, s15, s13
       float enc_vy = KIN_VY_W1*w1 + KIN_VY_W2*w2 + KIN_VY_W3*w3;
 80021b8:	eddf 6a62 	vldr	s13, [pc, #392]	@ 8002344 <Balance_Task+0x4c4>
 80021bc:	ee28 8a26 	vmul.f32	s16, s16, s13
 80021c0:	eddf 6a61 	vldr	s13, [pc, #388]	@ 8002348 <Balance_Task+0x4c8>
 80021c4:	eea7 8a26 	vfma.f32	s16, s14, s13
 80021c8:	ed9f 7a60 	vldr	s14, [pc, #384]	@ 800234c <Balance_Task+0x4cc>
 80021cc:	eea7 8a87 	vfma.f32	s16, s15, s14
       BallbotEKF_Update(gyro_x, gyro_y, safe_ax, safe_ay,
 80021d0:	eeb0 2a49 	vmov.f32	s4, s18
 80021d4:	eef0 2a48 	vmov.f32	s5, s16
 80021d8:	eef0 1a68 	vmov.f32	s3, s17
 80021dc:	eeb0 1a69 	vmov.f32	s2, s19
 80021e0:	eef0 0a4d 	vmov.f32	s1, s26
 80021e4:	eeb0 0a6c 	vmov.f32	s0, s25
 80021e8:	f7ff f820 	bl	800122c <BallbotEKF_Update>
       gyroz_filter = gyroz_LPF * gyro_z + (1.0f - gyroz_LPF) * gyroz_filter;
 80021ec:	4a58      	ldr	r2, [pc, #352]	@ (8002350 <Balance_Task+0x4d0>)
 80021ee:	ed9f 7a59 	vldr	s14, [pc, #356]	@ 8002354 <Balance_Task+0x4d4>
 80021f2:	edd2 7a00 	vldr	s15, [r2]
       current_state[0] = ekf.phi   - PHI_OFFSET;
 80021f6:	eddf 6a58 	vldr	s13, [pc, #352]	@ 8002358 <Balance_Task+0x4d8>
       current_state[2] = 0.00f;         // psi — no yaw control yet
 80021fa:	ed84 aa02 	vstr	s20, [r4, #8]
       gyroz_filter = gyroz_LPF * gyro_z + (1.0f - gyroz_LPF) * gyroz_filter;
 80021fe:	ee67 7a87 	vmul.f32	s15, s15, s14
 8002202:	ed9f 7a56 	vldr	s14, [pc, #344]	@ 800235c <Balance_Task+0x4dc>
       current_state[3] = enc_vx;
 8002206:	ed84 9a03 	vstr	s18, [r4, #12]
       gyroz_filter = gyroz_LPF * gyro_z + (1.0f - gyroz_LPF) * gyroz_filter;
 800220a:	eeec 7a07 	vfma.f32	s15, s24, s14
       current_state[0] = ekf.phi   - PHI_OFFSET;
 800220e:	ed9d 7a14 	vldr	s14, [sp, #80]	@ 0x50
       gyroz_filter = gyroz_LPF * gyro_z + (1.0f - gyroz_LPF) * gyroz_filter;
 8002212:	edc2 7a00 	vstr	s15, [r2]
       current_state[0] = ekf.phi   - PHI_OFFSET;
 8002216:	ee37 7a26 	vadd.f32	s14, s14, s13
       current_state[1] = ekf.theta - THETA_OFFSET;
 800221a:	eddf 6a51 	vldr	s13, [pc, #324]	@ 8002360 <Balance_Task+0x4e0>
       current_state[0] = ekf.phi   - PHI_OFFSET;
 800221e:	ed84 7a00 	vstr	s14, [r4]
       current_state[1] = ekf.theta - THETA_OFFSET;
 8002222:	ed9d 7a15 	vldr	s14, [sp, #84]	@ 0x54
       current_state[5] = ekf.dphi;
 8002226:	9a16      	ldr	r2, [sp, #88]	@ 0x58
 8002228:	6162      	str	r2, [r4, #20]
       current_state[1] = ekf.theta - THETA_OFFSET;
 800222a:	ee37 7a26 	vadd.f32	s14, s14, s13
       current_state[6] = ekf.dtheta;
 800222e:	9a17      	ldr	r2, [sp, #92]	@ 0x5c
 8002230:	61a2      	str	r2, [r4, #24]
       current_state[1] = ekf.theta - THETA_OFFSET;
 8002232:	ed84 7a01 	vstr	s14, [r4, #4]
       current_state[7] = gyroz_filter;
 8002236:	edc4 7a07 	vstr	s15, [r4, #28]
       current_state[4] = enc_vy;
 800223a:	ed84 8a04 	vstr	s16, [r4, #16]
       controlLoop(DT_S, HAL_GetTick(), torques);
 800223e:	f000 fd2b 	bl	8002c98 <HAL_GetTick>
 8002242:	a911      	add	r1, sp, #68	@ 0x44
 8002244:	ed9f 0a3b 	vldr	s0, [pc, #236]	@ 8002334 <Balance_Task+0x4b4>
 8002248:	f7ff f9c4 	bl	80015d4 <controlLoop>
       convert_torque_to_speed(torques[0], torques[1], torques[2]);
 800224c:	ed9d 1a13 	vldr	s2, [sp, #76]	@ 0x4c
 8002250:	eddd 0a12 	vldr	s1, [sp, #72]	@ 0x48
 8002254:	ed9d 0a11 	vldr	s0, [sp, #68]	@ 0x44
 8002258:	f7ff fd80 	bl	8001d5c <convert_torque_to_speed>
 800225c:	2114      	movs	r1, #20
 800225e:	fbb5 f2f1 	udiv	r2, r5, r1
 8002262:	fb01 5212 	mls	r2, r1, r2, r5
       if (tick_count % 20 == 0) {
 8002266:	4b30      	ldr	r3, [pc, #192]	@ (8002328 <Balance_Task+0x4a8>)
 8002268:	2a00      	cmp	r2, #0
 800226a:	f47f aead 	bne.w	8001fc8 <Balance_Task+0x148>
           int len = snprintf((char*)uart_tx_buf, sizeof(uart_tx_buf),
 800226e:	483d      	ldr	r0, [pc, #244]	@ (8002364 <Balance_Task+0x4e4>)
 8002270:	f8df c104 	ldr.w	ip, [pc, #260]	@ 8002378 <Balance_Task+0x4f8>
 8002274:	f8df e104 	ldr.w	lr, [pc, #260]	@ 800237c <Balance_Task+0x4fc>
 8002278:	681b      	ldr	r3, [r3, #0]
 800227a:	f8db 2000 	ldr.w	r2, [fp]
 800227e:	f8da 1000 	ldr.w	r1, [sl]
 8002282:	6800      	ldr	r0, [r0, #0]
 8002284:	f8dc c000 	ldr.w	ip, [ip]
 8002288:	f8de e000 	ldr.w	lr, [lr]
 800228c:	e9cd 100c 	strd	r1, r0, [sp, #48]	@ 0x30
 8002290:	ee18 0a10 	vmov	r0, s16
 8002294:	e9cd 320a 	strd	r3, r2, [sp, #40]	@ 0x28
 8002298:	e9cd ce0e 	strd	ip, lr, [sp, #56]	@ 0x38
 800229c:	f7fe f95c 	bl	8000558 <__aeabi_f2d>
 80022a0:	e9cd 0108 	strd	r0, r1, [sp, #32]
 80022a4:	ee19 0a10 	vmov	r0, s18
 80022a8:	f7fe f956 	bl	8000558 <__aeabi_f2d>
 80022ac:	e9cd 0106 	strd	r0, r1, [sp, #24]
 80022b0:	69e0      	ldr	r0, [r4, #28]
 80022b2:	f7fe f951 	bl	8000558 <__aeabi_f2d>
 80022b6:	e9cd 0104 	strd	r0, r1, [sp, #16]
 80022ba:	6860      	ldr	r0, [r4, #4]
 80022bc:	f7fe f94c 	bl	8000558 <__aeabi_f2d>
 80022c0:	e9cd 0102 	strd	r0, r1, [sp, #8]
 80022c4:	6820      	ldr	r0, [r4, #0]
 80022c6:	f7fe f947 	bl	8000558 <__aeabi_f2d>
 80022ca:	4a27      	ldr	r2, [pc, #156]	@ (8002368 <Balance_Task+0x4e8>)
 80022cc:	e9cd 0100 	strd	r0, r1, [sp]
 80022d0:	4826      	ldr	r0, [pc, #152]	@ (800236c <Balance_Task+0x4ec>)
 80022d2:	21c0      	movs	r1, #192	@ 0xc0
 80022d4:	f007 fd6a 	bl	8009dac <sniprintf>
           if (len > 0 && len < (int)sizeof(uart_tx_buf)) {
 80022d8:	1e43      	subs	r3, r0, #1
 80022da:	2bbe      	cmp	r3, #190	@ 0xbe
 80022dc:	f63f ae74 	bhi.w	8001fc8 <Balance_Task+0x148>
               CDC_Transmit_FS(uart_tx_buf, (uint16_t)len);
 80022e0:	b284      	uxth	r4, r0
 80022e2:	4621      	mov	r1, r4
 80022e4:	4821      	ldr	r0, [pc, #132]	@ (800236c <Balance_Task+0x4ec>)
 80022e6:	f005 fdbf 	bl	8007e68 <CDC_Transmit_FS>
               if (huart2.gState == HAL_UART_STATE_READY)
 80022ea:	4809      	ldr	r0, [pc, #36]	@ (8002310 <Balance_Task+0x490>)
 80022ec:	f890 3041 	ldrb.w	r3, [r0, #65]	@ 0x41
 80022f0:	2b20      	cmp	r3, #32
 80022f2:	f47f ae69 	bne.w	8001fc8 <Balance_Task+0x148>
                   HAL_UART_Transmit_DMA(&huart2, uart_tx_buf, (uint16_t)len);
 80022f6:	491d      	ldr	r1, [pc, #116]	@ (800236c <Balance_Task+0x4ec>)
 80022f8:	4622      	mov	r2, r4
 80022fa:	f002 ff9f 	bl	800523c <HAL_UART_Transmit_DMA>
 80022fe:	e663      	b.n	8001fc8 <Balance_Task+0x148>
 8002300:	a0000000 	.word	0xa0000000
 8002304:	3f91df46 	.word	0x3f91df46
 8002308:	40020000 	.word	0x40020000
 800230c:	0800c1d2 	.word	0x0800c1d2
 8002310:	20001430 	.word	0x20001430
 8002314:	200011e0 	.word	0x200011e0
 8002318:	20001598 	.word	0x20001598
 800231c:	46a8d200 	.word	0x46a8d200
 8002320:	411cf5c3 	.word	0x411cf5c3
 8002324:	c11cf5c3 	.word	0xc11cf5c3
 8002328:	20001248 	.word	0x20001248
 800232c:	3ea0d97c 	.word	0x3ea0d97c
 8002330:	3e9e5be4 	.word	0x3e9e5be4
 8002334:	3ba3d70a 	.word	0x3ba3d70a
 8002338:	200011a4 	.word	0x200011a4
 800233c:	be9e5be3 	.word	0xbe9e5be3
 8002340:	80000000 	.word	0x80000000
 8002344:	be36db6c 	.word	0xbe36db6c
 8002348:	be36db6f 	.word	0xbe36db6f
 800234c:	3eb6db6e 	.word	0x3eb6db6e
 8002350:	200011cc 	.word	0x200011cc
 8002354:	3f733333 	.word	0x3f733333
 8002358:	3cb43958 	.word	0x3cb43958
 800235c:	3d4ccccd 	.word	0x3d4ccccd
 8002360:	3e3d70a4 	.word	0x3e3d70a4
 8002364:	20001260 	.word	0x20001260
 8002368:	0800c1e3 	.word	0x0800c1e3
 800236c:	20001266 	.word	0x20001266
 8002370:	20001244 	.word	0x20001244
 8002374:	20001240 	.word	0x20001240
 8002378:	2000125c 	.word	0x2000125c
 800237c:	20001258 	.word	0x20001258

08002380 <HAL_TIM_PeriodElapsedCallback>:
{
 8002380:	b5f8      	push	{r3, r4, r5, r6, r7, lr}
  if (htim->Instance == TIM10)
 8002382:	6802      	ldr	r2, [r0, #0]
 8002384:	4b64      	ldr	r3, [pc, #400]	@ (8002518 <HAL_TIM_PeriodElapsedCallback+0x198>)
 8002386:	429a      	cmp	r2, r3
{
 8002388:	4604      	mov	r4, r0
  if (htim->Instance == TIM10)
 800238a:	d101      	bne.n	8002390 <HAL_TIM_PeriodElapsedCallback+0x10>
    HAL_IncTick();
 800238c:	f000 fc78 	bl	8002c80 <HAL_IncTick>
  if (htim->Instance == TIM11)
 8002390:	6822      	ldr	r2, [r4, #0]
 8002392:	4b62      	ldr	r3, [pc, #392]	@ (800251c <HAL_TIM_PeriodElapsedCallback+0x19c>)
 8002394:	429a      	cmp	r2, r3
 8002396:	f040 80bd 	bne.w	8002514 <HAL_TIM_PeriodElapsedCallback+0x194>
            if (m1_speed_hz != 0) {
 800239a:	4d61      	ldr	r5, [pc, #388]	@ (8002520 <HAL_TIM_PeriodElapsedCallback+0x1a0>)
            HAL_GPIO_WritePin(ENABLE_PIN_GPIO_Port, ENABLE_PIN_Pin, GPIO_PIN_RESET);
 800239c:	4861      	ldr	r0, [pc, #388]	@ (8002524 <HAL_TIM_PeriodElapsedCallback+0x1a4>)
 800239e:	4c62      	ldr	r4, [pc, #392]	@ (8002528 <HAL_TIM_PeriodElapsedCallback+0x1a8>)
 80023a0:	2200      	movs	r2, #0
 80023a2:	f44f 6180 	mov.w	r1, #1024	@ 0x400
 80023a6:	f000 ff85 	bl	80032b4 <HAL_GPIO_WritePin>
            if (m1_speed_hz != 0) {
 80023aa:	682b      	ldr	r3, [r5, #0]
 80023ac:	2b00      	cmp	r3, #0
 80023ae:	f000 8095 	beq.w	80024dc <HAL_TIM_PeriodElapsedCallback+0x15c>
                HAL_GPIO_WritePin(M1_DIR_GPIO_Port, M1_DIR_Pin,
 80023b2:	682a      	ldr	r2, [r5, #0]
 80023b4:	485d      	ldr	r0, [pc, #372]	@ (800252c <HAL_TIM_PeriodElapsedCallback+0x1ac>)
 80023b6:	2a00      	cmp	r2, #0
 80023b8:	bfd4      	ite	le
 80023ba:	2200      	movle	r2, #0
 80023bc:	2201      	movgt	r2, #1
 80023be:	f44f 5100 	mov.w	r1, #8192	@ 0x2000
 80023c2:	f000 ff77 	bl	80032b4 <HAL_GPIO_WritePin>
                m1_accumulator += abs(m1_speed_hz);
 80023c6:	682b      	ldr	r3, [r5, #0]
 80023c8:	6822      	ldr	r2, [r4, #0]
 80023ca:	2b00      	cmp	r3, #0
 80023cc:	bfb8      	it	lt
 80023ce:	425b      	neglt	r3, r3
 80023d0:	4413      	add	r3, r2
 80023d2:	6023      	str	r3, [r4, #0]
                if (m1_accumulator >= TIMER_FREQ_HZ) {
 80023d4:	6822      	ldr	r2, [r4, #0]
 80023d6:	4b56      	ldr	r3, [pc, #344]	@ (8002530 <HAL_TIM_PeriodElapsedCallback+0x1b0>)
 80023d8:	429a      	cmp	r2, r3
 80023da:	d876      	bhi.n	80024ca <HAL_TIM_PeriodElapsedCallback+0x14a>
        uint8_t step1 = 0, step2 = 0, step3 = 0;
 80023dc:	2500      	movs	r5, #0
            if (m2_speed_hz != 0) {
 80023de:	4e55      	ldr	r6, [pc, #340]	@ (8002534 <HAL_TIM_PeriodElapsedCallback+0x1b4>)
            HAL_GPIO_WritePin(ENABLE_PIN_GPIO_Port, ENABLE_PIN_Pin, GPIO_PIN_RESET);
 80023e0:	4850      	ldr	r0, [pc, #320]	@ (8002524 <HAL_TIM_PeriodElapsedCallback+0x1a4>)
 80023e2:	4c55      	ldr	r4, [pc, #340]	@ (8002538 <HAL_TIM_PeriodElapsedCallback+0x1b8>)
 80023e4:	2200      	movs	r2, #0
 80023e6:	f44f 6180 	mov.w	r1, #1024	@ 0x400
 80023ea:	f000 ff63 	bl	80032b4 <HAL_GPIO_WritePin>
            if (m2_speed_hz != 0) {
 80023ee:	6833      	ldr	r3, [r6, #0]
 80023f0:	2b00      	cmp	r3, #0
 80023f2:	d07e      	beq.n	80024f2 <HAL_TIM_PeriodElapsedCallback+0x172>
                HAL_GPIO_WritePin(M2_DIR_GPIO_Port, M2_DIR_Pin,
 80023f4:	6832      	ldr	r2, [r6, #0]
 80023f6:	484d      	ldr	r0, [pc, #308]	@ (800252c <HAL_TIM_PeriodElapsedCallback+0x1ac>)
 80023f8:	2a00      	cmp	r2, #0
 80023fa:	bfd4      	ite	le
 80023fc:	2200      	movle	r2, #0
 80023fe:	2201      	movgt	r2, #1
 8002400:	f44f 4100 	mov.w	r1, #32768	@ 0x8000
 8002404:	f000 ff56 	bl	80032b4 <HAL_GPIO_WritePin>
                m2_accumulator += abs(m2_speed_hz);
 8002408:	6833      	ldr	r3, [r6, #0]
 800240a:	6822      	ldr	r2, [r4, #0]
 800240c:	2b00      	cmp	r3, #0
 800240e:	bfb8      	it	lt
 8002410:	425b      	neglt	r3, r3
 8002412:	4413      	add	r3, r2
 8002414:	6023      	str	r3, [r4, #0]
                if (m2_accumulator >= TIMER_FREQ_HZ) {
 8002416:	6822      	ldr	r2, [r4, #0]
 8002418:	4b45      	ldr	r3, [pc, #276]	@ (8002530 <HAL_TIM_PeriodElapsedCallback+0x1b0>)
 800241a:	429a      	cmp	r2, r3
 800241c:	d860      	bhi.n	80024e0 <HAL_TIM_PeriodElapsedCallback+0x160>
        uint8_t step1 = 0, step2 = 0, step3 = 0;
 800241e:	2600      	movs	r6, #0
            if (m3_speed_hz != 0) {
 8002420:	4f46      	ldr	r7, [pc, #280]	@ (800253c <HAL_TIM_PeriodElapsedCallback+0x1bc>)
            HAL_GPIO_WritePin(ENABLE_PIN_GPIO_Port, ENABLE_PIN_Pin, GPIO_PIN_RESET);
 8002422:	4840      	ldr	r0, [pc, #256]	@ (8002524 <HAL_TIM_PeriodElapsedCallback+0x1a4>)
 8002424:	4c46      	ldr	r4, [pc, #280]	@ (8002540 <HAL_TIM_PeriodElapsedCallback+0x1c0>)
 8002426:	2200      	movs	r2, #0
 8002428:	f44f 6180 	mov.w	r1, #1024	@ 0x400
 800242c:	f000 ff42 	bl	80032b4 <HAL_GPIO_WritePin>
            if (m3_speed_hz != 0) {
 8002430:	683b      	ldr	r3, [r7, #0]
 8002432:	2b00      	cmp	r3, #0
 8002434:	d068      	beq.n	8002508 <HAL_TIM_PeriodElapsedCallback+0x188>
                HAL_GPIO_WritePin(ENAPLE_M3_GPIO_Port, ENAPLE_M3_Pin,
 8002436:	683a      	ldr	r2, [r7, #0]
 8002438:	4842      	ldr	r0, [pc, #264]	@ (8002544 <HAL_TIM_PeriodElapsedCallback+0x1c4>)
 800243a:	2a00      	cmp	r2, #0
 800243c:	bfd4      	ite	le
 800243e:	2200      	movle	r2, #0
 8002440:	2201      	movgt	r2, #1
 8002442:	f44f 4180 	mov.w	r1, #16384	@ 0x4000
 8002446:	f000 ff35 	bl	80032b4 <HAL_GPIO_WritePin>
                m3_accumulator += abs(m3_speed_hz);
 800244a:	683b      	ldr	r3, [r7, #0]
 800244c:	6822      	ldr	r2, [r4, #0]
 800244e:	2b00      	cmp	r3, #0
 8002450:	bfb8      	it	lt
 8002452:	425b      	neglt	r3, r3
 8002454:	4413      	add	r3, r2
 8002456:	6023      	str	r3, [r4, #0]
                if (m3_accumulator >= TIMER_FREQ_HZ) {
 8002458:	6822      	ldr	r2, [r4, #0]
 800245a:	4b35      	ldr	r3, [pc, #212]	@ (8002530 <HAL_TIM_PeriodElapsedCallback+0x1b0>)
 800245c:	429a      	cmp	r2, r3
 800245e:	d84a      	bhi.n	80024f6 <HAL_TIM_PeriodElapsedCallback+0x176>
        uint8_t step1 = 0, step2 = 0, step3 = 0;
 8002460:	2400      	movs	r4, #0
        if (step1) HAL_GPIO_WritePin(M1_STEP_GPIO_Port, M1_STEP_Pin, GPIO_PIN_SET);
 8002462:	b12d      	cbz	r5, 8002470 <HAL_TIM_PeriodElapsedCallback+0xf0>
 8002464:	4831      	ldr	r0, [pc, #196]	@ (800252c <HAL_TIM_PeriodElapsedCallback+0x1ac>)
 8002466:	2201      	movs	r2, #1
 8002468:	f44f 5180 	mov.w	r1, #4096	@ 0x1000
 800246c:	f000 ff22 	bl	80032b4 <HAL_GPIO_WritePin>
        if (step2) HAL_GPIO_WritePin(M2_STEP_GPIO_Port, M2_STEP_Pin, GPIO_PIN_SET);
 8002470:	2e00      	cmp	r6, #0
 8002472:	d04b      	beq.n	800250c <HAL_TIM_PeriodElapsedCallback+0x18c>
 8002474:	482d      	ldr	r0, [pc, #180]	@ (800252c <HAL_TIM_PeriodElapsedCallback+0x1ac>)
 8002476:	2201      	movs	r2, #1
 8002478:	f44f 4180 	mov.w	r1, #16384	@ 0x4000
 800247c:	f000 ff1a 	bl	80032b4 <HAL_GPIO_WritePin>
        if (step3) HAL_GPIO_WritePin(M3_STEP_GPIO_Port, M3_STEP_Pin, GPIO_PIN_SET);
 8002480:	b12c      	cbz	r4, 800248e <HAL_TIM_PeriodElapsedCallback+0x10e>
 8002482:	4828      	ldr	r0, [pc, #160]	@ (8002524 <HAL_TIM_PeriodElapsedCallback+0x1a4>)
 8002484:	2201      	movs	r2, #1
 8002486:	f44f 7180 	mov.w	r1, #256	@ 0x100
 800248a:	f000 ff13 	bl	80032b4 <HAL_GPIO_WritePin>
            uint32_t t0 = DWT->CYCCNT;
 800248e:	4a2e      	ldr	r2, [pc, #184]	@ (8002548 <HAL_TIM_PeriodElapsedCallback+0x1c8>)
 8002490:	6851      	ldr	r1, [r2, #4]
            while ((DWT->CYCCNT - t0) < 260U);
 8002492:	6853      	ldr	r3, [r2, #4]
 8002494:	1a5b      	subs	r3, r3, r1
 8002496:	f5b3 7f82 	cmp.w	r3, #260	@ 0x104
 800249a:	d3fa      	bcc.n	8002492 <HAL_TIM_PeriodElapsedCallback+0x112>
        if (step1) HAL_GPIO_WritePin(M1_STEP_GPIO_Port, M1_STEP_Pin, GPIO_PIN_RESET);
 800249c:	b12d      	cbz	r5, 80024aa <HAL_TIM_PeriodElapsedCallback+0x12a>
 800249e:	4823      	ldr	r0, [pc, #140]	@ (800252c <HAL_TIM_PeriodElapsedCallback+0x1ac>)
 80024a0:	2200      	movs	r2, #0
 80024a2:	f44f 5180 	mov.w	r1, #4096	@ 0x1000
 80024a6:	f000 ff05 	bl	80032b4 <HAL_GPIO_WritePin>
        if (step2) HAL_GPIO_WritePin(M2_STEP_GPIO_Port, M2_STEP_Pin, GPIO_PIN_RESET);
 80024aa:	b12e      	cbz	r6, 80024b8 <HAL_TIM_PeriodElapsedCallback+0x138>
 80024ac:	481f      	ldr	r0, [pc, #124]	@ (800252c <HAL_TIM_PeriodElapsedCallback+0x1ac>)
 80024ae:	2200      	movs	r2, #0
 80024b0:	f44f 4180 	mov.w	r1, #16384	@ 0x4000
 80024b4:	f000 fefe 	bl	80032b4 <HAL_GPIO_WritePin>
        if (step3) HAL_GPIO_WritePin(M3_STEP_GPIO_Port, M3_STEP_Pin, GPIO_PIN_RESET);
 80024b8:	b364      	cbz	r4, 8002514 <HAL_TIM_PeriodElapsedCallback+0x194>
}
 80024ba:	e8bd 40f8 	ldmia.w	sp!, {r3, r4, r5, r6, r7, lr}
        if (step3) HAL_GPIO_WritePin(M3_STEP_GPIO_Port, M3_STEP_Pin, GPIO_PIN_RESET);
 80024be:	4819      	ldr	r0, [pc, #100]	@ (8002524 <HAL_TIM_PeriodElapsedCallback+0x1a4>)
 80024c0:	2200      	movs	r2, #0
 80024c2:	f44f 7180 	mov.w	r1, #256	@ 0x100
 80024c6:	f000 bef5 	b.w	80032b4 <HAL_GPIO_WritePin>
                    m1_accumulator -= TIMER_FREQ_HZ;
 80024ca:	6823      	ldr	r3, [r4, #0]
 80024cc:	f46f 70c2 	mvn.w	r0, #388	@ 0x184
 80024d0:	f5a3 3388 	sub.w	r3, r3, #69632	@ 0x11000
 80024d4:	4403      	add	r3, r0
 80024d6:	6023      	str	r3, [r4, #0]
                    step1 = 1;
 80024d8:	2501      	movs	r5, #1
 80024da:	e780      	b.n	80023de <HAL_TIM_PeriodElapsedCallback+0x5e>
                m1_accumulator = 0;
 80024dc:	6023      	str	r3, [r4, #0]
 80024de:	e77d      	b.n	80023dc <HAL_TIM_PeriodElapsedCallback+0x5c>
                    m2_accumulator -= TIMER_FREQ_HZ;
 80024e0:	6823      	ldr	r3, [r4, #0]
 80024e2:	f46f 71c2 	mvn.w	r1, #388	@ 0x184
 80024e6:	f5a3 3388 	sub.w	r3, r3, #69632	@ 0x11000
 80024ea:	440b      	add	r3, r1
 80024ec:	6023      	str	r3, [r4, #0]
                    step2 = 1;
 80024ee:	2601      	movs	r6, #1
 80024f0:	e796      	b.n	8002420 <HAL_TIM_PeriodElapsedCallback+0xa0>
                m2_accumulator = 0;
 80024f2:	6023      	str	r3, [r4, #0]
 80024f4:	e793      	b.n	800241e <HAL_TIM_PeriodElapsedCallback+0x9e>
                    m3_accumulator -= TIMER_FREQ_HZ;
 80024f6:	6823      	ldr	r3, [r4, #0]
 80024f8:	f46f 72c2 	mvn.w	r2, #388	@ 0x184
 80024fc:	f5a3 3388 	sub.w	r3, r3, #69632	@ 0x11000
 8002500:	4413      	add	r3, r2
 8002502:	6023      	str	r3, [r4, #0]
                    step3 = 1;
 8002504:	2401      	movs	r4, #1
 8002506:	e7ac      	b.n	8002462 <HAL_TIM_PeriodElapsedCallback+0xe2>
                m3_accumulator = 0;
 8002508:	6023      	str	r3, [r4, #0]
 800250a:	e7a9      	b.n	8002460 <HAL_TIM_PeriodElapsedCallback+0xe0>
        if (step3) HAL_GPIO_WritePin(M3_STEP_GPIO_Port, M3_STEP_Pin, GPIO_PIN_SET);
 800250c:	2c00      	cmp	r4, #0
 800250e:	d1b8      	bne.n	8002482 <HAL_TIM_PeriodElapsedCallback+0x102>
        if (step1 || step2 || step3) {
 8002510:	2d00      	cmp	r5, #0
 8002512:	d1bc      	bne.n	800248e <HAL_TIM_PeriodElapsedCallback+0x10e>
}
 8002514:	bdf8      	pop	{r3, r4, r5, r6, r7, pc}
 8002516:	bf00      	nop
 8002518:	40014400 	.word	0x40014400
 800251c:	40014800 	.word	0x40014800
 8002520:	20001260 	.word	0x20001260
 8002524:	40020000 	.word	0x40020000
 8002528:	20001254 	.word	0x20001254
 800252c:	40020400 	.word	0x40020400
 8002530:	00011184 	.word	0x00011184
 8002534:	2000125c 	.word	0x2000125c
 8002538:	20001250 	.word	0x20001250
 800253c:	20001258 	.word	0x20001258
 8002540:	2000124c 	.word	0x2000124c
 8002544:	40020800 	.word	0x40020800
 8002548:	e0001000 	.word	0xe0001000

0800254c <Error_Handler>:
 800254c:	b672      	cpsid	i
  while (1)
 800254e:	e7fe      	b.n	800254e <Error_Handler+0x2>

08002550 <MPU6050_Init>:
 8002550:	e92d 47f0 	stmdb	sp!, {r4, r5, r6, r7, r8, r9, sl, lr}
 8002554:	b086      	sub	sp, #24
 8002556:	2401      	movs	r4, #1
 8002558:	f44f 687a 	mov.w	r8, #4000	@ 0xfa0
 800255c:	f10d 0716 	add.w	r7, sp, #22
 8002560:	4623      	mov	r3, r4
 8002562:	e9cd 4801 	strd	r4, r8, [sp, #4]
 8002566:	f04f 0900 	mov.w	r9, #0
 800256a:	9700      	str	r7, [sp, #0]
 800256c:	2275      	movs	r2, #117	@ 0x75
 800256e:	21d0      	movs	r1, #208	@ 0xd0
 8002570:	4605      	mov	r5, r0
 8002572:	f88d 9016 	strb.w	r9, [sp, #22]
 8002576:	f001 f9db 	bl	8003930 <HAL_I2C_Mem_Read>
 800257a:	f89d 3016 	ldrb.w	r3, [sp, #22]
 800257e:	4e31      	ldr	r6, [pc, #196]	@ (8002644 <MPU6050_Init+0xf4>)
 8002580:	2b68      	cmp	r3, #104	@ 0x68
 8002582:	d14a      	bne.n	800261a <MPU6050_Init+0xca>
 8002584:	23d0      	movs	r3, #208	@ 0xd0
 8002586:	8033      	strh	r3, [r6, #0]
 8002588:	2401      	movs	r4, #1
 800258a:	f44f 687a 	mov.w	r8, #4000	@ 0xfa0
 800258e:	e9cd 4801 	strd	r4, r8, [sp, #4]
 8002592:	f10d 0717 	add.w	r7, sp, #23
 8002596:	9700      	str	r7, [sp, #0]
 8002598:	8831      	ldrh	r1, [r6, #0]
 800259a:	4623      	mov	r3, r4
 800259c:	f04f 0900 	mov.w	r9, #0
 80025a0:	226b      	movs	r2, #107	@ 0x6b
 80025a2:	4628      	mov	r0, r5
 80025a4:	f88d 9017 	strb.w	r9, [sp, #23]
 80025a8:	f001 f932 	bl	8003810 <HAL_I2C_Mem_Write>
 80025ac:	200a      	movs	r0, #10
 80025ae:	f000 fb79 	bl	8002ca4 <HAL_Delay>
 80025b2:	e9cd 4801 	strd	r4, r8, [sp, #4]
 80025b6:	9700      	str	r7, [sp, #0]
 80025b8:	2304      	movs	r3, #4
 80025ba:	8831      	ldrh	r1, [r6, #0]
 80025bc:	f88d 3017 	strb.w	r3, [sp, #23]
 80025c0:	2219      	movs	r2, #25
 80025c2:	4623      	mov	r3, r4
 80025c4:	4628      	mov	r0, r5
 80025c6:	f001 f923 	bl	8003810 <HAL_I2C_Mem_Write>
 80025ca:	e9cd 4801 	strd	r4, r8, [sp, #4]
 80025ce:	9700      	str	r7, [sp, #0]
 80025d0:	2303      	movs	r3, #3
 80025d2:	8831      	ldrh	r1, [r6, #0]
 80025d4:	f88d 3017 	strb.w	r3, [sp, #23]
 80025d8:	221a      	movs	r2, #26
 80025da:	4623      	mov	r3, r4
 80025dc:	4628      	mov	r0, r5
 80025de:	f001 f917 	bl	8003810 <HAL_I2C_Mem_Write>
 80025e2:	e9cd 4801 	strd	r4, r8, [sp, #4]
 80025e6:	9700      	str	r7, [sp, #0]
 80025e8:	8831      	ldrh	r1, [r6, #0]
 80025ea:	f04f 0a18 	mov.w	sl, #24
 80025ee:	4623      	mov	r3, r4
 80025f0:	221c      	movs	r2, #28
 80025f2:	4628      	mov	r0, r5
 80025f4:	f88d a017 	strb.w	sl, [sp, #23]
 80025f8:	f001 f90a 	bl	8003810 <HAL_I2C_Mem_Write>
 80025fc:	e9cd 4801 	strd	r4, r8, [sp, #4]
 8002600:	9700      	str	r7, [sp, #0]
 8002602:	8831      	ldrh	r1, [r6, #0]
 8002604:	f88d a017 	strb.w	sl, [sp, #23]
 8002608:	4623      	mov	r3, r4
 800260a:	221b      	movs	r2, #27
 800260c:	4628      	mov	r0, r5
 800260e:	f001 f8ff 	bl	8003810 <HAL_I2C_Mem_Write>
 8002612:	4648      	mov	r0, r9
 8002614:	b006      	add	sp, #24
 8002616:	e8bd 87f0 	ldmia.w	sp!, {r4, r5, r6, r7, r8, r9, sl, pc}
 800261a:	4623      	mov	r3, r4
 800261c:	e9cd 4801 	strd	r4, r8, [sp, #4]
 8002620:	9700      	str	r7, [sp, #0]
 8002622:	2275      	movs	r2, #117	@ 0x75
 8002624:	21d2      	movs	r1, #210	@ 0xd2
 8002626:	4628      	mov	r0, r5
 8002628:	f88d 9016 	strb.w	r9, [sp, #22]
 800262c:	f001 f980 	bl	8003930 <HAL_I2C_Mem_Read>
 8002630:	f89d 3016 	ldrb.w	r3, [sp, #22]
 8002634:	2b68      	cmp	r3, #104	@ 0x68
 8002636:	d101      	bne.n	800263c <MPU6050_Init+0xec>
 8002638:	23d2      	movs	r3, #210	@ 0xd2
 800263a:	e7a4      	b.n	8002586 <MPU6050_Init+0x36>
 800263c:	200a      	movs	r0, #10
 800263e:	f000 fb31 	bl	8002ca4 <HAL_Delay>
 8002642:	e7a1      	b.n	8002588 <MPU6050_Init+0x38>
 8002644:	20000000 	.word	0x20000000

08002648 <MPU6050_Read_All>:
 8002648:	e92d 43f0 	stmdb	sp!, {r4, r5, r6, r7, r8, r9, lr}
 800264c:	ed2d 8b02 	vpush	{d8}
 8002650:	230e      	movs	r3, #14
 8002652:	b089      	sub	sp, #36	@ 0x24
 8002654:	f44f 627a 	mov.w	r2, #4000	@ 0xfa0
 8002658:	e9cd 3201 	strd	r3, r2, [sp, #4]
 800265c:	460c      	mov	r4, r1
 800265e:	ab04      	add	r3, sp, #16
 8002660:	493b      	ldr	r1, [pc, #236]	@ (8002750 <MPU6050_Read_All+0x108>)
 8002662:	9300      	str	r3, [sp, #0]
 8002664:	8809      	ldrh	r1, [r1, #0]
 8002666:	ed9f 8a3b 	vldr	s16, [pc, #236]	@ 8002754 <MPU6050_Read_All+0x10c>
 800266a:	2301      	movs	r3, #1
 800266c:	223b      	movs	r2, #59	@ 0x3b
 800266e:	f001 f95f 	bl	8003930 <HAL_I2C_Mem_Read>
 8002672:	f8bd 3010 	ldrh.w	r3, [sp, #16]
 8002676:	ba5b      	rev16	r3, r3
 8002678:	b21a      	sxth	r2, r3
 800267a:	8023      	strh	r3, [r4, #0]
 800267c:	f8bd 3012 	ldrh.w	r3, [sp, #18]
 8002680:	ba5b      	rev16	r3, r3
 8002682:	fa0f f983 	sxth.w	r9, r3
 8002686:	8063      	strh	r3, [r4, #2]
 8002688:	f8bd 3014 	ldrh.w	r3, [sp, #20]
 800268c:	ba5b      	rev16	r3, r3
 800268e:	fa0f f883 	sxth.w	r8, r3
 8002692:	80a3      	strh	r3, [r4, #4]
 8002694:	f8bd 3018 	ldrh.w	r3, [sp, #24]
 8002698:	ba5b      	rev16	r3, r3
 800269a:	ee07 2a90 	vmov	s15, r2
 800269e:	b21f      	sxth	r7, r3
 80026a0:	8423      	strh	r3, [r4, #32]
 80026a2:	f8bd 301a 	ldrh.w	r3, [sp, #26]
 80026a6:	eef8 7ae7 	vcvt.f32.s32	s15, s15
 80026aa:	ba5b      	rev16	r3, r3
 80026ac:	b21e      	sxth	r6, r3
 80026ae:	8463      	strh	r3, [r4, #34]	@ 0x22
 80026b0:	f8bd 301c 	ldrh.w	r3, [sp, #28]
 80026b4:	ee67 7a88 	vmul.f32	s15, s15, s16
 80026b8:	ba5b      	rev16	r3, r3
 80026ba:	84a3      	strh	r3, [r4, #36]	@ 0x24
 80026bc:	ee17 0a90 	vmov	r0, s15
 80026c0:	b21d      	sxth	r5, r3
 80026c2:	f7fd ff49 	bl	8000558 <__aeabi_f2d>
 80026c6:	ee07 9a90 	vmov	s15, r9
 80026ca:	eef8 7ae7 	vcvt.f32.s32	s15, s15
 80026ce:	e9c4 0102 	strd	r0, r1, [r4, #8]
 80026d2:	ee67 7a88 	vmul.f32	s15, s15, s16
 80026d6:	ee17 0a90 	vmov	r0, s15
 80026da:	f7fd ff3d 	bl	8000558 <__aeabi_f2d>
 80026de:	ee07 8a90 	vmov	s15, r8
 80026e2:	eef8 7ae7 	vcvt.f32.s32	s15, s15
 80026e6:	e9c4 0104 	strd	r0, r1, [r4, #16]
 80026ea:	ee67 7a88 	vmul.f32	s15, s15, s16
 80026ee:	ed9f 8a1a 	vldr	s16, [pc, #104]	@ 8002758 <MPU6050_Read_All+0x110>
 80026f2:	ee17 0a90 	vmov	r0, s15
 80026f6:	f7fd ff2f 	bl	8000558 <__aeabi_f2d>
 80026fa:	ee07 7a90 	vmov	s15, r7
 80026fe:	eef8 7ae7 	vcvt.f32.s32	s15, s15
 8002702:	e9c4 0106 	strd	r0, r1, [r4, #24]
 8002706:	eec7 7a88 	vdiv.f32	s15, s15, s16
 800270a:	ee17 0a90 	vmov	r0, s15
 800270e:	f7fd ff23 	bl	8000558 <__aeabi_f2d>
 8002712:	ee07 6a90 	vmov	s15, r6
 8002716:	eef8 7ae7 	vcvt.f32.s32	s15, s15
 800271a:	e9c4 010a 	strd	r0, r1, [r4, #40]	@ 0x28
 800271e:	eec7 7a88 	vdiv.f32	s15, s15, s16
 8002722:	ee17 0a90 	vmov	r0, s15
 8002726:	f7fd ff17 	bl	8000558 <__aeabi_f2d>
 800272a:	ee07 5a90 	vmov	s15, r5
 800272e:	eef8 7ae7 	vcvt.f32.s32	s15, s15
 8002732:	e9c4 010c 	strd	r0, r1, [r4, #48]	@ 0x30
 8002736:	eec7 7a88 	vdiv.f32	s15, s15, s16
 800273a:	ee17 0a90 	vmov	r0, s15
 800273e:	f7fd ff0b 	bl	8000558 <__aeabi_f2d>
 8002742:	e9c4 010e 	strd	r0, r1, [r4, #56]	@ 0x38
 8002746:	b009      	add	sp, #36	@ 0x24
 8002748:	ecbd 8b02 	vpop	{d8}
 800274c:	e8bd 83f0 	ldmia.w	sp!, {r4, r5, r6, r7, r8, r9, pc}
 8002750:	20000000 	.word	0x20000000
 8002754:	3a000000 	.word	0x3a000000
 8002758:	41833333 	.word	0x41833333

0800275c <HAL_MspInit>:
/* USER CODE END 0 */
/**
  * Initializes the Global MSP.
  */
void HAL_MspInit(void)
{
 800275c:	b082      	sub	sp, #8

  /* USER CODE BEGIN MspInit 0 */

  /* USER CODE END MspInit 0 */

  __HAL_RCC_SYSCFG_CLK_ENABLE();
 800275e:	4b0e      	ldr	r3, [pc, #56]	@ (8002798 <HAL_MspInit+0x3c>)
 8002760:	2200      	movs	r2, #0
 8002762:	9200      	str	r2, [sp, #0]
 8002764:	6c59      	ldr	r1, [r3, #68]	@ 0x44
 8002766:	f441 4180 	orr.w	r1, r1, #16384	@ 0x4000
 800276a:	6459      	str	r1, [r3, #68]	@ 0x44
 800276c:	6c59      	ldr	r1, [r3, #68]	@ 0x44
 800276e:	f401 4180 	and.w	r1, r1, #16384	@ 0x4000
 8002772:	9100      	str	r1, [sp, #0]
 8002774:	9900      	ldr	r1, [sp, #0]
  __HAL_RCC_PWR_CLK_ENABLE();
 8002776:	9201      	str	r2, [sp, #4]
 8002778:	6c19      	ldr	r1, [r3, #64]	@ 0x40
 800277a:	f041 5180 	orr.w	r1, r1, #268435456	@ 0x10000000
 800277e:	6419      	str	r1, [r3, #64]	@ 0x40
 8002780:	6c1b      	ldr	r3, [r3, #64]	@ 0x40
 8002782:	f003 5380 	and.w	r3, r3, #268435456	@ 0x10000000
 8002786:	9301      	str	r3, [sp, #4]
 8002788:	9b01      	ldr	r3, [sp, #4]

  /* System interrupt init*/
  /* PendSV_IRQn interrupt configuration */
  HAL_NVIC_SetPriority(PendSV_IRQn, 15, 0);
 800278a:	210f      	movs	r1, #15
 800278c:	f06f 0001 	mvn.w	r0, #1

  /* USER CODE BEGIN MspInit 1 */

  /* USER CODE END MspInit 1 */
}
 8002790:	b002      	add	sp, #8
  HAL_NVIC_SetPriority(PendSV_IRQn, 15, 0);
 8002792:	f000 baad 	b.w	8002cf0 <HAL_NVIC_SetPriority>
 8002796:	bf00      	nop
 8002798:	40023800 	.word	0x40023800

0800279c <HAL_I2C_MspInit>:
  * This function configures the hardware resources used in this example
  * @param hi2c: I2C handle pointer
  * @retval None
  */
void HAL_I2C_MspInit(I2C_HandleTypeDef* hi2c)
{
 800279c:	b530      	push	{r4, r5, lr}
 800279e:	4604      	mov	r4, r0
 80027a0:	b089      	sub	sp, #36	@ 0x24
  GPIO_InitTypeDef GPIO_InitStruct = {0};
 80027a2:	2214      	movs	r2, #20
 80027a4:	2100      	movs	r1, #0
 80027a6:	a803      	add	r0, sp, #12
 80027a8:	f007 fb79 	bl	8009e9e <memset>
  if(hi2c->Instance==I2C1)
 80027ac:	6822      	ldr	r2, [r4, #0]
 80027ae:	4b15      	ldr	r3, [pc, #84]	@ (8002804 <HAL_I2C_MspInit+0x68>)
 80027b0:	429a      	cmp	r2, r3
 80027b2:	d124      	bne.n	80027fe <HAL_I2C_MspInit+0x62>
  {
    /* USER CODE BEGIN I2C1_MspInit 0 */

    /* USER CODE END I2C1_MspInit 0 */

    __HAL_RCC_GPIOB_CLK_ENABLE();
 80027b4:	4c14      	ldr	r4, [pc, #80]	@ (8002808 <HAL_I2C_MspInit+0x6c>)
    GPIO_InitStruct.Pin = GPIO_PIN_8|GPIO_PIN_9;
    GPIO_InitStruct.Mode = GPIO_MODE_AF_OD;
    GPIO_InitStruct.Pull = GPIO_PULLUP;
    GPIO_InitStruct.Speed = GPIO_SPEED_FREQ_VERY_HIGH;
    GPIO_InitStruct.Alternate = GPIO_AF4_I2C1;
    HAL_GPIO_Init(GPIOB, &GPIO_InitStruct);
 80027b6:	4815      	ldr	r0, [pc, #84]	@ (800280c <HAL_I2C_MspInit+0x70>)
    __HAL_RCC_GPIOB_CLK_ENABLE();
 80027b8:	2500      	movs	r5, #0
 80027ba:	9501      	str	r5, [sp, #4]
 80027bc:	6b23      	ldr	r3, [r4, #48]	@ 0x30
 80027be:	f043 0302 	orr.w	r3, r3, #2
 80027c2:	6323      	str	r3, [r4, #48]	@ 0x30
 80027c4:	6b23      	ldr	r3, [r4, #48]	@ 0x30
 80027c6:	f003 0302 	and.w	r3, r3, #2
 80027ca:	9301      	str	r3, [sp, #4]
 80027cc:	9b01      	ldr	r3, [sp, #4]
    GPIO_InitStruct.Mode = GPIO_MODE_AF_OD;
 80027ce:	f44f 7240 	mov.w	r2, #768	@ 0x300
 80027d2:	2312      	movs	r3, #18
 80027d4:	e9cd 2303 	strd	r2, r3, [sp, #12]
    GPIO_InitStruct.Speed = GPIO_SPEED_FREQ_VERY_HIGH;
 80027d8:	2101      	movs	r1, #1
 80027da:	2303      	movs	r3, #3
 80027dc:	e9cd 1305 	strd	r1, r3, [sp, #20]
    GPIO_InitStruct.Alternate = GPIO_AF4_I2C1;
 80027e0:	2304      	movs	r3, #4
    HAL_GPIO_Init(GPIOB, &GPIO_InitStruct);
 80027e2:	a903      	add	r1, sp, #12
    GPIO_InitStruct.Alternate = GPIO_AF4_I2C1;
 80027e4:	9307      	str	r3, [sp, #28]
    HAL_GPIO_Init(GPIOB, &GPIO_InitStruct);
 80027e6:	f000 fc9f 	bl	8003128 <HAL_GPIO_Init>

    /* Peripheral clock enable */
    __HAL_RCC_I2C1_CLK_ENABLE();
 80027ea:	9502      	str	r5, [sp, #8]
 80027ec:	6c23      	ldr	r3, [r4, #64]	@ 0x40
 80027ee:	f443 1300 	orr.w	r3, r3, #2097152	@ 0x200000
 80027f2:	6423      	str	r3, [r4, #64]	@ 0x40
 80027f4:	6c23      	ldr	r3, [r4, #64]	@ 0x40
 80027f6:	f403 1300 	and.w	r3, r3, #2097152	@ 0x200000
 80027fa:	9302      	str	r3, [sp, #8]
 80027fc:	9b02      	ldr	r3, [sp, #8]

    /* USER CODE END I2C1_MspInit 1 */

  }

}
 80027fe:	b009      	add	sp, #36	@ 0x24
 8002800:	bd30      	pop	{r4, r5, pc}
 8002802:	bf00      	nop
 8002804:	40005400 	.word	0x40005400
 8002808:	40023800 	.word	0x40023800
 800280c:	40020400 	.word	0x40020400

08002810 <HAL_TIM_Encoder_MspInit>:
  * This function configures the hardware resources used in this example
  * @param htim_encoder: TIM_Encoder handle pointer
  * @retval None
  */
void HAL_TIM_Encoder_MspInit(TIM_HandleTypeDef* htim_encoder)
{
 8002810:	b510      	push	{r4, lr}
 8002812:	4604      	mov	r4, r0
 8002814:	b08c      	sub	sp, #48	@ 0x30
  GPIO_InitTypeDef GPIO_InitStruct = {0};
 8002816:	2214      	movs	r2, #20
 8002818:	2100      	movs	r1, #0
 800281a:	a807      	add	r0, sp, #28
 800281c:	f007 fb3f 	bl	8009e9e <memset>
  if(htim_encoder->Instance==TIM2)
 8002820:	6823      	ldr	r3, [r4, #0]
 8002822:	f1b3 4f80 	cmp.w	r3, #1073741824	@ 0x40000000
 8002826:	d124      	bne.n	8002872 <HAL_TIM_Encoder_MspInit+0x62>
  {
    /* USER CODE BEGIN TIM2_MspInit 0 */

    /* USER CODE END TIM2_MspInit 0 */
    /* Peripheral clock enable */
    __HAL_RCC_TIM2_CLK_ENABLE();
 8002828:	f503 330e 	add.w	r3, r3, #145408	@ 0x23800
 800282c:	2100      	movs	r1, #0
 800282e:	9101      	str	r1, [sp, #4]
 8002830:	6c1a      	ldr	r2, [r3, #64]	@ 0x40
 8002832:	f042 0201 	orr.w	r2, r2, #1
 8002836:	641a      	str	r2, [r3, #64]	@ 0x40
 8002838:	6c1a      	ldr	r2, [r3, #64]	@ 0x40
 800283a:	f002 0201 	and.w	r2, r2, #1
 800283e:	9201      	str	r2, [sp, #4]
 8002840:	9a01      	ldr	r2, [sp, #4]

    __HAL_RCC_GPIOA_CLK_ENABLE();
 8002842:	9102      	str	r1, [sp, #8]
 8002844:	6b1a      	ldr	r2, [r3, #48]	@ 0x30
 8002846:	f042 0201 	orr.w	r2, r2, #1
 800284a:	631a      	str	r2, [r3, #48]	@ 0x30
 800284c:	6b1b      	ldr	r3, [r3, #48]	@ 0x30
 800284e:	f003 0301 	and.w	r3, r3, #1
 8002852:	9302      	str	r3, [sp, #8]
    /**TIM2 GPIO Configuration
    PA0-WKUP     ------> TIM2_CH1
    PA1     ------> TIM2_CH2
    */
    GPIO_InitStruct.Pin = GPIO_PIN_0|GPIO_PIN_1;
    GPIO_InitStruct.Mode = GPIO_MODE_AF_PP;
 8002854:	2202      	movs	r2, #2
    __HAL_RCC_GPIOA_CLK_ENABLE();
 8002856:	9b02      	ldr	r3, [sp, #8]
    GPIO_InitStruct.Mode = GPIO_MODE_AF_PP;
 8002858:	2303      	movs	r3, #3
 800285a:	e9cd 3207 	strd	r3, r2, [sp, #28]
    GPIO_InitStruct.Pull = GPIO_PULLUP;
 800285e:	2301      	movs	r3, #1
    GPIO_InitStruct.Speed = GPIO_SPEED_FREQ_HIGH;
 8002860:	e9cd 3209 	strd	r3, r2, [sp, #36]	@ 0x24
    GPIO_InitStruct.Pin = GPIO_PIN_6|GPIO_PIN_7;
    GPIO_InitStruct.Mode = GPIO_MODE_AF_PP;
    GPIO_InitStruct.Pull = GPIO_PULLUP;
    GPIO_InitStruct.Speed = GPIO_SPEED_FREQ_HIGH;
    GPIO_InitStruct.Alternate = GPIO_AF2_TIM3;
    HAL_GPIO_Init(GPIOA, &GPIO_InitStruct);
 8002864:	4825      	ldr	r0, [pc, #148]	@ (80028fc <HAL_TIM_Encoder_MspInit+0xec>)
    GPIO_InitStruct.Alternate = GPIO_AF2_TIM3;
 8002866:	930b      	str	r3, [sp, #44]	@ 0x2c
    HAL_GPIO_Init(GPIOA, &GPIO_InitStruct);
 8002868:	a907      	add	r1, sp, #28
    GPIO_InitStruct.Pin = GPIO_PIN_6|GPIO_PIN_7;
    GPIO_InitStruct.Mode = GPIO_MODE_AF_PP;
    GPIO_InitStruct.Pull = GPIO_PULLUP;
    GPIO_InitStruct.Speed = GPIO_SPEED_FREQ_HIGH;
    GPIO_InitStruct.Alternate = GPIO_AF2_TIM4;
    HAL_GPIO_Init(GPIOB, &GPIO_InitStruct);
 800286a:	f000 fc5d 	bl	8003128 <HAL_GPIO_Init>
    /* USER CODE BEGIN TIM4_MspInit 1 */

    /* USER CODE END TIM4_MspInit 1 */
  }

}
 800286e:	b00c      	add	sp, #48	@ 0x30
 8002870:	bd10      	pop	{r4, pc}
  else if(htim_encoder->Instance==TIM3)
 8002872:	4a23      	ldr	r2, [pc, #140]	@ (8002900 <HAL_TIM_Encoder_MspInit+0xf0>)
 8002874:	4293      	cmp	r3, r2
 8002876:	d11d      	bne.n	80028b4 <HAL_TIM_Encoder_MspInit+0xa4>
    __HAL_RCC_TIM3_CLK_ENABLE();
 8002878:	4b22      	ldr	r3, [pc, #136]	@ (8002904 <HAL_TIM_Encoder_MspInit+0xf4>)
 800287a:	2100      	movs	r1, #0
 800287c:	9103      	str	r1, [sp, #12]
 800287e:	6c1a      	ldr	r2, [r3, #64]	@ 0x40
 8002880:	f042 0202 	orr.w	r2, r2, #2
 8002884:	641a      	str	r2, [r3, #64]	@ 0x40
 8002886:	6c1a      	ldr	r2, [r3, #64]	@ 0x40
 8002888:	f002 0202 	and.w	r2, r2, #2
 800288c:	9203      	str	r2, [sp, #12]
 800288e:	9a03      	ldr	r2, [sp, #12]
    __HAL_RCC_GPIOA_CLK_ENABLE();
 8002890:	9104      	str	r1, [sp, #16]
 8002892:	6b1a      	ldr	r2, [r3, #48]	@ 0x30
 8002894:	f042 0201 	orr.w	r2, r2, #1
 8002898:	631a      	str	r2, [r3, #48]	@ 0x30
 800289a:	6b1b      	ldr	r3, [r3, #48]	@ 0x30
 800289c:	f003 0301 	and.w	r3, r3, #1
 80028a0:	9304      	str	r3, [sp, #16]
 80028a2:	9b04      	ldr	r3, [sp, #16]
    GPIO_InitStruct.Mode = GPIO_MODE_AF_PP;
 80028a4:	21c0      	movs	r1, #192	@ 0xc0
 80028a6:	2302      	movs	r3, #2
    GPIO_InitStruct.Pull = GPIO_PULLUP;
 80028a8:	2201      	movs	r2, #1
    GPIO_InitStruct.Mode = GPIO_MODE_AF_PP;
 80028aa:	e9cd 1307 	strd	r1, r3, [sp, #28]
    GPIO_InitStruct.Speed = GPIO_SPEED_FREQ_HIGH;
 80028ae:	e9cd 2309 	strd	r2, r3, [sp, #36]	@ 0x24
 80028b2:	e7d7      	b.n	8002864 <HAL_TIM_Encoder_MspInit+0x54>
  else if(htim_encoder->Instance==TIM4)
 80028b4:	4a14      	ldr	r2, [pc, #80]	@ (8002908 <HAL_TIM_Encoder_MspInit+0xf8>)
 80028b6:	4293      	cmp	r3, r2
 80028b8:	d1d9      	bne.n	800286e <HAL_TIM_Encoder_MspInit+0x5e>
    __HAL_RCC_TIM4_CLK_ENABLE();
 80028ba:	4b12      	ldr	r3, [pc, #72]	@ (8002904 <HAL_TIM_Encoder_MspInit+0xf4>)
    HAL_GPIO_Init(GPIOB, &GPIO_InitStruct);
 80028bc:	4813      	ldr	r0, [pc, #76]	@ (800290c <HAL_TIM_Encoder_MspInit+0xfc>)
    __HAL_RCC_TIM4_CLK_ENABLE();
 80028be:	2100      	movs	r1, #0
 80028c0:	9105      	str	r1, [sp, #20]
 80028c2:	6c1a      	ldr	r2, [r3, #64]	@ 0x40
 80028c4:	f042 0204 	orr.w	r2, r2, #4
 80028c8:	641a      	str	r2, [r3, #64]	@ 0x40
 80028ca:	6c1a      	ldr	r2, [r3, #64]	@ 0x40
 80028cc:	f002 0204 	and.w	r2, r2, #4
 80028d0:	9205      	str	r2, [sp, #20]
 80028d2:	9a05      	ldr	r2, [sp, #20]
    __HAL_RCC_GPIOB_CLK_ENABLE();
 80028d4:	9106      	str	r1, [sp, #24]
 80028d6:	6b1a      	ldr	r2, [r3, #48]	@ 0x30
 80028d8:	f042 0202 	orr.w	r2, r2, #2
 80028dc:	631a      	str	r2, [r3, #48]	@ 0x30
 80028de:	6b1b      	ldr	r3, [r3, #48]	@ 0x30
 80028e0:	f003 0302 	and.w	r3, r3, #2
 80028e4:	9306      	str	r3, [sp, #24]
    GPIO_InitStruct.Mode = GPIO_MODE_AF_PP;
 80028e6:	22c0      	movs	r2, #192	@ 0xc0
    __HAL_RCC_GPIOB_CLK_ENABLE();
 80028e8:	9b06      	ldr	r3, [sp, #24]
    GPIO_InitStruct.Mode = GPIO_MODE_AF_PP;
 80028ea:	2302      	movs	r3, #2
 80028ec:	e9cd 2307 	strd	r2, r3, [sp, #28]
    GPIO_InitStruct.Pull = GPIO_PULLUP;
 80028f0:	2201      	movs	r2, #1
    GPIO_InitStruct.Speed = GPIO_SPEED_FREQ_HIGH;
 80028f2:	e9cd 2309 	strd	r2, r3, [sp, #36]	@ 0x24
    GPIO_InitStruct.Alternate = GPIO_AF2_TIM4;
 80028f6:	930b      	str	r3, [sp, #44]	@ 0x2c
    HAL_GPIO_Init(GPIOB, &GPIO_InitStruct);
 80028f8:	a907      	add	r1, sp, #28
 80028fa:	e7b6      	b.n	800286a <HAL_TIM_Encoder_MspInit+0x5a>
 80028fc:	40020000 	.word	0x40020000
 8002900:	40000400 	.word	0x40000400
 8002904:	40023800 	.word	0x40023800
 8002908:	40000800 	.word	0x40000800
 800290c:	40020400 	.word	0x40020400

08002910 <HAL_TIM_Base_MspInit>:
  * This function configures the hardware resources used in this example
  * @param htim_base: TIM_Base handle pointer
  * @retval None
  */
void HAL_TIM_Base_MspInit(TIM_HandleTypeDef* htim_base)
{
 8002910:	b507      	push	{r0, r1, r2, lr}
  if(htim_base->Instance==TIM11)
 8002912:	4b0f      	ldr	r3, [pc, #60]	@ (8002950 <HAL_TIM_Base_MspInit+0x40>)
 8002914:	6802      	ldr	r2, [r0, #0]
 8002916:	429a      	cmp	r2, r3
 8002918:	d116      	bne.n	8002948 <HAL_TIM_Base_MspInit+0x38>
  {
    /* USER CODE BEGIN TIM11_MspInit 0 */

    /* USER CODE END TIM11_MspInit 0 */
    /* Peripheral clock enable */
    __HAL_RCC_TIM11_CLK_ENABLE();
 800291a:	2200      	movs	r2, #0
 800291c:	f503 4370 	add.w	r3, r3, #61440	@ 0xf000
 8002920:	9201      	str	r2, [sp, #4]
 8002922:	6c59      	ldr	r1, [r3, #68]	@ 0x44
 8002924:	f441 2180 	orr.w	r1, r1, #262144	@ 0x40000
 8002928:	6459      	str	r1, [r3, #68]	@ 0x44
 800292a:	6c5b      	ldr	r3, [r3, #68]	@ 0x44
 800292c:	f403 2380 	and.w	r3, r3, #262144	@ 0x40000
 8002930:	9301      	str	r3, [sp, #4]
    /* TIM11 interrupt Init */
    HAL_NVIC_SetPriority(TIM1_TRG_COM_TIM11_IRQn, 1, 0);
 8002932:	2101      	movs	r1, #1
 8002934:	201a      	movs	r0, #26
    __HAL_RCC_TIM11_CLK_ENABLE();
 8002936:	9b01      	ldr	r3, [sp, #4]
    HAL_NVIC_SetPriority(TIM1_TRG_COM_TIM11_IRQn, 1, 0);
 8002938:	f000 f9da 	bl	8002cf0 <HAL_NVIC_SetPriority>
    HAL_NVIC_EnableIRQ(TIM1_TRG_COM_TIM11_IRQn);
 800293c:	201a      	movs	r0, #26

    /* USER CODE END TIM11_MspInit 1 */

  }

}
 800293e:	b003      	add	sp, #12
 8002940:	f85d eb04 	ldr.w	lr, [sp], #4
    HAL_NVIC_EnableIRQ(TIM1_TRG_COM_TIM11_IRQn);
 8002944:	f000 ba06 	b.w	8002d54 <HAL_NVIC_EnableIRQ>
}
 8002948:	b003      	add	sp, #12
 800294a:	f85d fb04 	ldr.w	pc, [sp], #4
 800294e:	bf00      	nop
 8002950:	40014800 	.word	0x40014800

08002954 <HAL_UART_MspInit>:
  * This function configures the hardware resources used in this example
  * @param huart: UART handle pointer
  * @retval None
  */
void HAL_UART_MspInit(UART_HandleTypeDef* huart)
{
 8002954:	b570      	push	{r4, r5, r6, lr}
 8002956:	4606      	mov	r6, r0
 8002958:	b088      	sub	sp, #32
  GPIO_InitTypeDef GPIO_InitStruct = {0};
 800295a:	2214      	movs	r2, #20
 800295c:	2100      	movs	r1, #0
 800295e:	a803      	add	r0, sp, #12
 8002960:	f007 fa9d 	bl	8009e9e <memset>
  if(huart->Instance==USART2)
 8002964:	6832      	ldr	r2, [r6, #0]
 8002966:	4b32      	ldr	r3, [pc, #200]	@ (8002a30 <HAL_UART_MspInit+0xdc>)
 8002968:	429a      	cmp	r2, r3
 800296a:	d15f      	bne.n	8002a2c <HAL_UART_MspInit+0xd8>
  {
    /* USER CODE BEGIN USART2_MspInit 0 */

    /* USER CODE END USART2_MspInit 0 */
    /* Peripheral clock enable */
    __HAL_RCC_USART2_CLK_ENABLE();
 800296c:	2500      	movs	r5, #0
 800296e:	f503 33fa 	add.w	r3, r3, #128000	@ 0x1f400
 8002972:	9501      	str	r5, [sp, #4]
 8002974:	6c1a      	ldr	r2, [r3, #64]	@ 0x40
 8002976:	f442 3200 	orr.w	r2, r2, #131072	@ 0x20000
 800297a:	641a      	str	r2, [r3, #64]	@ 0x40
 800297c:	6c1a      	ldr	r2, [r3, #64]	@ 0x40
 800297e:	f402 3200 	and.w	r2, r2, #131072	@ 0x20000
 8002982:	9201      	str	r2, [sp, #4]
 8002984:	9a01      	ldr	r2, [sp, #4]

    __HAL_RCC_GPIOA_CLK_ENABLE();
 8002986:	9502      	str	r5, [sp, #8]
 8002988:	6b1a      	ldr	r2, [r3, #48]	@ 0x30
 800298a:	f042 0201 	orr.w	r2, r2, #1
 800298e:	631a      	str	r2, [r3, #48]	@ 0x30
 8002990:	6b1b      	ldr	r3, [r3, #48]	@ 0x30
 8002992:	f003 0301 	and.w	r3, r3, #1
 8002996:	9302      	str	r3, [sp, #8]
 8002998:	9b02      	ldr	r3, [sp, #8]
    /**USART2 GPIO Configuration
    PA2     ------> USART2_TX
    PA3     ------> USART2_RX
    */
    GPIO_InitStruct.Pin = GPIO_PIN_2|GPIO_PIN_3;
    GPIO_InitStruct.Mode = GPIO_MODE_AF_PP;
 800299a:	200c      	movs	r0, #12
 800299c:	2302      	movs	r3, #2
 800299e:	e9cd 0303 	strd	r0, r3, [sp, #12]
    GPIO_InitStruct.Pull = GPIO_NOPULL;
    GPIO_InitStruct.Speed = GPIO_SPEED_FREQ_VERY_HIGH;
    GPIO_InitStruct.Alternate = GPIO_AF7_USART2;
 80029a2:	2403      	movs	r4, #3
 80029a4:	2307      	movs	r3, #7
    HAL_GPIO_Init(GPIOA, &GPIO_InitStruct);
 80029a6:	4823      	ldr	r0, [pc, #140]	@ (8002a34 <HAL_UART_MspInit+0xe0>)
 80029a8:	a903      	add	r1, sp, #12
    GPIO_InitStruct.Alternate = GPIO_AF7_USART2;
 80029aa:	e9cd 4306 	strd	r4, r3, [sp, #24]
    HAL_GPIO_Init(GPIOA, &GPIO_InitStruct);
 80029ae:	f000 fbbb 	bl	8003128 <HAL_GPIO_Init>

    /* USART2 DMA Init */
    /* USART2_RX Init */
    hdma_usart2_rx.Instance = DMA1_Stream5;
 80029b2:	4c21      	ldr	r4, [pc, #132]	@ (8002a38 <HAL_UART_MspInit+0xe4>)
    hdma_usart2_rx.Init.Channel = DMA_CHANNEL_4;
 80029b4:	f8df c08c 	ldr.w	ip, [pc, #140]	@ 8002a44 <HAL_UART_MspInit+0xf0>
    hdma_usart2_rx.Init.Direction = DMA_PERIPH_TO_MEMORY;
    hdma_usart2_rx.Init.PeriphInc = DMA_PINC_DISABLE;
    hdma_usart2_rx.Init.MemInc = DMA_MINC_ENABLE;
    hdma_usart2_rx.Init.PeriphDataAlignment = DMA_PDATAALIGN_BYTE;
    hdma_usart2_rx.Init.MemDataAlignment = DMA_MDATAALIGN_BYTE;
 80029b8:	61a5      	str	r5, [r4, #24]
    hdma_usart2_rx.Init.Channel = DMA_CHANNEL_4;
 80029ba:	f04f 6300 	mov.w	r3, #134217728	@ 0x8000000
 80029be:	e9c4 c300 	strd	ip, r3, [r4]
    hdma_usart2_rx.Init.MemInc = DMA_MINC_ENABLE;
 80029c2:	f44f 6380 	mov.w	r3, #1024	@ 0x400
    hdma_usart2_rx.Init.PeriphDataAlignment = DMA_PDATAALIGN_BYTE;
 80029c6:	e9c4 3504 	strd	r3, r5, [r4, #16]
    hdma_usart2_rx.Init.Mode = DMA_CIRCULAR;
    hdma_usart2_rx.Init.Priority = DMA_PRIORITY_LOW;
    hdma_usart2_rx.Init.FIFOMode = DMA_FIFOMODE_DISABLE;
    if (HAL_DMA_Init(&hdma_usart2_rx) != HAL_OK)
 80029ca:	4620      	mov	r0, r4
    hdma_usart2_rx.Init.Mode = DMA_CIRCULAR;
 80029cc:	f44f 7380 	mov.w	r3, #256	@ 0x100
    hdma_usart2_rx.Init.PeriphInc = DMA_PINC_DISABLE;
 80029d0:	e9c4 5502 	strd	r5, r5, [r4, #8]
    hdma_usart2_rx.Init.Priority = DMA_PRIORITY_LOW;
 80029d4:	e9c4 3507 	strd	r3, r5, [r4, #28]
    hdma_usart2_rx.Init.FIFOMode = DMA_FIFOMODE_DISABLE;
 80029d8:	6265      	str	r5, [r4, #36]	@ 0x24
    if (HAL_DMA_Init(&hdma_usart2_rx) != HAL_OK)
 80029da:	f000 f9df 	bl	8002d9c <HAL_DMA_Init>
 80029de:	b108      	cbz	r0, 80029e4 <HAL_UART_MspInit+0x90>
    {
      Error_Handler();
 80029e0:	f7ff fdb4 	bl	800254c <Error_Handler>

    __HAL_LINKDMA(huart,hdmarx,hdma_usart2_rx);

    /* USART2_TX Init */
    hdma_usart2_tx.Instance = DMA1_Stream6;
    hdma_usart2_tx.Init.Channel = DMA_CHANNEL_4;
 80029e4:	4a15      	ldr	r2, [pc, #84]	@ (8002a3c <HAL_UART_MspInit+0xe8>)
    __HAL_LINKDMA(huart,hdmarx,hdma_usart2_rx);
 80029e6:	63f4      	str	r4, [r6, #60]	@ 0x3c
 80029e8:	63a6      	str	r6, [r4, #56]	@ 0x38
    hdma_usart2_tx.Instance = DMA1_Stream6;
 80029ea:	4c15      	ldr	r4, [pc, #84]	@ (8002a40 <HAL_UART_MspInit+0xec>)
    hdma_usart2_tx.Init.Channel = DMA_CHANNEL_4;
 80029ec:	f04f 6300 	mov.w	r3, #134217728	@ 0x8000000
 80029f0:	e9c4 2300 	strd	r2, r3, [r4]
    hdma_usart2_tx.Init.Direction = DMA_MEMORY_TO_PERIPH;
    hdma_usart2_tx.Init.PeriphInc = DMA_PINC_DISABLE;
 80029f4:	2140      	movs	r1, #64	@ 0x40
 80029f6:	2300      	movs	r3, #0
    hdma_usart2_tx.Init.MemInc = DMA_MINC_ENABLE;
 80029f8:	f44f 6280 	mov.w	r2, #1024	@ 0x400
    hdma_usart2_tx.Init.PeriphDataAlignment = DMA_PDATAALIGN_BYTE;
    hdma_usart2_tx.Init.MemDataAlignment = DMA_MDATAALIGN_BYTE;
    hdma_usart2_tx.Init.Mode = DMA_NORMAL;
    hdma_usart2_tx.Init.Priority = DMA_PRIORITY_LOW;
    hdma_usart2_tx.Init.FIFOMode = DMA_FIFOMODE_DISABLE;
    if (HAL_DMA_Init(&hdma_usart2_tx) != HAL_OK)
 80029fc:	4620      	mov	r0, r4
    hdma_usart2_tx.Init.PeriphInc = DMA_PINC_DISABLE;
 80029fe:	e9c4 1302 	strd	r1, r3, [r4, #8]
    hdma_usart2_tx.Init.PeriphDataAlignment = DMA_PDATAALIGN_BYTE;
 8002a02:	e9c4 2304 	strd	r2, r3, [r4, #16]
    hdma_usart2_tx.Init.Mode = DMA_NORMAL;
 8002a06:	e9c4 3306 	strd	r3, r3, [r4, #24]
    hdma_usart2_tx.Init.FIFOMode = DMA_FIFOMODE_DISABLE;
 8002a0a:	e9c4 3308 	strd	r3, r3, [r4, #32]
    if (HAL_DMA_Init(&hdma_usart2_tx) != HAL_OK)
 8002a0e:	f000 f9c5 	bl	8002d9c <HAL_DMA_Init>
 8002a12:	b108      	cbz	r0, 8002a18 <HAL_UART_MspInit+0xc4>
    {
      Error_Handler();
 8002a14:	f7ff fd9a 	bl	800254c <Error_Handler>
    }

    __HAL_LINKDMA(huart,hdmatx,hdma_usart2_tx);
 8002a18:	63b4      	str	r4, [r6, #56]	@ 0x38

    /* USART2 interrupt Init */
    HAL_NVIC_SetPriority(USART2_IRQn, 5, 0);
 8002a1a:	2026      	movs	r0, #38	@ 0x26
 8002a1c:	2200      	movs	r2, #0
 8002a1e:	2105      	movs	r1, #5
    __HAL_LINKDMA(huart,hdmatx,hdma_usart2_tx);
 8002a20:	63a6      	str	r6, [r4, #56]	@ 0x38
    HAL_NVIC_SetPriority(USART2_IRQn, 5, 0);
 8002a22:	f000 f965 	bl	8002cf0 <HAL_NVIC_SetPriority>
    HAL_NVIC_EnableIRQ(USART2_IRQn);
 8002a26:	2026      	movs	r0, #38	@ 0x26
 8002a28:	f000 f994 	bl	8002d54 <HAL_NVIC_EnableIRQ>

    /* USER CODE END USART2_MspInit 1 */

  }

}
 8002a2c:	b008      	add	sp, #32
 8002a2e:	bd70      	pop	{r4, r5, r6, pc}
 8002a30:	40004400 	.word	0x40004400
 8002a34:	40020000 	.word	0x40020000
 8002a38:	200013d0 	.word	0x200013d0
 8002a3c:	400260a0 	.word	0x400260a0
 8002a40:	20001370 	.word	0x20001370
 8002a44:	40026088 	.word	0x40026088

08002a48 <HAL_InitTick>:
 8002a48:	b570      	push	{r4, r5, r6, lr}
 8002a4a:	b088      	sub	sp, #32
 8002a4c:	2400      	movs	r4, #0
 8002a4e:	4b1d      	ldr	r3, [pc, #116]	@ (8002ac4 <HAL_InitTick+0x7c>)
 8002a50:	9402      	str	r4, [sp, #8]
 8002a52:	6c5a      	ldr	r2, [r3, #68]	@ 0x44
 8002a54:	4d1c      	ldr	r5, [pc, #112]	@ (8002ac8 <HAL_InitTick+0x80>)
 8002a56:	f442 3200 	orr.w	r2, r2, #131072	@ 0x20000
 8002a5a:	645a      	str	r2, [r3, #68]	@ 0x44
 8002a5c:	6c5b      	ldr	r3, [r3, #68]	@ 0x44
 8002a5e:	f403 3300 	and.w	r3, r3, #131072	@ 0x20000
 8002a62:	a901      	add	r1, sp, #4
 8002a64:	9302      	str	r3, [sp, #8]
 8002a66:	4606      	mov	r6, r0
 8002a68:	a803      	add	r0, sp, #12
 8002a6a:	9b02      	ldr	r3, [sp, #8]
 8002a6c:	f002 f8f0 	bl	8004c50 <HAL_RCC_GetClockConfig>
 8002a70:	f002 f8de 	bl	8004c30 <HAL_RCC_GetPCLK2Freq>
 8002a74:	4b15      	ldr	r3, [pc, #84]	@ (8002acc <HAL_InitTick+0x84>)
 8002a76:	602b      	str	r3, [r5, #0]
 8002a78:	f240 33e7 	movw	r3, #999	@ 0x3e7
 8002a7c:	60eb      	str	r3, [r5, #12]
 8002a7e:	4b14      	ldr	r3, [pc, #80]	@ (8002ad0 <HAL_InitTick+0x88>)
 8002a80:	fbb0 f0f3 	udiv	r0, r0, r3
 8002a84:	3801      	subs	r0, #1
 8002a86:	6068      	str	r0, [r5, #4]
 8002a88:	4628      	mov	r0, r5
 8002a8a:	612c      	str	r4, [r5, #16]
 8002a8c:	60ac      	str	r4, [r5, #8]
 8002a8e:	61ac      	str	r4, [r5, #24]
 8002a90:	f002 fa60 	bl	8004f54 <HAL_TIM_Base_Init>
 8002a94:	4604      	mov	r4, r0
 8002a96:	b980      	cbnz	r0, 8002aba <HAL_InitTick+0x72>
 8002a98:	4628      	mov	r0, r5
 8002a9a:	f002 f8f7 	bl	8004c8c <HAL_TIM_Base_Start_IT>
 8002a9e:	4604      	mov	r4, r0
 8002aa0:	b958      	cbnz	r0, 8002aba <HAL_InitTick+0x72>
 8002aa2:	2019      	movs	r0, #25
 8002aa4:	f000 f956 	bl	8002d54 <HAL_NVIC_EnableIRQ>
 8002aa8:	2e0f      	cmp	r6, #15
 8002aaa:	d809      	bhi.n	8002ac0 <HAL_InitTick+0x78>
 8002aac:	4622      	mov	r2, r4
 8002aae:	4631      	mov	r1, r6
 8002ab0:	2019      	movs	r0, #25
 8002ab2:	f000 f91d 	bl	8002cf0 <HAL_NVIC_SetPriority>
 8002ab6:	4b07      	ldr	r3, [pc, #28]	@ (8002ad4 <HAL_InitTick+0x8c>)
 8002ab8:	601e      	str	r6, [r3, #0]
 8002aba:	4620      	mov	r0, r4
 8002abc:	b008      	add	sp, #32
 8002abe:	bd70      	pop	{r4, r5, r6, pc}
 8002ac0:	2401      	movs	r4, #1
 8002ac2:	e7fa      	b.n	8002aba <HAL_InitTick+0x72>
 8002ac4:	40023800 	.word	0x40023800
 8002ac8:	200015ec 	.word	0x200015ec
 8002acc:	40014400 	.word	0x40014400
 8002ad0:	000f4240 	.word	0x000f4240
 8002ad4:	2000000c 	.word	0x2000000c

08002ad8 <NMI_Handler>:
{
  /* USER CODE BEGIN NonMaskableInt_IRQn 0 */

  /* USER CODE END NonMaskableInt_IRQn 0 */
  /* USER CODE BEGIN NonMaskableInt_IRQn 1 */
   while (1)
 8002ad8:	e7fe      	b.n	8002ad8 <NMI_Handler>

08002ada <HardFault_Handler>:
void HardFault_Handler(void)
{
  /* USER CODE BEGIN HardFault_IRQn 0 */

  /* USER CODE END HardFault_IRQn 0 */
  while (1)
 8002ada:	e7fe      	b.n	8002ada <HardFault_Handler>

08002adc <MemManage_Handler>:
void MemManage_Handler(void)
{
  /* USER CODE BEGIN MemoryManagement_IRQn 0 */

  /* USER CODE END MemoryManagement_IRQn 0 */
  while (1)
 8002adc:	e7fe      	b.n	8002adc <MemManage_Handler>

08002ade <BusFault_Handler>:
void BusFault_Handler(void)
{
  /* USER CODE BEGIN BusFault_IRQn 0 */

  /* USER CODE END BusFault_IRQn 0 */
  while (1)
 8002ade:	e7fe      	b.n	8002ade <BusFault_Handler>

08002ae0 <UsageFault_Handler>:
void UsageFault_Handler(void)
{
  /* USER CODE BEGIN UsageFault_IRQn 0 */

  /* USER CODE END UsageFault_IRQn 0 */
  while (1)
 8002ae0:	e7fe      	b.n	8002ae0 <UsageFault_Handler>

08002ae2 <DebugMon_Handler>:

  /* USER CODE END DebugMonitor_IRQn 0 */
  /* USER CODE BEGIN DebugMonitor_IRQn 1 */

  /* USER CODE END DebugMonitor_IRQn 1 */
}
 8002ae2:	4770      	bx	lr

08002ae4 <DMA1_Stream5_IRQHandler>:
void DMA1_Stream5_IRQHandler(void)
{
  /* USER CODE BEGIN DMA1_Stream5_IRQn 0 */

  /* USER CODE END DMA1_Stream5_IRQn 0 */
  HAL_DMA_IRQHandler(&hdma_usart2_rx);
 8002ae4:	4801      	ldr	r0, [pc, #4]	@ (8002aec <DMA1_Stream5_IRQHandler+0x8>)
 8002ae6:	f000 ba61 	b.w	8002fac <HAL_DMA_IRQHandler>
 8002aea:	bf00      	nop
 8002aec:	200013d0 	.word	0x200013d0

08002af0 <DMA1_Stream6_IRQHandler>:
void DMA1_Stream6_IRQHandler(void)
{
  /* USER CODE BEGIN DMA1_Stream6_IRQn 0 */

  /* USER CODE END DMA1_Stream6_IRQn 0 */
  HAL_DMA_IRQHandler(&hdma_usart2_tx);
 8002af0:	4801      	ldr	r0, [pc, #4]	@ (8002af8 <DMA1_Stream6_IRQHandler+0x8>)
 8002af2:	f000 ba5b 	b.w	8002fac <HAL_DMA_IRQHandler>
 8002af6:	bf00      	nop
 8002af8:	20001370 	.word	0x20001370

08002afc <TIM1_UP_TIM10_IRQHandler>:
void TIM1_UP_TIM10_IRQHandler(void)
{
  /* USER CODE BEGIN TIM1_UP_TIM10_IRQn 0 */

  /* USER CODE END TIM1_UP_TIM10_IRQn 0 */
  HAL_TIM_IRQHandler(&htim10);
 8002afc:	4801      	ldr	r0, [pc, #4]	@ (8002b04 <TIM1_UP_TIM10_IRQHandler+0x8>)
 8002afe:	f002 b954 	b.w	8004daa <HAL_TIM_IRQHandler>
 8002b02:	bf00      	nop
 8002b04:	200015ec 	.word	0x200015ec

08002b08 <TIM1_TRG_COM_TIM11_IRQHandler>:
void TIM1_TRG_COM_TIM11_IRQHandler(void)
{
  /* USER CODE BEGIN TIM1_TRG_COM_TIM11_IRQn 0 */

  /* USER CODE END TIM1_TRG_COM_TIM11_IRQn 0 */
  HAL_TIM_IRQHandler(&htim11);
 8002b08:	4801      	ldr	r0, [pc, #4]	@ (8002b10 <TIM1_TRG_COM_TIM11_IRQHandler+0x8>)
 8002b0a:	f002 b94e 	b.w	8004daa <HAL_TIM_IRQHandler>
 8002b0e:	bf00      	nop
 8002b10:	20001478 	.word	0x20001478

08002b14 <USART2_IRQHandler>:

/**
  * @brief This function handles USART2 global interrupt.
  */
void USART2_IRQHandler(void)
{
 8002b14:	b508      	push	{r3, lr}
  /* USER CODE BEGIN USART2_IRQn 0 */

  /* USER CODE END USART2_IRQn 0 */
  HAL_UART_IRQHandler(&huart2);
 8002b16:	4803      	ldr	r0, [pc, #12]	@ (8002b24 <USART2_IRQHandler+0x10>)
 8002b18:	f002 fd32 	bl	8005580 <HAL_UART_IRQHandler>
  /* USER CODE BEGIN USART2_IRQn 1 */
  USART2_IRQHandler_Extension();

  /* USER CODE END USART2_IRQn 1 */
}
 8002b1c:	e8bd 4008 	ldmia.w	sp!, {r3, lr}
  USART2_IRQHandler_Extension();
 8002b20:	f7ff b890 	b.w	8001c44 <USART2_IRQHandler_Extension>
 8002b24:	20001430 	.word	0x20001430

08002b28 <OTG_FS_IRQHandler>:
void OTG_FS_IRQHandler(void)
{
  /* USER CODE BEGIN OTG_FS_IRQn 0 */

  /* USER CODE END OTG_FS_IRQn 0 */
  HAL_PCD_IRQHandler(&hpcd_USB_OTG_FS);
 8002b28:	4801      	ldr	r0, [pc, #4]	@ (8002b30 <OTG_FS_IRQHandler+0x8>)
 8002b2a:	f001 ba89 	b.w	8004040 <HAL_PCD_IRQHandler>
 8002b2e:	bf00      	nop
 8002b30:	20006a8c 	.word	0x20006a8c

08002b34 <_getpid>:
}

int _getpid(void)
{
  return 1;
}
 8002b34:	2001      	movs	r0, #1
 8002b36:	4770      	bx	lr

08002b38 <_kill>:

int _kill(int pid, int sig)
{
 8002b38:	b508      	push	{r3, lr}
  (void)pid;
  (void)sig;
  errno = EINVAL;
 8002b3a:	f007 fa61 	bl	800a000 <__errno>
 8002b3e:	2316      	movs	r3, #22
 8002b40:	6003      	str	r3, [r0, #0]
  return -1;
}
 8002b42:	f04f 30ff 	mov.w	r0, #4294967295
 8002b46:	bd08      	pop	{r3, pc}

08002b48 <_exit>:

void _exit (int status)
{
 8002b48:	b508      	push	{r3, lr}
  errno = EINVAL;
 8002b4a:	f007 fa59 	bl	800a000 <__errno>
 8002b4e:	2316      	movs	r3, #22
 8002b50:	6003      	str	r3, [r0, #0]
  _kill(status, -1);
  while (1) {}    /* Make sure we hang here */
 8002b52:	e7fe      	b.n	8002b52 <_exit+0xa>

08002b54 <_read>:
}

__attribute__((weak)) int _read(int file, char *ptr, int len)
{
 8002b54:	b570      	push	{r4, r5, r6, lr}
 8002b56:	460d      	mov	r5, r1
 8002b58:	4614      	mov	r4, r2
  (void)file;
  int DataIdx;

  for (DataIdx = 0; DataIdx < len; DataIdx++)
 8002b5a:	460e      	mov	r6, r1
 8002b5c:	1b73      	subs	r3, r6, r5
 8002b5e:	429c      	cmp	r4, r3
 8002b60:	dc01      	bgt.n	8002b66 <_read+0x12>
  {
    *ptr++ = __io_getchar();
  }

  return len;
}
 8002b62:	4620      	mov	r0, r4
 8002b64:	bd70      	pop	{r4, r5, r6, pc}
    *ptr++ = __io_getchar();
 8002b66:	f3af 8000 	nop.w
 8002b6a:	f806 0b01 	strb.w	r0, [r6], #1
  for (DataIdx = 0; DataIdx < len; DataIdx++)
 8002b6e:	e7f5      	b.n	8002b5c <_read+0x8>

08002b70 <_write>:

__attribute__((weak)) int _write(int file, char *ptr, int len)
{
 8002b70:	b570      	push	{r4, r5, r6, lr}
 8002b72:	460d      	mov	r5, r1
 8002b74:	4614      	mov	r4, r2
  (void)file;
  int DataIdx;

  for (DataIdx = 0; DataIdx < len; DataIdx++)
 8002b76:	460e      	mov	r6, r1
 8002b78:	1b73      	subs	r3, r6, r5
 8002b7a:	429c      	cmp	r4, r3
 8002b7c:	dc01      	bgt.n	8002b82 <_write+0x12>
  {
    __io_putchar(*ptr++);
  }
  return len;
}
 8002b7e:	4620      	mov	r0, r4
 8002b80:	bd70      	pop	{r4, r5, r6, pc}
    __io_putchar(*ptr++);
 8002b82:	f816 0b01 	ldrb.w	r0, [r6], #1
 8002b86:	f3af 8000 	nop.w
  for (DataIdx = 0; DataIdx < len; DataIdx++)
 8002b8a:	e7f5      	b.n	8002b78 <_write+0x8>

08002b8c <_close>:

int _close(int file)
{
  (void)file;
  return -1;
}
 8002b8c:	f04f 30ff 	mov.w	r0, #4294967295
 8002b90:	4770      	bx	lr

08002b92 <_fstat>:


int _fstat(int file, struct stat *st)
{
  (void)file;
  st->st_mode = S_IFCHR;
 8002b92:	f44f 5300 	mov.w	r3, #8192	@ 0x2000
 8002b96:	604b      	str	r3, [r1, #4]
  return 0;
}
 8002b98:	2000      	movs	r0, #0
 8002b9a:	4770      	bx	lr

08002b9c <_isatty>:

int _isatty(int file)
{
  (void)file;
  return 1;
}
 8002b9c:	2001      	movs	r0, #1
 8002b9e:	4770      	bx	lr

08002ba0 <_lseek>:
{
  (void)file;
  (void)ptr;
  (void)dir;
  return 0;
}
 8002ba0:	2000      	movs	r0, #0
 8002ba2:	4770      	bx	lr

08002ba4 <_sbrk>:
  const uint32_t stack_limit = (uint32_t)&_estack - (uint32_t)&_Min_Stack_Size;
  const uint8_t *max_heap = (uint8_t *)stack_limit;
  uint8_t *prev_heap_end;

  /* Initialize heap end at first call */
  if (NULL == __sbrk_heap_end)
 8002ba4:	4a0b      	ldr	r2, [pc, #44]	@ (8002bd4 <_sbrk+0x30>)
 8002ba6:	6811      	ldr	r1, [r2, #0]
{
 8002ba8:	b510      	push	{r4, lr}
 8002baa:	4603      	mov	r3, r0
  if (NULL == __sbrk_heap_end)
 8002bac:	b909      	cbnz	r1, 8002bb2 <_sbrk+0xe>
  {
    __sbrk_heap_end = &_end;
 8002bae:	490a      	ldr	r1, [pc, #40]	@ (8002bd8 <_sbrk+0x34>)
 8002bb0:	6011      	str	r1, [r2, #0]
  }

  /* Protect heap from growing into the reserved MSP stack */
  if (__sbrk_heap_end + incr > max_heap)
 8002bb2:	6810      	ldr	r0, [r2, #0]
 8002bb4:	4909      	ldr	r1, [pc, #36]	@ (8002bdc <_sbrk+0x38>)
 8002bb6:	4c0a      	ldr	r4, [pc, #40]	@ (8002be0 <_sbrk+0x3c>)
 8002bb8:	4403      	add	r3, r0
 8002bba:	1b09      	subs	r1, r1, r4
 8002bbc:	428b      	cmp	r3, r1
 8002bbe:	d906      	bls.n	8002bce <_sbrk+0x2a>
  {
    errno = ENOMEM;
 8002bc0:	f007 fa1e 	bl	800a000 <__errno>
 8002bc4:	230c      	movs	r3, #12
 8002bc6:	6003      	str	r3, [r0, #0]
    return (void *)-1;
 8002bc8:	f04f 30ff 	mov.w	r0, #4294967295

  prev_heap_end = __sbrk_heap_end;
  __sbrk_heap_end += incr;

  return (void *)prev_heap_end;
}
 8002bcc:	bd10      	pop	{r4, pc}
  __sbrk_heap_end += incr;
 8002bce:	6013      	str	r3, [r2, #0]
  return (void *)prev_heap_end;
 8002bd0:	e7fc      	b.n	8002bcc <_sbrk+0x28>
 8002bd2:	bf00      	nop
 8002bd4:	20001634 	.word	0x20001634
 8002bd8:	200070c0 	.word	0x200070c0
 8002bdc:	20020000 	.word	0x20020000
 8002be0:	00000400 	.word	0x00000400

08002be4 <SystemInit>:
 8002be4:	4a03      	ldr	r2, [pc, #12]	@ (8002bf4 <SystemInit+0x10>)
 8002be6:	f8d2 3088 	ldr.w	r3, [r2, #136]	@ 0x88
 8002bea:	f443 0370 	orr.w	r3, r3, #15728640	@ 0xf00000
 8002bee:	f8c2 3088 	str.w	r3, [r2, #136]	@ 0x88
 8002bf2:	4770      	bx	lr
 8002bf4:	e000ed00 	.word	0xe000ed00

08002bf8 <Reset_Handler>:

    .section  .text.Reset_Handler
  .weak  Reset_Handler
  .type  Reset_Handler, %function
Reset_Handler:  
  ldr   sp, =_estack    		 /* set stack pointer */
 8002bf8:	f8df d034 	ldr.w	sp, [pc, #52]	@ 8002c30 <LoopFillZerobss+0xe>

/* Call the clock system initialization function.*/
  bl  SystemInit   
 8002bfc:	f7ff fff2 	bl	8002be4 <SystemInit>

/* Copy the data segment initializers from flash to SRAM */  
  ldr r0, =_sdata
 8002c00:	480c      	ldr	r0, [pc, #48]	@ (8002c34 <LoopFillZerobss+0x12>)
  ldr r1, =_edata
 8002c02:	490d      	ldr	r1, [pc, #52]	@ (8002c38 <LoopFillZerobss+0x16>)
  ldr r2, =_sidata
 8002c04:	4a0d      	ldr	r2, [pc, #52]	@ (8002c3c <LoopFillZerobss+0x1a>)
  movs r3, #0
 8002c06:	2300      	movs	r3, #0
  b LoopCopyDataInit
 8002c08:	e002      	b.n	8002c10 <LoopCopyDataInit>

08002c0a <CopyDataInit>:

CopyDataInit:
  ldr r4, [r2, r3]
 8002c0a:	58d4      	ldr	r4, [r2, r3]
  str r4, [r0, r3]
 8002c0c:	50c4      	str	r4, [r0, r3]
  adds r3, r3, #4
 8002c0e:	3304      	adds	r3, #4

08002c10 <LoopCopyDataInit>:

LoopCopyDataInit:
  adds r4, r0, r3
 8002c10:	18c4      	adds	r4, r0, r3
  cmp r4, r1
 8002c12:	428c      	cmp	r4, r1
  bcc CopyDataInit
 8002c14:	d3f9      	bcc.n	8002c0a <CopyDataInit>
  
/* Zero fill the bss segment. */
  ldr r2, =_sbss
 8002c16:	4a0a      	ldr	r2, [pc, #40]	@ (8002c40 <LoopFillZerobss+0x1e>)
  ldr r4, =_ebss
 8002c18:	4c0a      	ldr	r4, [pc, #40]	@ (8002c44 <LoopFillZerobss+0x22>)
  movs r3, #0
 8002c1a:	2300      	movs	r3, #0
  b LoopFillZerobss
 8002c1c:	e001      	b.n	8002c22 <LoopFillZerobss>

08002c1e <FillZerobss>:

FillZerobss:
  str  r3, [r2]
 8002c1e:	6013      	str	r3, [r2, #0]
  adds r2, r2, #4
 8002c20:	3204      	adds	r2, #4

08002c22 <LoopFillZerobss>:

LoopFillZerobss:
  cmp r2, r4
 8002c22:	42a2      	cmp	r2, r4
  bcc FillZerobss
 8002c24:	d3fb      	bcc.n	8002c1e <FillZerobss>

/* Call static constructors */
    bl __libc_init_array
 8002c26:	f007 f9f1 	bl	800a00c <__libc_init_array>
/* Call the application's entry point.*/
  bl  main
 8002c2a:	f7fe fe01 	bl	8001830 <main>
  bx  lr    
 8002c2e:	4770      	bx	lr
  ldr   sp, =_estack    		 /* set stack pointer */
 8002c30:	20020000 	.word	0x20020000
  ldr r0, =_sdata
 8002c34:	20000000 	.word	0x20000000
  ldr r1, =_edata
 8002c38:	200002c8 	.word	0x200002c8
  ldr r2, =_sidata
 8002c3c:	0800ca0c 	.word	0x0800ca0c
  ldr r2, =_sbss
 8002c40:	200002c8 	.word	0x200002c8
  ldr r4, =_ebss
 8002c44:	200070bc 	.word	0x200070bc

08002c48 <ADC_IRQHandler>:
 * @retval None       
*/
    .section  .text.Default_Handler,"ax",%progbits
Default_Handler:
Infinite_Loop:
  b  Infinite_Loop
 8002c48:	e7fe      	b.n	8002c48 <ADC_IRQHandler>
	...

08002c4c <HAL_Init>:
  *         need to ensure that the SysTick time base is always set to 1 millisecond
  *         to have correct HAL operation.
  * @retval HAL status
  */
HAL_StatusTypeDef HAL_Init(void)
{
 8002c4c:	b508      	push	{r3, lr}
  /* Configure Flash prefetch, Instruction cache, Data cache */ 
#if (INSTRUCTION_CACHE_ENABLE != 0U)
  __HAL_FLASH_INSTRUCTION_CACHE_ENABLE();
 8002c4e:	4b0b      	ldr	r3, [pc, #44]	@ (8002c7c <HAL_Init+0x30>)
 8002c50:	681a      	ldr	r2, [r3, #0]
 8002c52:	f442 7200 	orr.w	r2, r2, #512	@ 0x200
 8002c56:	601a      	str	r2, [r3, #0]
#endif /* INSTRUCTION_CACHE_ENABLE */

#if (DATA_CACHE_ENABLE != 0U)
  __HAL_FLASH_DATA_CACHE_ENABLE();
 8002c58:	681a      	ldr	r2, [r3, #0]
 8002c5a:	f442 6280 	orr.w	r2, r2, #1024	@ 0x400
 8002c5e:	601a      	str	r2, [r3, #0]
#endif /* DATA_CACHE_ENABLE */

#if (PREFETCH_ENABLE != 0U)
  __HAL_FLASH_PREFETCH_BUFFER_ENABLE();
 8002c60:	681a      	ldr	r2, [r3, #0]
 8002c62:	f442 7280 	orr.w	r2, r2, #256	@ 0x100
 8002c66:	601a      	str	r2, [r3, #0]
#endif /* PREFETCH_ENABLE */

  /* Set Interrupt Group Priority */
  HAL_NVIC_SetPriorityGrouping(NVIC_PRIORITYGROUP_4);
 8002c68:	2003      	movs	r0, #3
 8002c6a:	f000 f82f 	bl	8002ccc <HAL_NVIC_SetPriorityGrouping>

  /* Use systick as time base source and configure 1ms tick (default clock after Reset is HSI) */
  HAL_InitTick(TICK_INT_PRIORITY);
 8002c6e:	200f      	movs	r0, #15
 8002c70:	f7ff feea 	bl	8002a48 <HAL_InitTick>

  /* Init the low level hardware */
  HAL_MspInit();
 8002c74:	f7ff fd72 	bl	800275c <HAL_MspInit>

  /* Return function status */
  return HAL_OK;
}
 8002c78:	2000      	movs	r0, #0
 8002c7a:	bd08      	pop	{r3, pc}
 8002c7c:	40023c00 	.word	0x40023c00

08002c80 <HAL_IncTick>:
  *      implementations in user file.
  * @retval None
  */
__weak void HAL_IncTick(void)
{
  uwTick += uwTickFreq;
 8002c80:	4a03      	ldr	r2, [pc, #12]	@ (8002c90 <HAL_IncTick+0x10>)
 8002c82:	4b04      	ldr	r3, [pc, #16]	@ (8002c94 <HAL_IncTick+0x14>)
 8002c84:	6811      	ldr	r1, [r2, #0]
 8002c86:	781b      	ldrb	r3, [r3, #0]
 8002c88:	440b      	add	r3, r1
 8002c8a:	6013      	str	r3, [r2, #0]
}
 8002c8c:	4770      	bx	lr
 8002c8e:	bf00      	nop
 8002c90:	20001638 	.word	0x20001638
 8002c94:	20000008 	.word	0x20000008

08002c98 <HAL_GetTick>:
  *       implementations in user file.
  * @retval tick value
  */
__weak uint32_t HAL_GetTick(void)
{
  return uwTick;
 8002c98:	4b01      	ldr	r3, [pc, #4]	@ (8002ca0 <HAL_GetTick+0x8>)
 8002c9a:	6818      	ldr	r0, [r3, #0]
}
 8002c9c:	4770      	bx	lr
 8002c9e:	bf00      	nop
 8002ca0:	20001638 	.word	0x20001638

08002ca4 <HAL_Delay>:
  *       implementations in user file.
  * @param Delay specifies the delay time length, in milliseconds.
  * @retval None
  */
__weak void HAL_Delay(uint32_t Delay)
{
 8002ca4:	b538      	push	{r3, r4, r5, lr}
 8002ca6:	4604      	mov	r4, r0
  uint32_t tickstart = HAL_GetTick();
 8002ca8:	f7ff fff6 	bl	8002c98 <HAL_GetTick>
  uint32_t wait = Delay;

  /* Add a freq to guarantee minimum wait */
  if (wait < HAL_MAX_DELAY)
 8002cac:	1c63      	adds	r3, r4, #1
  {
    wait += (uint32_t)(uwTickFreq);
 8002cae:	bf1c      	itt	ne
 8002cb0:	4b05      	ldrne	r3, [pc, #20]	@ (8002cc8 <HAL_Delay+0x24>)
 8002cb2:	781b      	ldrbne	r3, [r3, #0]
  uint32_t tickstart = HAL_GetTick();
 8002cb4:	4605      	mov	r5, r0
    wait += (uint32_t)(uwTickFreq);
 8002cb6:	bf18      	it	ne
 8002cb8:	18e4      	addne	r4, r4, r3
  }

  while((HAL_GetTick() - tickstart) < wait)
 8002cba:	f7ff ffed 	bl	8002c98 <HAL_GetTick>
 8002cbe:	1b43      	subs	r3, r0, r5
 8002cc0:	42a3      	cmp	r3, r4
 8002cc2:	d3fa      	bcc.n	8002cba <HAL_Delay+0x16>
  {
  }
}
 8002cc4:	bd38      	pop	{r3, r4, r5, pc}
 8002cc6:	bf00      	nop
 8002cc8:	20000008 	.word	0x20000008

08002ccc <HAL_NVIC_SetPriorityGrouping>:
__STATIC_INLINE void __NVIC_SetPriorityGrouping(uint32_t PriorityGroup)
{
  uint32_t reg_value;
  uint32_t PriorityGroupTmp = (PriorityGroup & (uint32_t)0x07UL);             /* only values 0..7 are used          */

  reg_value  =  SCB->AIRCR;                                                   /* read old register configuration    */
 8002ccc:	4907      	ldr	r1, [pc, #28]	@ (8002cec <HAL_NVIC_SetPriorityGrouping+0x20>)
 8002cce:	68ca      	ldr	r2, [r1, #12]
  reg_value &= ~((uint32_t)(SCB_AIRCR_VECTKEY_Msk | SCB_AIRCR_PRIGROUP_Msk)); /* clear bits to change               */
 8002cd0:	f422 62e0 	bic.w	r2, r2, #1792	@ 0x700
  reg_value  =  (reg_value                                   |
                ((uint32_t)0x5FAUL << SCB_AIRCR_VECTKEY_Pos) |
                (PriorityGroupTmp << SCB_AIRCR_PRIGROUP_Pos)  );              /* Insert write key and priority group */
 8002cd4:	0203      	lsls	r3, r0, #8
  reg_value &= ~((uint32_t)(SCB_AIRCR_VECTKEY_Msk | SCB_AIRCR_PRIGROUP_Msk)); /* clear bits to change               */
 8002cd6:	0412      	lsls	r2, r2, #16
                (PriorityGroupTmp << SCB_AIRCR_PRIGROUP_Pos)  );              /* Insert write key and priority group */
 8002cd8:	f403 63e0 	and.w	r3, r3, #1792	@ 0x700
  reg_value &= ~((uint32_t)(SCB_AIRCR_VECTKEY_Msk | SCB_AIRCR_PRIGROUP_Msk)); /* clear bits to change               */
 8002cdc:	0c12      	lsrs	r2, r2, #16
                ((uint32_t)0x5FAUL << SCB_AIRCR_VECTKEY_Pos) |
 8002cde:	4313      	orrs	r3, r2
  reg_value  =  (reg_value                                   |
 8002ce0:	f043 63bf 	orr.w	r3, r3, #100139008	@ 0x5f80000
 8002ce4:	f443 3300 	orr.w	r3, r3, #131072	@ 0x20000
  SCB->AIRCR =  reg_value;
 8002ce8:	60cb      	str	r3, [r1, #12]
  /* Check the parameters */
  assert_param(IS_NVIC_PRIORITY_GROUP(PriorityGroup));
  
  /* Set the PRIGROUP[10:8] bits according to the PriorityGroup parameter value */
  NVIC_SetPriorityGrouping(PriorityGroup);
}
 8002cea:	4770      	bx	lr
 8002cec:	e000ed00 	.word	0xe000ed00

08002cf0 <HAL_NVIC_SetPriority>:
  \details Reads the priority grouping field from the NVIC Interrupt Controller.
  \return                Priority grouping field (SCB->AIRCR [10:8] PRIGROUP field).
 */
__STATIC_INLINE uint32_t __NVIC_GetPriorityGrouping(void)
{
  return ((uint32_t)((SCB->AIRCR & SCB_AIRCR_PRIGROUP_Msk) >> SCB_AIRCR_PRIGROUP_Pos));
 8002cf0:	4b16      	ldr	r3, [pc, #88]	@ (8002d4c <HAL_NVIC_SetPriority+0x5c>)
  *         This parameter can be a value between 0 and 15
  *         A lower priority value indicates a higher priority.          
  * @retval None
  */
void HAL_NVIC_SetPriority(IRQn_Type IRQn, uint32_t PreemptPriority, uint32_t SubPriority)
{ 
 8002cf2:	b530      	push	{r4, r5, lr}
 8002cf4:	68dc      	ldr	r4, [r3, #12]
 8002cf6:	f3c4 2402 	ubfx	r4, r4, #8, #3
{
  uint32_t PriorityGroupTmp = (PriorityGroup & (uint32_t)0x07UL);   /* only values 0..7 are used          */
  uint32_t PreemptPriorityBits;
  uint32_t SubPriorityBits;

  PreemptPriorityBits = ((7UL - PriorityGroupTmp) > (uint32_t)(__NVIC_PRIO_BITS)) ? (uint32_t)(__NVIC_PRIO_BITS) : (uint32_t)(7UL - PriorityGroupTmp);
 8002cfa:	f1c4 0307 	rsb	r3, r4, #7
  SubPriorityBits     = ((PriorityGroupTmp + (uint32_t)(__NVIC_PRIO_BITS)) < (uint32_t)7UL) ? (uint32_t)0UL : (uint32_t)((PriorityGroupTmp - 7UL) + (uint32_t)(__NVIC_PRIO_BITS));
 8002cfe:	1d25      	adds	r5, r4, #4
  PreemptPriorityBits = ((7UL - PriorityGroupTmp) > (uint32_t)(__NVIC_PRIO_BITS)) ? (uint32_t)(__NVIC_PRIO_BITS) : (uint32_t)(7UL - PriorityGroupTmp);
 8002d00:	2b04      	cmp	r3, #4
 8002d02:	bf28      	it	cs
 8002d04:	2304      	movcs	r3, #4
  SubPriorityBits     = ((PriorityGroupTmp + (uint32_t)(__NVIC_PRIO_BITS)) < (uint32_t)7UL) ? (uint32_t)0UL : (uint32_t)((PriorityGroupTmp - 7UL) + (uint32_t)(__NVIC_PRIO_BITS));
 8002d06:	2d06      	cmp	r5, #6

  return (
           ((PreemptPriority & (uint32_t)((1UL << (PreemptPriorityBits)) - 1UL)) << SubPriorityBits) |
 8002d08:	f04f 35ff 	mov.w	r5, #4294967295
  SubPriorityBits     = ((PriorityGroupTmp + (uint32_t)(__NVIC_PRIO_BITS)) < (uint32_t)7UL) ? (uint32_t)0UL : (uint32_t)((PriorityGroupTmp - 7UL) + (uint32_t)(__NVIC_PRIO_BITS));
 8002d0c:	bf8c      	ite	hi
 8002d0e:	3c03      	subhi	r4, #3
 8002d10:	2400      	movls	r4, #0
           ((PreemptPriority & (uint32_t)((1UL << (PreemptPriorityBits)) - 1UL)) << SubPriorityBits) |
 8002d12:	fa05 f303 	lsl.w	r3, r5, r3
 8002d16:	ea21 0303 	bic.w	r3, r1, r3
           ((SubPriority     & (uint32_t)((1UL << (SubPriorityBits    )) - 1UL)))
 8002d1a:	40a5      	lsls	r5, r4
 8002d1c:	ea22 0205 	bic.w	r2, r2, r5
           ((PreemptPriority & (uint32_t)((1UL << (PreemptPriorityBits)) - 1UL)) << SubPriorityBits) |
 8002d20:	40a3      	lsls	r3, r4
  if ((int32_t)(IRQn) >= 0)
 8002d22:	2800      	cmp	r0, #0
           ((PreemptPriority & (uint32_t)((1UL << (PreemptPriorityBits)) - 1UL)) << SubPriorityBits) |
 8002d24:	ea43 0302 	orr.w	r3, r3, r2
    NVIC->IP[((uint32_t)IRQn)]               = (uint8_t)((priority << (8U - __NVIC_PRIO_BITS)) & (uint32_t)0xFFUL);
 8002d28:	bfac      	ite	ge
 8002d2a:	f100 4060 	addge.w	r0, r0, #3758096384	@ 0xe0000000
    SCB->SHP[(((uint32_t)IRQn) & 0xFUL)-4UL] = (uint8_t)((priority << (8U - __NVIC_PRIO_BITS)) & (uint32_t)0xFFUL);
 8002d2e:	4a08      	ldrlt	r2, [pc, #32]	@ (8002d50 <HAL_NVIC_SetPriority+0x60>)
    NVIC->IP[((uint32_t)IRQn)]               = (uint8_t)((priority << (8U - __NVIC_PRIO_BITS)) & (uint32_t)0xFFUL);
 8002d30:	ea4f 1303 	mov.w	r3, r3, lsl #4
    SCB->SHP[(((uint32_t)IRQn) & 0xFUL)-4UL] = (uint8_t)((priority << (8U - __NVIC_PRIO_BITS)) & (uint32_t)0xFFUL);
 8002d34:	bfb8      	it	lt
 8002d36:	f000 000f 	andlt.w	r0, r0, #15
    NVIC->IP[((uint32_t)IRQn)]               = (uint8_t)((priority << (8U - __NVIC_PRIO_BITS)) & (uint32_t)0xFFUL);
 8002d3a:	b2db      	uxtb	r3, r3
 8002d3c:	bfaa      	itet	ge
 8002d3e:	f500 4061 	addge.w	r0, r0, #57600	@ 0xe100
    SCB->SHP[(((uint32_t)IRQn) & 0xFUL)-4UL] = (uint8_t)((priority << (8U - __NVIC_PRIO_BITS)) & (uint32_t)0xFFUL);
 8002d42:	5413      	strblt	r3, [r2, r0]
    NVIC->IP[((uint32_t)IRQn)]               = (uint8_t)((priority << (8U - __NVIC_PRIO_BITS)) & (uint32_t)0xFFUL);
 8002d44:	f880 3300 	strbge.w	r3, [r0, #768]	@ 0x300
  assert_param(IS_NVIC_PREEMPTION_PRIORITY(PreemptPriority));
  
  prioritygroup = NVIC_GetPriorityGrouping();
  
  NVIC_SetPriority(IRQn, NVIC_EncodePriority(prioritygroup, PreemptPriority, SubPriority));
}
 8002d48:	bd30      	pop	{r4, r5, pc}
 8002d4a:	bf00      	nop
 8002d4c:	e000ed00 	.word	0xe000ed00
 8002d50:	e000ed14 	.word	0xe000ed14

08002d54 <HAL_NVIC_EnableIRQ>:
  if ((int32_t)(IRQn) >= 0)
 8002d54:	2800      	cmp	r0, #0
 8002d56:	db07      	blt.n	8002d68 <HAL_NVIC_EnableIRQ+0x14>
    NVIC->ISER[(((uint32_t)IRQn) >> 5UL)] = (uint32_t)(1UL << (((uint32_t)IRQn) & 0x1FUL));
 8002d58:	4a04      	ldr	r2, [pc, #16]	@ (8002d6c <HAL_NVIC_EnableIRQ+0x18>)
 8002d5a:	0941      	lsrs	r1, r0, #5
 8002d5c:	2301      	movs	r3, #1
 8002d5e:	f000 001f 	and.w	r0, r0, #31
 8002d62:	4083      	lsls	r3, r0
 8002d64:	f842 3021 	str.w	r3, [r2, r1, lsl #2]
  /* Check the parameters */
  assert_param(IS_NVIC_DEVICE_IRQ(IRQn));
  
  /* Enable interrupt */
  NVIC_EnableIRQ(IRQn);
}
 8002d68:	4770      	bx	lr
 8002d6a:	bf00      	nop
 8002d6c:	e000e100 	.word	0xe000e100

08002d70 <DMA_CalcBaseAndBitshift>:
  *                     the configuration information for the specified DMA Stream. 
  * @retval Stream base address
  */
static uint32_t DMA_CalcBaseAndBitshift(DMA_HandleTypeDef *hdma)
{
  uint32_t stream_number = (((uint32_t)hdma->Instance & 0xFFU) - 16U) / 24U;
 8002d70:	6803      	ldr	r3, [r0, #0]
{
 8002d72:	b510      	push	{r4, lr}
  
  /* lookup table for necessary bitshift of flags within status registers */
  static const uint8_t flagBitshiftOffset[8U] = {0U, 6U, 16U, 22U, 0U, 6U, 16U, 22U};
  hdma->StreamIndex = flagBitshiftOffset[stream_number];
 8002d74:	4c08      	ldr	r4, [pc, #32]	@ (8002d98 <DMA_CalcBaseAndBitshift+0x28>)
{
 8002d76:	4602      	mov	r2, r0
  uint32_t stream_number = (((uint32_t)hdma->Instance & 0xFFU) - 16U) / 24U;
 8002d78:	b2d9      	uxtb	r1, r3
 8002d7a:	3910      	subs	r1, #16
 8002d7c:	2018      	movs	r0, #24
 8002d7e:	fbb1 f0f0 	udiv	r0, r1, r0
  hdma->StreamIndex = flagBitshiftOffset[stream_number];
 8002d82:	5c20      	ldrb	r0, [r4, r0]
 8002d84:	65d0      	str	r0, [r2, #92]	@ 0x5c
  
  if (stream_number > 3U)
  {
    /* return pointer to HISR and HIFCR */
    hdma->StreamBaseAddress = (((uint32_t)hdma->Instance & (uint32_t)(~0x3FFU)) + 4U);
 8002d86:	f423 707f 	bic.w	r0, r3, #1020	@ 0x3fc
 8002d8a:	f020 0003 	bic.w	r0, r0, #3
  if (stream_number > 3U)
 8002d8e:	295f      	cmp	r1, #95	@ 0x5f
    hdma->StreamBaseAddress = (((uint32_t)hdma->Instance & (uint32_t)(~0x3FFU)) + 4U);
 8002d90:	bf88      	it	hi
 8002d92:	3004      	addhi	r0, #4
 8002d94:	6590      	str	r0, [r2, #88]	@ 0x58
    /* return pointer to LISR and LIFCR */
    hdma->StreamBaseAddress = ((uint32_t)hdma->Instance & (uint32_t)(~0x3FFU));
  }
  
  return hdma->StreamBaseAddress;
}
 8002d96:	bd10      	pop	{r4, pc}
 8002d98:	0800c421 	.word	0x0800c421

08002d9c <HAL_DMA_Init>:
{
 8002d9c:	b570      	push	{r4, r5, r6, lr}
 8002d9e:	4604      	mov	r4, r0
  uint32_t tickstart = HAL_GetTick();
 8002da0:	f7ff ff7a 	bl	8002c98 <HAL_GetTick>
 8002da4:	4605      	mov	r5, r0
  if(hdma == NULL)
 8002da6:	2c00      	cmp	r4, #0
 8002da8:	d060      	beq.n	8002e6c <HAL_DMA_Init+0xd0>
  hdma->State = HAL_DMA_STATE_BUSY;
 8002daa:	2302      	movs	r3, #2
 8002dac:	f884 3035 	strb.w	r3, [r4, #53]	@ 0x35
  __HAL_DMA_DISABLE(hdma);
 8002db0:	6822      	ldr	r2, [r4, #0]
  __HAL_UNLOCK(hdma);
 8002db2:	2300      	movs	r3, #0
 8002db4:	f884 3034 	strb.w	r3, [r4, #52]	@ 0x34
  __HAL_DMA_DISABLE(hdma);
 8002db8:	6813      	ldr	r3, [r2, #0]
 8002dba:	f023 0301 	bic.w	r3, r3, #1
 8002dbe:	6013      	str	r3, [r2, #0]
  while((hdma->Instance->CR & DMA_SxCR_EN) != RESET)
 8002dc0:	6822      	ldr	r2, [r4, #0]
 8002dc2:	6813      	ldr	r3, [r2, #0]
 8002dc4:	07d8      	lsls	r0, r3, #31
 8002dc6:	d42e      	bmi.n	8002e26 <HAL_DMA_Init+0x8a>
  tmp = hdma->Instance->CR;
 8002dc8:	6813      	ldr	r3, [r2, #0]
  tmp &= ((uint32_t)~(DMA_SxCR_CHSEL | DMA_SxCR_MBURST | DMA_SxCR_PBURST | \
 8002dca:	4832      	ldr	r0, [pc, #200]	@ (8002e94 <HAL_DMA_Init+0xf8>)
          hdma->Init.PeriphDataAlignment | hdma->Init.MemDataAlignment |
 8002dcc:	69a1      	ldr	r1, [r4, #24]
  tmp &= ((uint32_t)~(DMA_SxCR_CHSEL | DMA_SxCR_MBURST | DMA_SxCR_PBURST | \
 8002dce:	4018      	ands	r0, r3
  tmp |=  hdma->Init.Channel             | hdma->Init.Direction        |
 8002dd0:	e9d4 3501 	ldrd	r3, r5, [r4, #4]
 8002dd4:	432b      	orrs	r3, r5
 8002dd6:	68e5      	ldr	r5, [r4, #12]
 8002dd8:	432b      	orrs	r3, r5
          hdma->Init.PeriphInc           | hdma->Init.MemInc           |
 8002dda:	6925      	ldr	r5, [r4, #16]
 8002ddc:	432b      	orrs	r3, r5
 8002dde:	6965      	ldr	r5, [r4, #20]
 8002de0:	432b      	orrs	r3, r5
          hdma->Init.PeriphDataAlignment | hdma->Init.MemDataAlignment |
 8002de2:	69e5      	ldr	r5, [r4, #28]
 8002de4:	430b      	orrs	r3, r1
 8002de6:	432b      	orrs	r3, r5
          hdma->Init.Mode                | hdma->Init.Priority;
 8002de8:	6a25      	ldr	r5, [r4, #32]
 8002dea:	432b      	orrs	r3, r5
  tmp |=  hdma->Init.Channel             | hdma->Init.Direction        |
 8002dec:	4303      	orrs	r3, r0
  if(hdma->Init.FIFOMode == DMA_FIFOMODE_ENABLE)
 8002dee:	6a60      	ldr	r0, [r4, #36]	@ 0x24
 8002df0:	2804      	cmp	r0, #4
    tmp |=  hdma->Init.MemBurst | hdma->Init.PeriphBurst;
 8002df2:	bf02      	ittt	eq
 8002df4:	e9d4 560b 	ldrdeq	r5, r6, [r4, #44]	@ 0x2c
 8002df8:	4335      	orreq	r5, r6
 8002dfa:	432b      	orreq	r3, r5
  hdma->Instance->CR = tmp;  
 8002dfc:	6013      	str	r3, [r2, #0]
  tmp = hdma->Instance->FCR;
 8002dfe:	6953      	ldr	r3, [r2, #20]
  if(hdma->Init.FIFOMode == DMA_FIFOMODE_ENABLE)
 8002e00:	2804      	cmp	r0, #4
  tmp &= (uint32_t)~(DMA_SxFCR_DMDIS | DMA_SxFCR_FTH);
 8002e02:	f023 0307 	bic.w	r3, r3, #7
  tmp |= hdma->Init.FIFOMode;
 8002e06:	ea43 0300 	orr.w	r3, r3, r0
  if(hdma->Init.FIFOMode == DMA_FIFOMODE_ENABLE)
 8002e0a:	d135      	bne.n	8002e78 <HAL_DMA_Init+0xdc>
    tmp |= hdma->Init.FIFOThreshold;
 8002e0c:	6aa0      	ldr	r0, [r4, #40]	@ 0x28
    if (hdma->Init.MemBurst != DMA_MBURST_SINGLE)
 8002e0e:	6ae5      	ldr	r5, [r4, #44]	@ 0x2c
    tmp |= hdma->Init.FIFOThreshold;
 8002e10:	4303      	orrs	r3, r0
    if (hdma->Init.MemBurst != DMA_MBURST_SINGLE)
 8002e12:	b38d      	cbz	r5, 8002e78 <HAL_DMA_Init+0xdc>
{
  HAL_StatusTypeDef status = HAL_OK;
  uint32_t tmp = hdma->Init.FIFOThreshold;
  
  /* Memory Data size equal to Byte */
  if(hdma->Init.MemDataAlignment == DMA_MDATAALIGN_BYTE)
 8002e14:	b991      	cbnz	r1, 8002e3c <HAL_DMA_Init+0xa0>
  {
    switch (tmp)
 8002e16:	2801      	cmp	r0, #1
 8002e18:	d020      	beq.n	8002e5c <HAL_DMA_Init+0xc0>
 8002e1a:	f030 0102 	bics.w	r1, r0, #2
 8002e1e:	d12b      	bne.n	8002e78 <HAL_DMA_Init+0xdc>
    case DMA_FIFO_THRESHOLD_HALFFULL:
    case DMA_FIFO_THRESHOLD_3QUARTERSFULL:
      status = HAL_ERROR;
      break;
    case DMA_FIFO_THRESHOLD_FULL:
      if ((hdma->Init.MemBurst & DMA_SxCR_MBURST_1) == DMA_SxCR_MBURST_1)
 8002e20:	01e9      	lsls	r1, r5, #7
 8002e22:	d529      	bpl.n	8002e78 <HAL_DMA_Init+0xdc>
 8002e24:	e01d      	b.n	8002e62 <HAL_DMA_Init+0xc6>
    if((HAL_GetTick() - tickstart ) > HAL_TIMEOUT_DMA_ABORT)
 8002e26:	f7ff ff37 	bl	8002c98 <HAL_GetTick>
 8002e2a:	1b40      	subs	r0, r0, r5
 8002e2c:	2805      	cmp	r0, #5
 8002e2e:	d9c7      	bls.n	8002dc0 <HAL_DMA_Init+0x24>
      hdma->ErrorCode = HAL_DMA_ERROR_TIMEOUT;
 8002e30:	2320      	movs	r3, #32
      hdma->State = HAL_DMA_STATE_TIMEOUT;
 8002e32:	2003      	movs	r0, #3
      hdma->ErrorCode = HAL_DMA_ERROR_TIMEOUT;
 8002e34:	6563      	str	r3, [r4, #84]	@ 0x54
      hdma->State = HAL_DMA_STATE_TIMEOUT;
 8002e36:	f884 0035 	strb.w	r0, [r4, #53]	@ 0x35
}
 8002e3a:	bd70      	pop	{r4, r5, r6, pc}
  else if (hdma->Init.MemDataAlignment == DMA_MDATAALIGN_HALFWORD)
 8002e3c:	f5b1 5f00 	cmp.w	r1, #8192	@ 0x2000
 8002e40:	d116      	bne.n	8002e70 <HAL_DMA_Init+0xd4>
    switch (tmp)
 8002e42:	2803      	cmp	r0, #3
 8002e44:	d818      	bhi.n	8002e78 <HAL_DMA_Init+0xdc>
 8002e46:	a101      	add	r1, pc, #4	@ (adr r1, 8002e4c <HAL_DMA_Init+0xb0>)
 8002e48:	f851 f020 	ldr.w	pc, [r1, r0, lsl #2]
 8002e4c:	08002e63 	.word	0x08002e63
 8002e50:	08002e21 	.word	0x08002e21
 8002e54:	08002e63 	.word	0x08002e63
 8002e58:	08002e5d 	.word	0x08002e5d
      if (hdma->Init.MemBurst == DMA_MBURST_INC16)
 8002e5c:	f1b5 7fc0 	cmp.w	r5, #25165824	@ 0x1800000
 8002e60:	d10a      	bne.n	8002e78 <HAL_DMA_Init+0xdc>
        hdma->ErrorCode = HAL_DMA_ERROR_PARAM;
 8002e62:	2340      	movs	r3, #64	@ 0x40
 8002e64:	6563      	str	r3, [r4, #84]	@ 0x54
        hdma->State = HAL_DMA_STATE_READY;
 8002e66:	2301      	movs	r3, #1
 8002e68:	f884 3035 	strb.w	r3, [r4, #53]	@ 0x35
    return HAL_ERROR;
 8002e6c:	2001      	movs	r0, #1
 8002e6e:	e7e4      	b.n	8002e3a <HAL_DMA_Init+0x9e>
    switch (tmp)
 8002e70:	2802      	cmp	r0, #2
 8002e72:	d9f6      	bls.n	8002e62 <HAL_DMA_Init+0xc6>
 8002e74:	2803      	cmp	r0, #3
 8002e76:	d0d3      	beq.n	8002e20 <HAL_DMA_Init+0x84>
  hdma->Instance->FCR = tmp;
 8002e78:	6153      	str	r3, [r2, #20]
  regs = (DMA_Base_Registers *)DMA_CalcBaseAndBitshift(hdma);
 8002e7a:	4620      	mov	r0, r4
 8002e7c:	f7ff ff78 	bl	8002d70 <DMA_CalcBaseAndBitshift>
  regs->IFCR = 0x3FU << hdma->StreamIndex;
 8002e80:	6de2      	ldr	r2, [r4, #92]	@ 0x5c
 8002e82:	233f      	movs	r3, #63	@ 0x3f
 8002e84:	4093      	lsls	r3, r2
 8002e86:	6083      	str	r3, [r0, #8]
  hdma->ErrorCode = HAL_DMA_ERROR_NONE;
 8002e88:	2000      	movs	r0, #0
  hdma->State = HAL_DMA_STATE_READY;
 8002e8a:	2301      	movs	r3, #1
  hdma->ErrorCode = HAL_DMA_ERROR_NONE;
 8002e8c:	6560      	str	r0, [r4, #84]	@ 0x54
  hdma->State = HAL_DMA_STATE_READY;
 8002e8e:	f884 3035 	strb.w	r3, [r4, #53]	@ 0x35
  return HAL_OK;
 8002e92:	e7d2      	b.n	8002e3a <HAL_DMA_Init+0x9e>
 8002e94:	f010803f 	.word	0xf010803f

08002e98 <HAL_DMA_Start_IT>:
{
 8002e98:	b570      	push	{r4, r5, r6, lr}
  __HAL_LOCK(hdma);
 8002e9a:	f890 4034 	ldrb.w	r4, [r0, #52]	@ 0x34
  DMA_Base_Registers *regs = (DMA_Base_Registers *)hdma->StreamBaseAddress;
 8002e9e:	6d86      	ldr	r6, [r0, #88]	@ 0x58
  __HAL_LOCK(hdma);
 8002ea0:	2c01      	cmp	r4, #1
 8002ea2:	d030      	beq.n	8002f06 <HAL_DMA_Start_IT+0x6e>
 8002ea4:	2401      	movs	r4, #1
 8002ea6:	f880 4034 	strb.w	r4, [r0, #52]	@ 0x34
  if(HAL_DMA_STATE_READY == hdma->State)
 8002eaa:	f890 4035 	ldrb.w	r4, [r0, #53]	@ 0x35
 8002eae:	2c01      	cmp	r4, #1
 8002eb0:	f04f 0400 	mov.w	r4, #0
 8002eb4:	d125      	bne.n	8002f02 <HAL_DMA_Start_IT+0x6a>
    hdma->State = HAL_DMA_STATE_BUSY;
 8002eb6:	2502      	movs	r5, #2
 8002eb8:	f880 5035 	strb.w	r5, [r0, #53]	@ 0x35
    hdma->ErrorCode = HAL_DMA_ERROR_NONE;
 8002ebc:	6544      	str	r4, [r0, #84]	@ 0x54
  hdma->Instance->CR &= (uint32_t)(~DMA_SxCR_DBM);
 8002ebe:	6804      	ldr	r4, [r0, #0]
 8002ec0:	6825      	ldr	r5, [r4, #0]
 8002ec2:	f425 2580 	bic.w	r5, r5, #262144	@ 0x40000
 8002ec6:	6025      	str	r5, [r4, #0]
  hdma->Instance->NDTR = DataLength;
 8002ec8:	6063      	str	r3, [r4, #4]
  if((hdma->Init.Direction) == DMA_MEMORY_TO_PERIPH)
 8002eca:	6883      	ldr	r3, [r0, #8]
 8002ecc:	2b40      	cmp	r3, #64	@ 0x40
    hdma->Instance->PAR = DstAddress;
 8002ece:	bf0e      	itee	eq
 8002ed0:	60a2      	streq	r2, [r4, #8]
    hdma->Instance->PAR = SrcAddress;
 8002ed2:	60a1      	strne	r1, [r4, #8]
    hdma->Instance->M0AR = DstAddress;
 8002ed4:	60e2      	strne	r2, [r4, #12]
    regs->IFCR = 0x3FU << hdma->StreamIndex;
 8002ed6:	6dc2      	ldr	r2, [r0, #92]	@ 0x5c
    hdma->Instance->M0AR = SrcAddress;
 8002ed8:	bf08      	it	eq
 8002eda:	60e1      	streq	r1, [r4, #12]
    regs->IFCR = 0x3FU << hdma->StreamIndex;
 8002edc:	233f      	movs	r3, #63	@ 0x3f
 8002ede:	4093      	lsls	r3, r2
 8002ee0:	60b3      	str	r3, [r6, #8]
    hdma->Instance->CR  |= DMA_IT_TC | DMA_IT_TE | DMA_IT_DME;
 8002ee2:	6823      	ldr	r3, [r4, #0]
 8002ee4:	f043 0316 	orr.w	r3, r3, #22
 8002ee8:	6023      	str	r3, [r4, #0]
    if(hdma->XferHalfCpltCallback != NULL)
 8002eea:	6c03      	ldr	r3, [r0, #64]	@ 0x40
 8002eec:	b11b      	cbz	r3, 8002ef6 <HAL_DMA_Start_IT+0x5e>
      hdma->Instance->CR  |= DMA_IT_HT;
 8002eee:	6823      	ldr	r3, [r4, #0]
 8002ef0:	f043 0308 	orr.w	r3, r3, #8
 8002ef4:	6023      	str	r3, [r4, #0]
    __HAL_DMA_ENABLE(hdma);
 8002ef6:	6823      	ldr	r3, [r4, #0]
 8002ef8:	f043 0301 	orr.w	r3, r3, #1
 8002efc:	6023      	str	r3, [r4, #0]
  HAL_StatusTypeDef status = HAL_OK;
 8002efe:	2000      	movs	r0, #0
}
 8002f00:	bd70      	pop	{r4, r5, r6, pc}
    __HAL_UNLOCK(hdma);	  
 8002f02:	f880 4034 	strb.w	r4, [r0, #52]	@ 0x34
  __HAL_LOCK(hdma);
 8002f06:	2002      	movs	r0, #2
 8002f08:	e7fa      	b.n	8002f00 <HAL_DMA_Start_IT+0x68>

08002f0a <HAL_DMA_Abort>:
{
 8002f0a:	b570      	push	{r4, r5, r6, lr}
 8002f0c:	4604      	mov	r4, r0
  DMA_Base_Registers *regs = (DMA_Base_Registers *)hdma->StreamBaseAddress;
 8002f0e:	6d86      	ldr	r6, [r0, #88]	@ 0x58
  uint32_t tickstart = HAL_GetTick();
 8002f10:	f7ff fec2 	bl	8002c98 <HAL_GetTick>
  if(hdma->State != HAL_DMA_STATE_BUSY)
 8002f14:	f894 3035 	ldrb.w	r3, [r4, #53]	@ 0x35
 8002f18:	2b02      	cmp	r3, #2
  uint32_t tickstart = HAL_GetTick();
 8002f1a:	4605      	mov	r5, r0
  if(hdma->State != HAL_DMA_STATE_BUSY)
 8002f1c:	d006      	beq.n	8002f2c <HAL_DMA_Abort+0x22>
    hdma->ErrorCode = HAL_DMA_ERROR_NO_XFER;
 8002f1e:	2380      	movs	r3, #128	@ 0x80
 8002f20:	6563      	str	r3, [r4, #84]	@ 0x54
    return HAL_ERROR;
 8002f22:	2001      	movs	r0, #1
    __HAL_UNLOCK(hdma);
 8002f24:	2300      	movs	r3, #0
 8002f26:	f884 3034 	strb.w	r3, [r4, #52]	@ 0x34
}
 8002f2a:	bd70      	pop	{r4, r5, r6, pc}
    hdma->Instance->CR  &= ~(DMA_IT_TC | DMA_IT_TE | DMA_IT_DME);
 8002f2c:	6823      	ldr	r3, [r4, #0]
 8002f2e:	681a      	ldr	r2, [r3, #0]
 8002f30:	f022 0216 	bic.w	r2, r2, #22
 8002f34:	601a      	str	r2, [r3, #0]
    hdma->Instance->FCR &= ~(DMA_IT_FE);
 8002f36:	695a      	ldr	r2, [r3, #20]
 8002f38:	f022 0280 	bic.w	r2, r2, #128	@ 0x80
 8002f3c:	615a      	str	r2, [r3, #20]
    if((hdma->XferHalfCpltCallback != NULL) || (hdma->XferM1HalfCpltCallback != NULL))
 8002f3e:	6c22      	ldr	r2, [r4, #64]	@ 0x40
 8002f40:	b90a      	cbnz	r2, 8002f46 <HAL_DMA_Abort+0x3c>
 8002f42:	6ca2      	ldr	r2, [r4, #72]	@ 0x48
 8002f44:	b11a      	cbz	r2, 8002f4e <HAL_DMA_Abort+0x44>
      hdma->Instance->CR  &= ~(DMA_IT_HT);
 8002f46:	681a      	ldr	r2, [r3, #0]
 8002f48:	f022 0208 	bic.w	r2, r2, #8
 8002f4c:	601a      	str	r2, [r3, #0]
    __HAL_DMA_DISABLE(hdma);
 8002f4e:	681a      	ldr	r2, [r3, #0]
 8002f50:	f022 0201 	bic.w	r2, r2, #1
 8002f54:	601a      	str	r2, [r3, #0]
    while((hdma->Instance->CR & DMA_SxCR_EN) != RESET)
 8002f56:	6823      	ldr	r3, [r4, #0]
 8002f58:	6818      	ldr	r0, [r3, #0]
 8002f5a:	f010 0001 	ands.w	r0, r0, #1
 8002f5e:	d107      	bne.n	8002f70 <HAL_DMA_Abort+0x66>
    regs->IFCR = 0x3FU << hdma->StreamIndex;
 8002f60:	6de2      	ldr	r2, [r4, #92]	@ 0x5c
 8002f62:	233f      	movs	r3, #63	@ 0x3f
 8002f64:	4093      	lsls	r3, r2
 8002f66:	60b3      	str	r3, [r6, #8]
    hdma->State = HAL_DMA_STATE_READY;
 8002f68:	2301      	movs	r3, #1
 8002f6a:	f884 3035 	strb.w	r3, [r4, #53]	@ 0x35
  return HAL_OK;
 8002f6e:	e7d9      	b.n	8002f24 <HAL_DMA_Abort+0x1a>
      if((HAL_GetTick() - tickstart ) > HAL_TIMEOUT_DMA_ABORT)
 8002f70:	f7ff fe92 	bl	8002c98 <HAL_GetTick>
 8002f74:	1b40      	subs	r0, r0, r5
 8002f76:	2805      	cmp	r0, #5
 8002f78:	d9ed      	bls.n	8002f56 <HAL_DMA_Abort+0x4c>
        hdma->ErrorCode = HAL_DMA_ERROR_TIMEOUT;
 8002f7a:	2320      	movs	r3, #32
        hdma->State = HAL_DMA_STATE_TIMEOUT;
 8002f7c:	2003      	movs	r0, #3
        hdma->ErrorCode = HAL_DMA_ERROR_TIMEOUT;
 8002f7e:	6563      	str	r3, [r4, #84]	@ 0x54
        hdma->State = HAL_DMA_STATE_TIMEOUT;
 8002f80:	f884 0035 	strb.w	r0, [r4, #53]	@ 0x35
        return HAL_TIMEOUT;
 8002f84:	e7ce      	b.n	8002f24 <HAL_DMA_Abort+0x1a>

08002f86 <HAL_DMA_Abort_IT>:
  if(hdma->State != HAL_DMA_STATE_BUSY)
 8002f86:	f890 3035 	ldrb.w	r3, [r0, #53]	@ 0x35
 8002f8a:	2b02      	cmp	r3, #2
 8002f8c:	d003      	beq.n	8002f96 <HAL_DMA_Abort_IT+0x10>
    hdma->ErrorCode = HAL_DMA_ERROR_NO_XFER;
 8002f8e:	2380      	movs	r3, #128	@ 0x80
 8002f90:	6543      	str	r3, [r0, #84]	@ 0x54
    return HAL_ERROR;
 8002f92:	2001      	movs	r0, #1
 8002f94:	4770      	bx	lr
    __HAL_DMA_DISABLE(hdma);
 8002f96:	6802      	ldr	r2, [r0, #0]
    hdma->State = HAL_DMA_STATE_ABORT;
 8002f98:	2305      	movs	r3, #5
 8002f9a:	f880 3035 	strb.w	r3, [r0, #53]	@ 0x35
    __HAL_DMA_DISABLE(hdma);
 8002f9e:	6813      	ldr	r3, [r2, #0]
 8002fa0:	f023 0301 	bic.w	r3, r3, #1
 8002fa4:	6013      	str	r3, [r2, #0]
  return HAL_OK;
 8002fa6:	2000      	movs	r0, #0
}
 8002fa8:	4770      	bx	lr
	...

08002fac <HAL_DMA_IRQHandler>:
{
 8002fac:	b5f7      	push	{r0, r1, r2, r4, r5, r6, r7, lr}
  __IO uint32_t count = 0U;
 8002fae:	2300      	movs	r3, #0
 8002fb0:	9301      	str	r3, [sp, #4]
  uint32_t timeout = SystemCoreClock / 9600U;
 8002fb2:	4b5c      	ldr	r3, [pc, #368]	@ (8003124 <HAL_DMA_IRQHandler+0x178>)
  DMA_Base_Registers *regs = (DMA_Base_Registers *)hdma->StreamBaseAddress;
 8002fb4:	6d85      	ldr	r5, [r0, #88]	@ 0x58
  uint32_t timeout = SystemCoreClock / 9600U;
 8002fb6:	681f      	ldr	r7, [r3, #0]
  if ((tmpisr & (DMA_FLAG_TEIF0_4 << hdma->StreamIndex)) != RESET)
 8002fb8:	6dc3      	ldr	r3, [r0, #92]	@ 0x5c
  tmpisr = regs->ISR;
 8002fba:	682e      	ldr	r6, [r5, #0]
  if ((tmpisr & (DMA_FLAG_TEIF0_4 << hdma->StreamIndex)) != RESET)
 8002fbc:	2208      	movs	r2, #8
 8002fbe:	409a      	lsls	r2, r3
 8002fc0:	4232      	tst	r2, r6
{
 8002fc2:	4604      	mov	r4, r0
  if ((tmpisr & (DMA_FLAG_TEIF0_4 << hdma->StreamIndex)) != RESET)
 8002fc4:	d00c      	beq.n	8002fe0 <HAL_DMA_IRQHandler+0x34>
    if(__HAL_DMA_GET_IT_SOURCE(hdma, DMA_IT_TE) != RESET)
 8002fc6:	6801      	ldr	r1, [r0, #0]
 8002fc8:	6808      	ldr	r0, [r1, #0]
 8002fca:	0740      	lsls	r0, r0, #29
 8002fcc:	d508      	bpl.n	8002fe0 <HAL_DMA_IRQHandler+0x34>
      hdma->Instance->CR  &= ~(DMA_IT_TE);
 8002fce:	6808      	ldr	r0, [r1, #0]
 8002fd0:	f020 0004 	bic.w	r0, r0, #4
 8002fd4:	6008      	str	r0, [r1, #0]
      regs->IFCR = DMA_FLAG_TEIF0_4 << hdma->StreamIndex;
 8002fd6:	60aa      	str	r2, [r5, #8]
      hdma->ErrorCode |= HAL_DMA_ERROR_TE;
 8002fd8:	6d62      	ldr	r2, [r4, #84]	@ 0x54
 8002fda:	f042 0201 	orr.w	r2, r2, #1
 8002fde:	6562      	str	r2, [r4, #84]	@ 0x54
  if ((tmpisr & (DMA_FLAG_FEIF0_4 << hdma->StreamIndex)) != RESET)
 8002fe0:	2201      	movs	r2, #1
 8002fe2:	409a      	lsls	r2, r3
 8002fe4:	4232      	tst	r2, r6
 8002fe6:	d008      	beq.n	8002ffa <HAL_DMA_IRQHandler+0x4e>
    if(__HAL_DMA_GET_IT_SOURCE(hdma, DMA_IT_FE) != RESET)
 8002fe8:	6821      	ldr	r1, [r4, #0]
 8002fea:	6949      	ldr	r1, [r1, #20]
 8002fec:	0609      	lsls	r1, r1, #24
      regs->IFCR = DMA_FLAG_FEIF0_4 << hdma->StreamIndex;
 8002fee:	bf41      	itttt	mi
 8002ff0:	60aa      	strmi	r2, [r5, #8]
      hdma->ErrorCode |= HAL_DMA_ERROR_FE;
 8002ff2:	6d62      	ldrmi	r2, [r4, #84]	@ 0x54
 8002ff4:	f042 0202 	orrmi.w	r2, r2, #2
 8002ff8:	6562      	strmi	r2, [r4, #84]	@ 0x54
  if ((tmpisr & (DMA_FLAG_DMEIF0_4 << hdma->StreamIndex)) != RESET)
 8002ffa:	2204      	movs	r2, #4
 8002ffc:	409a      	lsls	r2, r3
 8002ffe:	4232      	tst	r2, r6
 8003000:	d008      	beq.n	8003014 <HAL_DMA_IRQHandler+0x68>
    if(__HAL_DMA_GET_IT_SOURCE(hdma, DMA_IT_DME) != RESET)
 8003002:	6821      	ldr	r1, [r4, #0]
 8003004:	6809      	ldr	r1, [r1, #0]
 8003006:	0788      	lsls	r0, r1, #30
      regs->IFCR = DMA_FLAG_DMEIF0_4 << hdma->StreamIndex;
 8003008:	bf41      	itttt	mi
 800300a:	60aa      	strmi	r2, [r5, #8]
      hdma->ErrorCode |= HAL_DMA_ERROR_DME;
 800300c:	6d62      	ldrmi	r2, [r4, #84]	@ 0x54
 800300e:	f042 0204 	orrmi.w	r2, r2, #4
 8003012:	6562      	strmi	r2, [r4, #84]	@ 0x54
  if ((tmpisr & (DMA_FLAG_HTIF0_4 << hdma->StreamIndex)) != RESET)
 8003014:	2210      	movs	r2, #16
 8003016:	409a      	lsls	r2, r3
 8003018:	4232      	tst	r2, r6
 800301a:	d010      	beq.n	800303e <HAL_DMA_IRQHandler+0x92>
    if(__HAL_DMA_GET_IT_SOURCE(hdma, DMA_IT_HT) != RESET)
 800301c:	6823      	ldr	r3, [r4, #0]
 800301e:	6819      	ldr	r1, [r3, #0]
 8003020:	0709      	lsls	r1, r1, #28
 8003022:	d50c      	bpl.n	800303e <HAL_DMA_IRQHandler+0x92>
      regs->IFCR = DMA_FLAG_HTIF0_4 << hdma->StreamIndex;
 8003024:	60aa      	str	r2, [r5, #8]
      if(((hdma->Instance->CR) & (uint32_t)(DMA_SxCR_DBM)) != RESET)
 8003026:	681a      	ldr	r2, [r3, #0]
 8003028:	0350      	lsls	r0, r2, #13
 800302a:	d537      	bpl.n	800309c <HAL_DMA_IRQHandler+0xf0>
        if((hdma->Instance->CR & DMA_SxCR_CT) == RESET)
 800302c:	681b      	ldr	r3, [r3, #0]
 800302e:	0319      	lsls	r1, r3, #12
 8003030:	d401      	bmi.n	8003036 <HAL_DMA_IRQHandler+0x8a>
        if(hdma->XferHalfCpltCallback != NULL)
 8003032:	6c23      	ldr	r3, [r4, #64]	@ 0x40
 8003034:	e000      	b.n	8003038 <HAL_DMA_IRQHandler+0x8c>
          if(hdma->XferM1HalfCpltCallback != NULL)
 8003036:	6ca3      	ldr	r3, [r4, #72]	@ 0x48
        if(hdma->XferHalfCpltCallback != NULL)
 8003038:	b10b      	cbz	r3, 800303e <HAL_DMA_IRQHandler+0x92>
          hdma->XferHalfCpltCallback(hdma);
 800303a:	4620      	mov	r0, r4
 800303c:	4798      	blx	r3
  if ((tmpisr & (DMA_FLAG_TCIF0_4 << hdma->StreamIndex)) != RESET)
 800303e:	6de1      	ldr	r1, [r4, #92]	@ 0x5c
 8003040:	2220      	movs	r2, #32
 8003042:	408a      	lsls	r2, r1
 8003044:	4232      	tst	r2, r6
 8003046:	d03a      	beq.n	80030be <HAL_DMA_IRQHandler+0x112>
    if(__HAL_DMA_GET_IT_SOURCE(hdma, DMA_IT_TC) != RESET)
 8003048:	6823      	ldr	r3, [r4, #0]
 800304a:	6818      	ldr	r0, [r3, #0]
 800304c:	06c6      	lsls	r6, r0, #27
 800304e:	d536      	bpl.n	80030be <HAL_DMA_IRQHandler+0x112>
      regs->IFCR = DMA_FLAG_TCIF0_4 << hdma->StreamIndex;
 8003050:	60aa      	str	r2, [r5, #8]
      if(HAL_DMA_STATE_ABORT == hdma->State)
 8003052:	f894 2035 	ldrb.w	r2, [r4, #53]	@ 0x35
 8003056:	2a05      	cmp	r2, #5
        hdma->Instance->CR  &= ~(DMA_IT_TC | DMA_IT_TE | DMA_IT_DME);
 8003058:	681a      	ldr	r2, [r3, #0]
      if(HAL_DMA_STATE_ABORT == hdma->State)
 800305a:	d127      	bne.n	80030ac <HAL_DMA_IRQHandler+0x100>
        hdma->Instance->CR  &= ~(DMA_IT_TC | DMA_IT_TE | DMA_IT_DME);
 800305c:	f022 0216 	bic.w	r2, r2, #22
 8003060:	601a      	str	r2, [r3, #0]
        hdma->Instance->FCR &= ~(DMA_IT_FE);
 8003062:	695a      	ldr	r2, [r3, #20]
 8003064:	f022 0280 	bic.w	r2, r2, #128	@ 0x80
 8003068:	615a      	str	r2, [r3, #20]
        if((hdma->XferHalfCpltCallback != NULL) || (hdma->XferM1HalfCpltCallback != NULL))
 800306a:	6c22      	ldr	r2, [r4, #64]	@ 0x40
 800306c:	b90a      	cbnz	r2, 8003072 <HAL_DMA_IRQHandler+0xc6>
 800306e:	6ca2      	ldr	r2, [r4, #72]	@ 0x48
 8003070:	b11a      	cbz	r2, 800307a <HAL_DMA_IRQHandler+0xce>
          hdma->Instance->CR  &= ~(DMA_IT_HT);
 8003072:	681a      	ldr	r2, [r3, #0]
 8003074:	f022 0208 	bic.w	r2, r2, #8
 8003078:	601a      	str	r2, [r3, #0]
        regs->IFCR = 0x3FU << hdma->StreamIndex;
 800307a:	233f      	movs	r3, #63	@ 0x3f
 800307c:	408b      	lsls	r3, r1
 800307e:	60ab      	str	r3, [r5, #8]
        hdma->State = HAL_DMA_STATE_READY;
 8003080:	2301      	movs	r3, #1
 8003082:	f884 3035 	strb.w	r3, [r4, #53]	@ 0x35
        __HAL_UNLOCK(hdma);
 8003086:	2300      	movs	r3, #0
 8003088:	f884 3034 	strb.w	r3, [r4, #52]	@ 0x34
        if(hdma->XferAbortCallback != NULL)
 800308c:	6d23      	ldr	r3, [r4, #80]	@ 0x50
    if(hdma->XferErrorCallback != NULL)
 800308e:	2b00      	cmp	r3, #0
 8003090:	d045      	beq.n	800311e <HAL_DMA_IRQHandler+0x172>
      hdma->XferErrorCallback(hdma);
 8003092:	4620      	mov	r0, r4
}
 8003094:	b003      	add	sp, #12
 8003096:	e8bd 40f0 	ldmia.w	sp!, {r4, r5, r6, r7, lr}
      hdma->XferErrorCallback(hdma);
 800309a:	4718      	bx	r3
        if((hdma->Instance->CR & DMA_SxCR_CIRC) == RESET)
 800309c:	681a      	ldr	r2, [r3, #0]
 800309e:	05d2      	lsls	r2, r2, #23
          hdma->Instance->CR  &= ~(DMA_IT_HT);
 80030a0:	bf5e      	ittt	pl
 80030a2:	681a      	ldrpl	r2, [r3, #0]
 80030a4:	f022 0208 	bicpl.w	r2, r2, #8
 80030a8:	601a      	strpl	r2, [r3, #0]
 80030aa:	e7c2      	b.n	8003032 <HAL_DMA_IRQHandler+0x86>
      if(((hdma->Instance->CR) & (uint32_t)(DMA_SxCR_DBM)) != RESET)
 80030ac:	0350      	lsls	r0, r2, #13
 80030ae:	d527      	bpl.n	8003100 <HAL_DMA_IRQHandler+0x154>
        if((hdma->Instance->CR & DMA_SxCR_CT) == RESET)
 80030b0:	681b      	ldr	r3, [r3, #0]
 80030b2:	0319      	lsls	r1, r3, #12
 80030b4:	d431      	bmi.n	800311a <HAL_DMA_IRQHandler+0x16e>
          if(hdma->XferM1CpltCallback != NULL)
 80030b6:	6c63      	ldr	r3, [r4, #68]	@ 0x44
        if(hdma->XferCpltCallback != NULL)
 80030b8:	b10b      	cbz	r3, 80030be <HAL_DMA_IRQHandler+0x112>
          hdma->XferCpltCallback(hdma);
 80030ba:	4620      	mov	r0, r4
 80030bc:	4798      	blx	r3
  if(hdma->ErrorCode != HAL_DMA_ERROR_NONE)
 80030be:	6d63      	ldr	r3, [r4, #84]	@ 0x54
 80030c0:	b36b      	cbz	r3, 800311e <HAL_DMA_IRQHandler+0x172>
    if((hdma->ErrorCode & HAL_DMA_ERROR_TE) != RESET)
 80030c2:	6d63      	ldr	r3, [r4, #84]	@ 0x54
 80030c4:	07da      	lsls	r2, r3, #31
 80030c6:	d519      	bpl.n	80030fc <HAL_DMA_IRQHandler+0x150>
      __HAL_DMA_DISABLE(hdma);
 80030c8:	6822      	ldr	r2, [r4, #0]
  uint32_t timeout = SystemCoreClock / 9600U;
 80030ca:	f44f 5316 	mov.w	r3, #9600	@ 0x2580
 80030ce:	fbb7 f7f3 	udiv	r7, r7, r3
      hdma->State = HAL_DMA_STATE_ABORT;
 80030d2:	2305      	movs	r3, #5
 80030d4:	f884 3035 	strb.w	r3, [r4, #53]	@ 0x35
      __HAL_DMA_DISABLE(hdma);
 80030d8:	6813      	ldr	r3, [r2, #0]
 80030da:	f023 0301 	bic.w	r3, r3, #1
 80030de:	6013      	str	r3, [r2, #0]
        if (++count > timeout)
 80030e0:	9b01      	ldr	r3, [sp, #4]
 80030e2:	3301      	adds	r3, #1
 80030e4:	42bb      	cmp	r3, r7
 80030e6:	9301      	str	r3, [sp, #4]
 80030e8:	d802      	bhi.n	80030f0 <HAL_DMA_IRQHandler+0x144>
      while((hdma->Instance->CR & DMA_SxCR_EN) != RESET);
 80030ea:	6813      	ldr	r3, [r2, #0]
 80030ec:	07db      	lsls	r3, r3, #31
 80030ee:	d4f7      	bmi.n	80030e0 <HAL_DMA_IRQHandler+0x134>
      hdma->State = HAL_DMA_STATE_READY;
 80030f0:	2301      	movs	r3, #1
 80030f2:	f884 3035 	strb.w	r3, [r4, #53]	@ 0x35
      __HAL_UNLOCK(hdma);
 80030f6:	2300      	movs	r3, #0
 80030f8:	f884 3034 	strb.w	r3, [r4, #52]	@ 0x34
    if(hdma->XferErrorCallback != NULL)
 80030fc:	6ce3      	ldr	r3, [r4, #76]	@ 0x4c
 80030fe:	e7c6      	b.n	800308e <HAL_DMA_IRQHandler+0xe2>
        if((hdma->Instance->CR & DMA_SxCR_CIRC) == RESET)
 8003100:	681a      	ldr	r2, [r3, #0]
 8003102:	f412 7280 	ands.w	r2, r2, #256	@ 0x100
 8003106:	d108      	bne.n	800311a <HAL_DMA_IRQHandler+0x16e>
          hdma->Instance->CR  &= ~(DMA_IT_TC);
 8003108:	6819      	ldr	r1, [r3, #0]
 800310a:	f021 0110 	bic.w	r1, r1, #16
 800310e:	6019      	str	r1, [r3, #0]
          hdma->State = HAL_DMA_STATE_READY;
 8003110:	2301      	movs	r3, #1
 8003112:	f884 3035 	strb.w	r3, [r4, #53]	@ 0x35
          __HAL_UNLOCK(hdma);
 8003116:	f884 2034 	strb.w	r2, [r4, #52]	@ 0x34
        if(hdma->XferCpltCallback != NULL)
 800311a:	6be3      	ldr	r3, [r4, #60]	@ 0x3c
 800311c:	e7cc      	b.n	80030b8 <HAL_DMA_IRQHandler+0x10c>
}
 800311e:	b003      	add	sp, #12
 8003120:	bdf0      	pop	{r4, r5, r6, r7, pc}
 8003122:	bf00      	nop
 8003124:	20000004 	.word	0x20000004

08003128 <HAL_GPIO_Init>:
  * @param  GPIO_Init pointer to a GPIO_InitTypeDef structure that contains
  *         the configuration information for the specified GPIO peripheral.
  * @retval None
  */
void HAL_GPIO_Init(GPIO_TypeDef  *GPIOx, GPIO_InitTypeDef *GPIO_Init)
{
 8003128:	e92d 4ff7 	stmdb	sp!, {r0, r1, r2, r4, r5, r6, r7, r8, r9, sl, fp, lr}
      /*--------------------- EXTI Mode Configuration ------------------------*/
      /* Configure the External Interrupt or event for the current IO */
      if((GPIO_Init->Mode & EXTI_MODE) != 0x00U)
      {
        /* Enable SYSCFG Clock */
        __HAL_RCC_SYSCFG_CLK_ENABLE();
 800312c:	f8df 9180 	ldr.w	r9, [pc, #384]	@ 80032b0 <HAL_GPIO_Init+0x188>
        temp &= ~(0x0FU << (4U * (position & 0x03U)));
        temp |= ((uint32_t)(GPIO_GET_INDEX(GPIOx)) << (4U * (position & 0x03U)));
        SYSCFG->EXTICR[position >> 2U] = temp;

        /* Clear Rising Falling edge configuration */
        temp = EXTI->RTSR;
 8003130:	4a5d      	ldr	r2, [pc, #372]	@ (80032a8 <HAL_GPIO_Init+0x180>)
  for(position = 0U; position < GPIO_NUMBER; position++)
 8003132:	2300      	movs	r3, #0
    iocurrent = (uint32_t)(GPIO_Init->Pin) & ioposition;
 8003134:	680d      	ldr	r5, [r1, #0]
    ioposition = 0x01U << position;
 8003136:	2401      	movs	r4, #1
 8003138:	409c      	lsls	r4, r3
    iocurrent = (uint32_t)(GPIO_Init->Pin) & ioposition;
 800313a:	ea04 0605 	and.w	r6, r4, r5
    if(iocurrent == ioposition)
 800313e:	43ac      	bics	r4, r5
 8003140:	f040 80a3 	bne.w	800328a <HAL_GPIO_Init+0x162>
      if(((GPIO_Init->Mode & GPIO_MODE) == MODE_OUTPUT) || \
 8003144:	684d      	ldr	r5, [r1, #4]
        temp &= ~(GPIO_OSPEEDER_OSPEEDR0 << (position * 2U));
 8003146:	2703      	movs	r7, #3
      if(((GPIO_Init->Mode & GPIO_MODE) == MODE_OUTPUT) || \
 8003148:	f005 0403 	and.w	r4, r5, #3
 800314c:	ea4f 0843 	mov.w	r8, r3, lsl #1
        temp &= ~(GPIO_OSPEEDER_OSPEEDR0 << (position * 2U));
 8003150:	fa07 fc08 	lsl.w	ip, r7, r8
      if(((GPIO_Init->Mode & GPIO_MODE) == MODE_OUTPUT) || \
 8003154:	1e67      	subs	r7, r4, #1
 8003156:	2f01      	cmp	r7, #1
        temp &= ~(GPIO_OSPEEDER_OSPEEDR0 << (position * 2U));
 8003158:	ea6f 0c0c 	mvn.w	ip, ip
      if(((GPIO_Init->Mode & GPIO_MODE) == MODE_OUTPUT) || \
 800315c:	d834      	bhi.n	80031c8 <HAL_GPIO_Init+0xa0>
        temp = GPIOx->OSPEEDR; 
 800315e:	6887      	ldr	r7, [r0, #8]
        temp &= ~(GPIO_OSPEEDER_OSPEEDR0 << (position * 2U));
 8003160:	ea07 0e0c 	and.w	lr, r7, ip
        temp |= (GPIO_Init->Speed << (position * 2U));
 8003164:	68cf      	ldr	r7, [r1, #12]
 8003166:	fa07 f708 	lsl.w	r7, r7, r8
 800316a:	ea47 070e 	orr.w	r7, r7, lr
        GPIOx->OSPEEDR = temp;
 800316e:	6087      	str	r7, [r0, #8]
        temp = GPIOx->OTYPER;
 8003170:	6847      	ldr	r7, [r0, #4]
        temp &= ~(GPIO_OTYPER_OT_0 << position) ;
 8003172:	ea27 0e06 	bic.w	lr, r7, r6
        temp |= (((GPIO_Init->Mode & OUTPUT_TYPE) >> OUTPUT_TYPE_Pos) << position);
 8003176:	f3c5 1700 	ubfx	r7, r5, #4, #1
 800317a:	409f      	lsls	r7, r3
 800317c:	ea47 070e 	orr.w	r7, r7, lr
        GPIOx->OTYPER = temp;
 8003180:	6047      	str	r7, [r0, #4]
        temp = GPIOx->PUPDR;
 8003182:	68c7      	ldr	r7, [r0, #12]
        temp &= ~(GPIO_PUPDR_PUPDR0 << (position * 2U));
 8003184:	ea07 0e0c 	and.w	lr, r7, ip
        temp |= ((GPIO_Init->Pull) << (position * 2U));
 8003188:	688f      	ldr	r7, [r1, #8]
 800318a:	fa07 f708 	lsl.w	r7, r7, r8
 800318e:	ea47 070e 	orr.w	r7, r7, lr
      if((GPIO_Init->Mode & GPIO_MODE) == MODE_AF)
 8003192:	2c02      	cmp	r4, #2
        GPIOx->PUPDR = temp;
 8003194:	60c7      	str	r7, [r0, #12]
      if((GPIO_Init->Mode & GPIO_MODE) == MODE_AF)
 8003196:	d119      	bne.n	80031cc <HAL_GPIO_Init+0xa4>
        temp = GPIOx->AFR[position >> 3U];
 8003198:	ea4f 0ad3 	mov.w	sl, r3, lsr #3
 800319c:	eb00 0a8a 	add.w	sl, r0, sl, lsl #2
        temp &= ~(0xFU << ((uint32_t)(position & 0x07U) * 4U)) ;
 80031a0:	f003 0b07 	and.w	fp, r3, #7
        temp = GPIOx->AFR[position >> 3U];
 80031a4:	f8da 7020 	ldr.w	r7, [sl, #32]
        temp &= ~(0xFU << ((uint32_t)(position & 0x07U) * 4U)) ;
 80031a8:	ea4f 0b8b 	mov.w	fp, fp, lsl #2
 80031ac:	f04f 0e0f 	mov.w	lr, #15
 80031b0:	fa0e fe0b 	lsl.w	lr, lr, fp
 80031b4:	ea27 0e0e 	bic.w	lr, r7, lr
        temp |= ((uint32_t)(GPIO_Init->Alternate) << (((uint32_t)position & 0x07U) * 4U));
 80031b8:	690f      	ldr	r7, [r1, #16]
 80031ba:	fa07 f70b 	lsl.w	r7, r7, fp
 80031be:	ea47 070e 	orr.w	r7, r7, lr
        GPIOx->AFR[position >> 3U] = temp;
 80031c2:	f8ca 7020 	str.w	r7, [sl, #32]
 80031c6:	e001      	b.n	80031cc <HAL_GPIO_Init+0xa4>
      if((GPIO_Init->Mode & GPIO_MODE) != MODE_ANALOG)
 80031c8:	2c03      	cmp	r4, #3
 80031ca:	d1da      	bne.n	8003182 <HAL_GPIO_Init+0x5a>
      temp = GPIOx->MODER;
 80031cc:	6807      	ldr	r7, [r0, #0]
      temp |= ((GPIO_Init->Mode & GPIO_MODE) << (position * 2U));
 80031ce:	fa04 f408 	lsl.w	r4, r4, r8
      temp &= ~(GPIO_MODER_MODER0 << (position * 2U));
 80031d2:	ea07 070c 	and.w	r7, r7, ip
      temp |= ((GPIO_Init->Mode & GPIO_MODE) << (position * 2U));
 80031d6:	433c      	orrs	r4, r7
      if((GPIO_Init->Mode & EXTI_MODE) != 0x00U)
 80031d8:	f415 3f40 	tst.w	r5, #196608	@ 0x30000
      GPIOx->MODER = temp;
 80031dc:	6004      	str	r4, [r0, #0]
      if((GPIO_Init->Mode & EXTI_MODE) != 0x00U)
 80031de:	d054      	beq.n	800328a <HAL_GPIO_Init+0x162>
        __HAL_RCC_SYSCFG_CLK_ENABLE();
 80031e0:	2400      	movs	r4, #0
 80031e2:	9401      	str	r4, [sp, #4]
 80031e4:	f8d9 4044 	ldr.w	r4, [r9, #68]	@ 0x44
 80031e8:	f444 4480 	orr.w	r4, r4, #16384	@ 0x4000
 80031ec:	f8c9 4044 	str.w	r4, [r9, #68]	@ 0x44
 80031f0:	f8d9 4044 	ldr.w	r4, [r9, #68]	@ 0x44
 80031f4:	f023 0703 	bic.w	r7, r3, #3
 80031f8:	f107 4780 	add.w	r7, r7, #1073741824	@ 0x40000000
 80031fc:	f404 4480 	and.w	r4, r4, #16384	@ 0x4000
 8003200:	f507 379c 	add.w	r7, r7, #79872	@ 0x13800
 8003204:	9401      	str	r4, [sp, #4]
        temp &= ~(0x0FU << (4U * (position & 0x03U)));
 8003206:	f003 0c03 	and.w	ip, r3, #3
        __HAL_RCC_SYSCFG_CLK_ENABLE();
 800320a:	9c01      	ldr	r4, [sp, #4]
        temp = SYSCFG->EXTICR[position >> 2U];
 800320c:	f8d7 e008 	ldr.w	lr, [r7, #8]
        temp &= ~(0x0FU << (4U * (position & 0x03U)));
 8003210:	ea4f 0c8c 	mov.w	ip, ip, lsl #2
 8003214:	240f      	movs	r4, #15
 8003216:	fa04 f40c 	lsl.w	r4, r4, ip
 800321a:	ea2e 0e04 	bic.w	lr, lr, r4
        temp |= ((uint32_t)(GPIO_GET_INDEX(GPIOx)) << (4U * (position & 0x03U)));
 800321e:	4c23      	ldr	r4, [pc, #140]	@ (80032ac <HAL_GPIO_Init+0x184>)
 8003220:	42a0      	cmp	r0, r4
 8003222:	d039      	beq.n	8003298 <HAL_GPIO_Init+0x170>
 8003224:	f504 6480 	add.w	r4, r4, #1024	@ 0x400
 8003228:	42a0      	cmp	r0, r4
 800322a:	d037      	beq.n	800329c <HAL_GPIO_Init+0x174>
 800322c:	f504 6480 	add.w	r4, r4, #1024	@ 0x400
 8003230:	42a0      	cmp	r0, r4
 8003232:	d035      	beq.n	80032a0 <HAL_GPIO_Init+0x178>
 8003234:	f504 6480 	add.w	r4, r4, #1024	@ 0x400
 8003238:	42a0      	cmp	r0, r4
 800323a:	d033      	beq.n	80032a4 <HAL_GPIO_Init+0x17c>
 800323c:	f504 6480 	add.w	r4, r4, #1024	@ 0x400
 8003240:	42a0      	cmp	r0, r4
 8003242:	bf14      	ite	ne
 8003244:	2407      	movne	r4, #7
 8003246:	2404      	moveq	r4, #4
 8003248:	fa04 f40c 	lsl.w	r4, r4, ip
 800324c:	ea44 040e 	orr.w	r4, r4, lr
        SYSCFG->EXTICR[position >> 2U] = temp;
 8003250:	60bc      	str	r4, [r7, #8]
        temp = EXTI->RTSR;
 8003252:	6894      	ldr	r4, [r2, #8]
        temp &= ~((uint32_t)iocurrent);
 8003254:	43f7      	mvns	r7, r6
        if((GPIO_Init->Mode & TRIGGER_RISING) != 0x00U)
 8003256:	f415 1f80 	tst.w	r5, #1048576	@ 0x100000
        temp &= ~((uint32_t)iocurrent);
 800325a:	bf0c      	ite	eq
 800325c:	403c      	andeq	r4, r7
        {
          temp |= iocurrent;
 800325e:	4334      	orrne	r4, r6
        }
        EXTI->RTSR = temp;
 8003260:	6094      	str	r4, [r2, #8]

        temp = EXTI->FTSR;
 8003262:	68d4      	ldr	r4, [r2, #12]
        temp &= ~((uint32_t)iocurrent);
        if((GPIO_Init->Mode & TRIGGER_FALLING) != 0x00U)
 8003264:	f415 1f00 	tst.w	r5, #2097152	@ 0x200000
        temp &= ~((uint32_t)iocurrent);
 8003268:	bf0c      	ite	eq
 800326a:	403c      	andeq	r4, r7
        {
          temp |= iocurrent;
 800326c:	4334      	orrne	r4, r6
        }
        EXTI->FTSR = temp;
 800326e:	60d4      	str	r4, [r2, #12]

        temp = EXTI->EMR;
 8003270:	6854      	ldr	r4, [r2, #4]
        temp &= ~((uint32_t)iocurrent);
        if((GPIO_Init->Mode & EXTI_EVT) != 0x00U)
 8003272:	f415 3f00 	tst.w	r5, #131072	@ 0x20000
        temp &= ~((uint32_t)iocurrent);
 8003276:	bf0c      	ite	eq
 8003278:	403c      	andeq	r4, r7
        {
          temp |= iocurrent;
 800327a:	4334      	orrne	r4, r6
        }
        EXTI->EMR = temp;
 800327c:	6054      	str	r4, [r2, #4]

        /* Clear EXTI line configuration */
        temp = EXTI->IMR;
 800327e:	6814      	ldr	r4, [r2, #0]
        temp &= ~((uint32_t)iocurrent);
        if((GPIO_Init->Mode & EXTI_IT) != 0x00U)
 8003280:	03ed      	lsls	r5, r5, #15
        temp &= ~((uint32_t)iocurrent);
 8003282:	bf54      	ite	pl
 8003284:	403c      	andpl	r4, r7
        {
          temp |= iocurrent;
 8003286:	4334      	orrmi	r4, r6
        }
        EXTI->IMR = temp;
 8003288:	6014      	str	r4, [r2, #0]
  for(position = 0U; position < GPIO_NUMBER; position++)
 800328a:	3301      	adds	r3, #1
 800328c:	2b10      	cmp	r3, #16
 800328e:	f47f af51 	bne.w	8003134 <HAL_GPIO_Init+0xc>
      }
    }
  }
}
 8003292:	b003      	add	sp, #12
 8003294:	e8bd 8ff0 	ldmia.w	sp!, {r4, r5, r6, r7, r8, r9, sl, fp, pc}
        temp |= ((uint32_t)(GPIO_GET_INDEX(GPIOx)) << (4U * (position & 0x03U)));
 8003298:	2400      	movs	r4, #0
 800329a:	e7d5      	b.n	8003248 <HAL_GPIO_Init+0x120>
 800329c:	2401      	movs	r4, #1
 800329e:	e7d3      	b.n	8003248 <HAL_GPIO_Init+0x120>
 80032a0:	2402      	movs	r4, #2
 80032a2:	e7d1      	b.n	8003248 <HAL_GPIO_Init+0x120>
 80032a4:	2403      	movs	r4, #3
 80032a6:	e7cf      	b.n	8003248 <HAL_GPIO_Init+0x120>
 80032a8:	40013c00 	.word	0x40013c00
 80032ac:	40020000 	.word	0x40020000
 80032b0:	40023800 	.word	0x40023800

080032b4 <HAL_GPIO_WritePin>:
{
  /* Check the parameters */
  assert_param(IS_GPIO_PIN(GPIO_Pin));
  assert_param(IS_GPIO_PIN_ACTION(PinState));

  if(PinState != GPIO_PIN_RESET)
 80032b4:	b10a      	cbz	r2, 80032ba <HAL_GPIO_WritePin+0x6>
  {
    GPIOx->BSRR = GPIO_Pin;
  }
  else
  {
    GPIOx->BSRR = (uint32_t)GPIO_Pin << 16U;
 80032b6:	6181      	str	r1, [r0, #24]
  }
}
 80032b8:	4770      	bx	lr
    GPIOx->BSRR = (uint32_t)GPIO_Pin << 16U;
 80032ba:	0409      	lsls	r1, r1, #16
 80032bc:	e7fb      	b.n	80032b6 <HAL_GPIO_WritePin+0x2>

080032be <I2C_IsAcknowledgeFailed>:
  *                the configuration information for the specified I2C.
  * @retval HAL status
  */
static HAL_StatusTypeDef I2C_IsAcknowledgeFailed(I2C_HandleTypeDef *hi2c)
{
  if (__HAL_I2C_GET_FLAG(hi2c, I2C_FLAG_AF) == SET)
 80032be:	6801      	ldr	r1, [r0, #0]
 80032c0:	694b      	ldr	r3, [r1, #20]
 80032c2:	f413 6380 	ands.w	r3, r3, #1024	@ 0x400
 80032c6:	f04f 0200 	mov.w	r2, #0
 80032ca:	d010      	beq.n	80032ee <I2C_IsAcknowledgeFailed+0x30>
  {
    /* Clear NACKF Flag */
    __HAL_I2C_CLEAR_FLAG(hi2c, I2C_FLAG_AF);
 80032cc:	f46f 6380 	mvn.w	r3, #1024	@ 0x400
 80032d0:	614b      	str	r3, [r1, #20]

    hi2c->PreviousState       = I2C_STATE_NONE;
    hi2c->State               = HAL_I2C_STATE_READY;
 80032d2:	2320      	movs	r3, #32
    hi2c->PreviousState       = I2C_STATE_NONE;
 80032d4:	6302      	str	r2, [r0, #48]	@ 0x30
    hi2c->State               = HAL_I2C_STATE_READY;
 80032d6:	f880 303d 	strb.w	r3, [r0, #61]	@ 0x3d
    hi2c->Mode                = HAL_I2C_MODE_NONE;
 80032da:	f880 203e 	strb.w	r2, [r0, #62]	@ 0x3e
    hi2c->ErrorCode           |= HAL_I2C_ERROR_AF;
 80032de:	6c03      	ldr	r3, [r0, #64]	@ 0x40

    /* Process Unlocked */
    __HAL_UNLOCK(hi2c);
 80032e0:	f880 203c 	strb.w	r2, [r0, #60]	@ 0x3c
    hi2c->ErrorCode           |= HAL_I2C_ERROR_AF;
 80032e4:	f043 0304 	orr.w	r3, r3, #4
 80032e8:	6403      	str	r3, [r0, #64]	@ 0x40

    return HAL_ERROR;
 80032ea:	2001      	movs	r0, #1
 80032ec:	4770      	bx	lr
  }
  return HAL_OK;
 80032ee:	4618      	mov	r0, r3
}
 80032f0:	4770      	bx	lr

080032f2 <I2C_WaitOnFlagUntilTimeout>:
{
 80032f2:	e92d 46f8 	stmdb	sp!, {r3, r4, r5, r6, r7, r9, sl, lr}
 80032f6:	4606      	mov	r6, r0
 80032f8:	460f      	mov	r7, r1
 80032fa:	4691      	mov	r9, r2
 80032fc:	461d      	mov	r5, r3
  while (__HAL_I2C_GET_FLAG(hi2c, Flag) == Status)
 80032fe:	ea4f 4a11 	mov.w	sl, r1, lsr #16
 8003302:	6833      	ldr	r3, [r6, #0]
 8003304:	f1ba 0f01 	cmp.w	sl, #1
 8003308:	bf0c      	ite	eq
 800330a:	695c      	ldreq	r4, [r3, #20]
 800330c:	699c      	ldrne	r4, [r3, #24]
 800330e:	ea27 0404 	bic.w	r4, r7, r4
 8003312:	b2a4      	uxth	r4, r4
 8003314:	fab4 f484 	clz	r4, r4
 8003318:	0964      	lsrs	r4, r4, #5
 800331a:	45a1      	cmp	r9, r4
 800331c:	d001      	beq.n	8003322 <I2C_WaitOnFlagUntilTimeout+0x30>
  return HAL_OK;
 800331e:	2000      	movs	r0, #0
 8003320:	e025      	b.n	800336e <I2C_WaitOnFlagUntilTimeout+0x7c>
    if (Timeout != HAL_MAX_DELAY)
 8003322:	1c6a      	adds	r2, r5, #1
 8003324:	d0ee      	beq.n	8003304 <I2C_WaitOnFlagUntilTimeout+0x12>
      if (((HAL_GetTick() - Tickstart) > Timeout) || (Timeout == 0U))
 8003326:	f7ff fcb7 	bl	8002c98 <HAL_GetTick>
 800332a:	9b08      	ldr	r3, [sp, #32]
 800332c:	1ac0      	subs	r0, r0, r3
 800332e:	42a8      	cmp	r0, r5
 8003330:	d801      	bhi.n	8003336 <I2C_WaitOnFlagUntilTimeout+0x44>
 8003332:	2d00      	cmp	r5, #0
 8003334:	d1e5      	bne.n	8003302 <I2C_WaitOnFlagUntilTimeout+0x10>
        if ((__HAL_I2C_GET_FLAG(hi2c, Flag) == Status))
 8003336:	6833      	ldr	r3, [r6, #0]
 8003338:	f1ba 0f01 	cmp.w	sl, #1
 800333c:	bf0c      	ite	eq
 800333e:	695b      	ldreq	r3, [r3, #20]
 8003340:	699b      	ldrne	r3, [r3, #24]
 8003342:	ea27 0303 	bic.w	r3, r7, r3
 8003346:	b29b      	uxth	r3, r3
 8003348:	fab3 f383 	clz	r3, r3
 800334c:	095b      	lsrs	r3, r3, #5
 800334e:	4599      	cmp	r9, r3
 8003350:	d1d7      	bne.n	8003302 <I2C_WaitOnFlagUntilTimeout+0x10>
          hi2c->PreviousState     = I2C_STATE_NONE;
 8003352:	2300      	movs	r3, #0
          hi2c->State             = HAL_I2C_STATE_READY;
 8003354:	2220      	movs	r2, #32
          hi2c->PreviousState     = I2C_STATE_NONE;
 8003356:	6333      	str	r3, [r6, #48]	@ 0x30
          hi2c->State             = HAL_I2C_STATE_READY;
 8003358:	f886 203d 	strb.w	r2, [r6, #61]	@ 0x3d
          hi2c->Mode              = HAL_I2C_MODE_NONE;
 800335c:	f886 303e 	strb.w	r3, [r6, #62]	@ 0x3e
          hi2c->ErrorCode         |= HAL_I2C_ERROR_TIMEOUT;
 8003360:	6c32      	ldr	r2, [r6, #64]	@ 0x40
          __HAL_UNLOCK(hi2c);
 8003362:	f886 303c 	strb.w	r3, [r6, #60]	@ 0x3c
          hi2c->ErrorCode         |= HAL_I2C_ERROR_TIMEOUT;
 8003366:	f042 0220 	orr.w	r2, r2, #32
 800336a:	6432      	str	r2, [r6, #64]	@ 0x40
          return HAL_ERROR;
 800336c:	2001      	movs	r0, #1
}
 800336e:	e8bd 86f8 	ldmia.w	sp!, {r3, r4, r5, r6, r7, r9, sl, pc}

08003372 <I2C_WaitOnMasterAddressFlagUntilTimeout>:
{
 8003372:	e92d 41f0 	stmdb	sp!, {r4, r5, r6, r7, r8, lr}
 8003376:	4604      	mov	r4, r0
 8003378:	460f      	mov	r7, r1
 800337a:	4616      	mov	r6, r2
 800337c:	4698      	mov	r8, r3
  while (__HAL_I2C_GET_FLAG(hi2c, Flag) == RESET)
 800337e:	6825      	ldr	r5, [r4, #0]
 8003380:	6968      	ldr	r0, [r5, #20]
 8003382:	ea27 0000 	bic.w	r0, r7, r0
 8003386:	b280      	uxth	r0, r0
 8003388:	b1c0      	cbz	r0, 80033bc <I2C_WaitOnMasterAddressFlagUntilTimeout+0x4a>
    if (__HAL_I2C_GET_FLAG(hi2c, I2C_FLAG_AF) == SET)
 800338a:	696b      	ldr	r3, [r5, #20]
 800338c:	055a      	lsls	r2, r3, #21
 800338e:	d517      	bpl.n	80033c0 <I2C_WaitOnMasterAddressFlagUntilTimeout+0x4e>
      SET_BIT(hi2c->Instance->CR1, I2C_CR1_STOP);
 8003390:	682b      	ldr	r3, [r5, #0]
 8003392:	f443 7300 	orr.w	r3, r3, #512	@ 0x200
 8003396:	602b      	str	r3, [r5, #0]
      __HAL_I2C_CLEAR_FLAG(hi2c, I2C_FLAG_AF);
 8003398:	f46f 6380 	mvn.w	r3, #1024	@ 0x400
 800339c:	616b      	str	r3, [r5, #20]
      hi2c->State               = HAL_I2C_STATE_READY;
 800339e:	2220      	movs	r2, #32
      hi2c->PreviousState       = I2C_STATE_NONE;
 80033a0:	2300      	movs	r3, #0
 80033a2:	6323      	str	r3, [r4, #48]	@ 0x30
      hi2c->State               = HAL_I2C_STATE_READY;
 80033a4:	f884 203d 	strb.w	r2, [r4, #61]	@ 0x3d
      hi2c->Mode                = HAL_I2C_MODE_NONE;
 80033a8:	f884 303e 	strb.w	r3, [r4, #62]	@ 0x3e
      hi2c->ErrorCode           |= HAL_I2C_ERROR_AF;
 80033ac:	6c23      	ldr	r3, [r4, #64]	@ 0x40
 80033ae:	f043 0304 	orr.w	r3, r3, #4
          hi2c->ErrorCode           |= HAL_I2C_ERROR_TIMEOUT;
 80033b2:	6423      	str	r3, [r4, #64]	@ 0x40
          __HAL_UNLOCK(hi2c);
 80033b4:	2300      	movs	r3, #0
 80033b6:	f884 303c 	strb.w	r3, [r4, #60]	@ 0x3c
      return HAL_ERROR;
 80033ba:	2001      	movs	r0, #1
}
 80033bc:	e8bd 81f0 	ldmia.w	sp!, {r4, r5, r6, r7, r8, pc}
    if (Timeout != HAL_MAX_DELAY)
 80033c0:	1c73      	adds	r3, r6, #1
 80033c2:	d0dd      	beq.n	8003380 <I2C_WaitOnMasterAddressFlagUntilTimeout+0xe>
      if (((HAL_GetTick() - Tickstart) > Timeout) || (Timeout == 0U))
 80033c4:	f7ff fc68 	bl	8002c98 <HAL_GetTick>
 80033c8:	eba0 0008 	sub.w	r0, r0, r8
 80033cc:	42b0      	cmp	r0, r6
 80033ce:	d801      	bhi.n	80033d4 <I2C_WaitOnMasterAddressFlagUntilTimeout+0x62>
 80033d0:	2e00      	cmp	r6, #0
 80033d2:	d1d4      	bne.n	800337e <I2C_WaitOnMasterAddressFlagUntilTimeout+0xc>
        if ((__HAL_I2C_GET_FLAG(hi2c, Flag) == RESET))
 80033d4:	6823      	ldr	r3, [r4, #0]
 80033d6:	695a      	ldr	r2, [r3, #20]
 80033d8:	ea27 0202 	bic.w	r2, r7, r2
 80033dc:	b292      	uxth	r2, r2
 80033de:	2a00      	cmp	r2, #0
 80033e0:	d0cd      	beq.n	800337e <I2C_WaitOnMasterAddressFlagUntilTimeout+0xc>
          hi2c->PreviousState       = I2C_STATE_NONE;
 80033e2:	2300      	movs	r3, #0
          hi2c->State               = HAL_I2C_STATE_READY;
 80033e4:	2220      	movs	r2, #32
          hi2c->PreviousState       = I2C_STATE_NONE;
 80033e6:	6323      	str	r3, [r4, #48]	@ 0x30
          hi2c->State               = HAL_I2C_STATE_READY;
 80033e8:	f884 203d 	strb.w	r2, [r4, #61]	@ 0x3d
          hi2c->Mode                = HAL_I2C_MODE_NONE;
 80033ec:	f884 303e 	strb.w	r3, [r4, #62]	@ 0x3e
          hi2c->ErrorCode           |= HAL_I2C_ERROR_TIMEOUT;
 80033f0:	6c23      	ldr	r3, [r4, #64]	@ 0x40
 80033f2:	4313      	orrs	r3, r2
 80033f4:	e7dd      	b.n	80033b2 <I2C_WaitOnMasterAddressFlagUntilTimeout+0x40>

080033f6 <I2C_WaitOnTXEFlagUntilTimeout>:
{
 80033f6:	b570      	push	{r4, r5, r6, lr}
 80033f8:	4604      	mov	r4, r0
 80033fa:	460d      	mov	r5, r1
 80033fc:	4616      	mov	r6, r2
  while (__HAL_I2C_GET_FLAG(hi2c, I2C_FLAG_TXE) == RESET)
 80033fe:	6823      	ldr	r3, [r4, #0]
 8003400:	695b      	ldr	r3, [r3, #20]
 8003402:	061b      	lsls	r3, r3, #24
 8003404:	d501      	bpl.n	800340a <I2C_WaitOnTXEFlagUntilTimeout+0x14>
  return HAL_OK;
 8003406:	2000      	movs	r0, #0
 8003408:	e01e      	b.n	8003448 <I2C_WaitOnTXEFlagUntilTimeout+0x52>
    if (I2C_IsAcknowledgeFailed(hi2c) != HAL_OK)
 800340a:	4620      	mov	r0, r4
 800340c:	f7ff ff57 	bl	80032be <I2C_IsAcknowledgeFailed>
 8003410:	b9c8      	cbnz	r0, 8003446 <I2C_WaitOnTXEFlagUntilTimeout+0x50>
    if (Timeout != HAL_MAX_DELAY)
 8003412:	1c6a      	adds	r2, r5, #1
 8003414:	d0f3      	beq.n	80033fe <I2C_WaitOnTXEFlagUntilTimeout+0x8>
      if (((HAL_GetTick() - Tickstart) > Timeout) || (Timeout == 0U))
 8003416:	f7ff fc3f 	bl	8002c98 <HAL_GetTick>
 800341a:	1b80      	subs	r0, r0, r6
 800341c:	42a8      	cmp	r0, r5
 800341e:	d801      	bhi.n	8003424 <I2C_WaitOnTXEFlagUntilTimeout+0x2e>
 8003420:	2d00      	cmp	r5, #0
 8003422:	d1ec      	bne.n	80033fe <I2C_WaitOnTXEFlagUntilTimeout+0x8>
        if ((__HAL_I2C_GET_FLAG(hi2c, I2C_FLAG_TXE) == RESET))
 8003424:	6823      	ldr	r3, [r4, #0]
 8003426:	695b      	ldr	r3, [r3, #20]
 8003428:	f013 0380 	ands.w	r3, r3, #128	@ 0x80
 800342c:	d1e7      	bne.n	80033fe <I2C_WaitOnTXEFlagUntilTimeout+0x8>
          hi2c->State               = HAL_I2C_STATE_READY;
 800342e:	2220      	movs	r2, #32
          hi2c->PreviousState       = I2C_STATE_NONE;
 8003430:	6323      	str	r3, [r4, #48]	@ 0x30
          hi2c->State               = HAL_I2C_STATE_READY;
 8003432:	f884 203d 	strb.w	r2, [r4, #61]	@ 0x3d
          hi2c->Mode                = HAL_I2C_MODE_NONE;
 8003436:	f884 303e 	strb.w	r3, [r4, #62]	@ 0x3e
          hi2c->ErrorCode           |= HAL_I2C_ERROR_TIMEOUT;
 800343a:	6c22      	ldr	r2, [r4, #64]	@ 0x40
          __HAL_UNLOCK(hi2c);
 800343c:	f884 303c 	strb.w	r3, [r4, #60]	@ 0x3c
          hi2c->ErrorCode           |= HAL_I2C_ERROR_TIMEOUT;
 8003440:	f042 0220 	orr.w	r2, r2, #32
 8003444:	6422      	str	r2, [r4, #64]	@ 0x40
      return HAL_ERROR;
 8003446:	2001      	movs	r0, #1
}
 8003448:	bd70      	pop	{r4, r5, r6, pc}
	...

0800344c <I2C_RequestMemoryWrite>:
{
 800344c:	e92d 43f0 	stmdb	sp!, {r4, r5, r6, r7, r8, r9, lr}
 8003450:	4615      	mov	r5, r2
  SET_BIT(hi2c->Instance->CR1, I2C_CR1_START);
 8003452:	6802      	ldr	r2, [r0, #0]
{
 8003454:	b085      	sub	sp, #20
 8003456:	e9dd 780c 	ldrd	r7, r8, [sp, #48]	@ 0x30
 800345a:	4699      	mov	r9, r3
  SET_BIT(hi2c->Instance->CR1, I2C_CR1_START);
 800345c:	6813      	ldr	r3, [r2, #0]
 800345e:	f443 7380 	orr.w	r3, r3, #256	@ 0x100
 8003462:	6013      	str	r3, [r2, #0]
{
 8003464:	460e      	mov	r6, r1
  if (I2C_WaitOnFlagUntilTimeout(hi2c, I2C_FLAG_SB, RESET, Timeout, Tickstart) != HAL_OK)
 8003466:	463b      	mov	r3, r7
 8003468:	f8cd 8000 	str.w	r8, [sp]
 800346c:	2200      	movs	r2, #0
 800346e:	f04f 1101 	mov.w	r1, #65537	@ 0x10001
{
 8003472:	4604      	mov	r4, r0
  if (I2C_WaitOnFlagUntilTimeout(hi2c, I2C_FLAG_SB, RESET, Timeout, Tickstart) != HAL_OK)
 8003474:	f7ff ff3d 	bl	80032f2 <I2C_WaitOnFlagUntilTimeout>
 8003478:	6823      	ldr	r3, [r4, #0]
 800347a:	b138      	cbz	r0, 800348c <I2C_RequestMemoryWrite+0x40>
    if (READ_BIT(hi2c->Instance->CR1, I2C_CR1_START) == I2C_CR1_START)
 800347c:	681b      	ldr	r3, [r3, #0]
 800347e:	05db      	lsls	r3, r3, #23
 8003480:	d502      	bpl.n	8003488 <I2C_RequestMemoryWrite+0x3c>
      hi2c->ErrorCode = HAL_I2C_WRONG_START;
 8003482:	f44f 7300 	mov.w	r3, #512	@ 0x200
 8003486:	6423      	str	r3, [r4, #64]	@ 0x40
    return HAL_TIMEOUT;
 8003488:	2603      	movs	r6, #3
 800348a:	e020      	b.n	80034ce <I2C_RequestMemoryWrite+0x82>
  hi2c->Instance->DR = I2C_7BIT_ADD_WRITE(DevAddress);
 800348c:	f006 06fe 	and.w	r6, r6, #254	@ 0xfe
 8003490:	611e      	str	r6, [r3, #16]
  if (I2C_WaitOnMasterAddressFlagUntilTimeout(hi2c, I2C_FLAG_ADDR, Timeout, Tickstart) != HAL_OK)
 8003492:	491a      	ldr	r1, [pc, #104]	@ (80034fc <I2C_RequestMemoryWrite+0xb0>)
 8003494:	4643      	mov	r3, r8
 8003496:	463a      	mov	r2, r7
 8003498:	4620      	mov	r0, r4
 800349a:	f7ff ff6a 	bl	8003372 <I2C_WaitOnMasterAddressFlagUntilTimeout>
 800349e:	b9a8      	cbnz	r0, 80034cc <I2C_RequestMemoryWrite+0x80>
  __HAL_I2C_CLEAR_ADDRFLAG(hi2c);
 80034a0:	6823      	ldr	r3, [r4, #0]
 80034a2:	9003      	str	r0, [sp, #12]
 80034a4:	695a      	ldr	r2, [r3, #20]
 80034a6:	9203      	str	r2, [sp, #12]
 80034a8:	699b      	ldr	r3, [r3, #24]
 80034aa:	9303      	str	r3, [sp, #12]
  if (I2C_WaitOnTXEFlagUntilTimeout(hi2c, Timeout, Tickstart) != HAL_OK)
 80034ac:	4642      	mov	r2, r8
 80034ae:	4639      	mov	r1, r7
 80034b0:	4620      	mov	r0, r4
  __HAL_I2C_CLEAR_ADDRFLAG(hi2c);
 80034b2:	9b03      	ldr	r3, [sp, #12]
  if (I2C_WaitOnTXEFlagUntilTimeout(hi2c, Timeout, Tickstart) != HAL_OK)
 80034b4:	f7ff ff9f 	bl	80033f6 <I2C_WaitOnTXEFlagUntilTimeout>
 80034b8:	4606      	mov	r6, r0
 80034ba:	b160      	cbz	r0, 80034d6 <I2C_RequestMemoryWrite+0x8a>
    if (hi2c->ErrorCode == HAL_I2C_ERROR_AF)
 80034bc:	6c23      	ldr	r3, [r4, #64]	@ 0x40
 80034be:	2b04      	cmp	r3, #4
      SET_BIT(hi2c->Instance->CR1, I2C_CR1_STOP);
 80034c0:	bf01      	itttt	eq
 80034c2:	6822      	ldreq	r2, [r4, #0]
 80034c4:	6813      	ldreq	r3, [r2, #0]
 80034c6:	f443 7300 	orreq.w	r3, r3, #512	@ 0x200
 80034ca:	6013      	streq	r3, [r2, #0]
    return HAL_ERROR;
 80034cc:	2601      	movs	r6, #1
}
 80034ce:	4630      	mov	r0, r6
 80034d0:	b005      	add	sp, #20
 80034d2:	e8bd 83f0 	ldmia.w	sp!, {r4, r5, r6, r7, r8, r9, pc}
  if (MemAddSize == I2C_MEMADD_SIZE_8BIT)
 80034d6:	f1b9 0f01 	cmp.w	r9, #1
      SET_BIT(hi2c->Instance->CR1, I2C_CR1_STOP);
 80034da:	6823      	ldr	r3, [r4, #0]
  if (MemAddSize == I2C_MEMADD_SIZE_8BIT)
 80034dc:	d102      	bne.n	80034e4 <I2C_RequestMemoryWrite+0x98>
    hi2c->Instance->DR = I2C_MEM_ADD_LSB(MemAddress);
 80034de:	b2ed      	uxtb	r5, r5
 80034e0:	611d      	str	r5, [r3, #16]
 80034e2:	e7f4      	b.n	80034ce <I2C_RequestMemoryWrite+0x82>
    hi2c->Instance->DR = I2C_MEM_ADD_MSB(MemAddress);
 80034e4:	0a2a      	lsrs	r2, r5, #8
 80034e6:	611a      	str	r2, [r3, #16]
    if (I2C_WaitOnTXEFlagUntilTimeout(hi2c, Timeout, Tickstart) != HAL_OK)
 80034e8:	4639      	mov	r1, r7
 80034ea:	4642      	mov	r2, r8
 80034ec:	4620      	mov	r0, r4
 80034ee:	f7ff ff82 	bl	80033f6 <I2C_WaitOnTXEFlagUntilTimeout>
 80034f2:	2800      	cmp	r0, #0
 80034f4:	d1e2      	bne.n	80034bc <I2C_RequestMemoryWrite+0x70>
    hi2c->Instance->DR = I2C_MEM_ADD_LSB(MemAddress);
 80034f6:	6823      	ldr	r3, [r4, #0]
 80034f8:	e7f1      	b.n	80034de <I2C_RequestMemoryWrite+0x92>
 80034fa:	bf00      	nop
 80034fc:	00010002 	.word	0x00010002

08003500 <I2C_RequestMemoryRead>:
{
 8003500:	e92d 47ff 	stmdb	sp!, {r0, r1, r2, r3, r4, r5, r6, r7, r8, r9, sl, lr}
 8003504:	469a      	mov	sl, r3
  SET_BIT(hi2c->Instance->CR1, I2C_CR1_ACK);
 8003506:	6803      	ldr	r3, [r0, #0]
{
 8003508:	4615      	mov	r5, r2
  SET_BIT(hi2c->Instance->CR1, I2C_CR1_ACK);
 800350a:	681a      	ldr	r2, [r3, #0]
 800350c:	f442 6280 	orr.w	r2, r2, #1024	@ 0x400
 8003510:	601a      	str	r2, [r3, #0]
  SET_BIT(hi2c->Instance->CR1, I2C_CR1_START);
 8003512:	681a      	ldr	r2, [r3, #0]
{
 8003514:	e9dd 780c 	ldrd	r7, r8, [sp, #48]	@ 0x30
  SET_BIT(hi2c->Instance->CR1, I2C_CR1_START);
 8003518:	f442 7280 	orr.w	r2, r2, #256	@ 0x100
 800351c:	601a      	str	r2, [r3, #0]
{
 800351e:	460e      	mov	r6, r1
  if (I2C_WaitOnFlagUntilTimeout(hi2c, I2C_FLAG_SB, RESET, Timeout, Tickstart) != HAL_OK)
 8003520:	463b      	mov	r3, r7
 8003522:	f8cd 8000 	str.w	r8, [sp]
 8003526:	2200      	movs	r2, #0
 8003528:	f04f 1101 	mov.w	r1, #65537	@ 0x10001
{
 800352c:	4604      	mov	r4, r0
  if (I2C_WaitOnFlagUntilTimeout(hi2c, I2C_FLAG_SB, RESET, Timeout, Tickstart) != HAL_OK)
 800352e:	f7ff fee0 	bl	80032f2 <I2C_WaitOnFlagUntilTimeout>
 8003532:	6823      	ldr	r3, [r4, #0]
 8003534:	b138      	cbz	r0, 8003546 <I2C_RequestMemoryRead+0x46>
    if (READ_BIT(hi2c->Instance->CR1, I2C_CR1_START) == I2C_CR1_START)
 8003536:	681b      	ldr	r3, [r3, #0]
    if (READ_BIT(hi2c->Instance->CR1, I2C_CR1_START) == I2C_CR1_START)
 8003538:	05db      	lsls	r3, r3, #23
      hi2c->ErrorCode = HAL_I2C_WRONG_START;
 800353a:	bf44      	itt	mi
 800353c:	f44f 7300 	movmi.w	r3, #512	@ 0x200
 8003540:	6423      	strmi	r3, [r4, #64]	@ 0x40
    return HAL_TIMEOUT;
 8003542:	2003      	movs	r0, #3
 8003544:	e021      	b.n	800358a <I2C_RequestMemoryRead+0x8a>
  hi2c->Instance->DR = I2C_7BIT_ADD_WRITE(DevAddress);
 8003546:	fa5f f986 	uxtb.w	r9, r6
 800354a:	f006 06fe 	and.w	r6, r6, #254	@ 0xfe
 800354e:	611e      	str	r6, [r3, #16]
  if (I2C_WaitOnMasterAddressFlagUntilTimeout(hi2c, I2C_FLAG_ADDR, Timeout, Tickstart) != HAL_OK)
 8003550:	492b      	ldr	r1, [pc, #172]	@ (8003600 <I2C_RequestMemoryRead+0x100>)
 8003552:	4643      	mov	r3, r8
 8003554:	463a      	mov	r2, r7
 8003556:	4620      	mov	r0, r4
 8003558:	f7ff ff0b 	bl	8003372 <I2C_WaitOnMasterAddressFlagUntilTimeout>
 800355c:	b9a0      	cbnz	r0, 8003588 <I2C_RequestMemoryRead+0x88>
  __HAL_I2C_CLEAR_ADDRFLAG(hi2c);
 800355e:	6823      	ldr	r3, [r4, #0]
 8003560:	9003      	str	r0, [sp, #12]
 8003562:	695a      	ldr	r2, [r3, #20]
 8003564:	9203      	str	r2, [sp, #12]
 8003566:	699b      	ldr	r3, [r3, #24]
 8003568:	9303      	str	r3, [sp, #12]
  if (I2C_WaitOnTXEFlagUntilTimeout(hi2c, Timeout, Tickstart) != HAL_OK)
 800356a:	4642      	mov	r2, r8
 800356c:	4639      	mov	r1, r7
 800356e:	4620      	mov	r0, r4
  __HAL_I2C_CLEAR_ADDRFLAG(hi2c);
 8003570:	9b03      	ldr	r3, [sp, #12]
  if (I2C_WaitOnTXEFlagUntilTimeout(hi2c, Timeout, Tickstart) != HAL_OK)
 8003572:	f7ff ff40 	bl	80033f6 <I2C_WaitOnTXEFlagUntilTimeout>
 8003576:	b158      	cbz	r0, 8003590 <I2C_RequestMemoryRead+0x90>
    if (hi2c->ErrorCode == HAL_I2C_ERROR_AF)
 8003578:	6c23      	ldr	r3, [r4, #64]	@ 0x40
 800357a:	2b04      	cmp	r3, #4
      SET_BIT(hi2c->Instance->CR1, I2C_CR1_STOP);
 800357c:	bf01      	itttt	eq
 800357e:	6822      	ldreq	r2, [r4, #0]
 8003580:	6813      	ldreq	r3, [r2, #0]
 8003582:	f443 7300 	orreq.w	r3, r3, #512	@ 0x200
 8003586:	6013      	streq	r3, [r2, #0]
    return HAL_ERROR;
 8003588:	2001      	movs	r0, #1
}
 800358a:	b004      	add	sp, #16
 800358c:	e8bd 87f0 	ldmia.w	sp!, {r4, r5, r6, r7, r8, r9, sl, pc}
  if (MemAddSize == I2C_MEMADD_SIZE_8BIT)
 8003590:	f1ba 0f01 	cmp.w	sl, #1
      SET_BIT(hi2c->Instance->CR1, I2C_CR1_STOP);
 8003594:	6823      	ldr	r3, [r4, #0]
  if (MemAddSize == I2C_MEMADD_SIZE_8BIT)
 8003596:	d11a      	bne.n	80035ce <I2C_RequestMemoryRead+0xce>
    hi2c->Instance->DR = I2C_MEM_ADD_LSB(MemAddress);
 8003598:	b2ed      	uxtb	r5, r5
  if (I2C_WaitOnTXEFlagUntilTimeout(hi2c, Timeout, Tickstart) != HAL_OK)
 800359a:	4642      	mov	r2, r8
    hi2c->Instance->DR = I2C_MEM_ADD_LSB(MemAddress);
 800359c:	611d      	str	r5, [r3, #16]
  if (I2C_WaitOnTXEFlagUntilTimeout(hi2c, Timeout, Tickstart) != HAL_OK)
 800359e:	4639      	mov	r1, r7
 80035a0:	4620      	mov	r0, r4
 80035a2:	f7ff ff28 	bl	80033f6 <I2C_WaitOnTXEFlagUntilTimeout>
 80035a6:	4602      	mov	r2, r0
 80035a8:	2800      	cmp	r0, #0
 80035aa:	d1e5      	bne.n	8003578 <I2C_RequestMemoryRead+0x78>
  SET_BIT(hi2c->Instance->CR1, I2C_CR1_START);
 80035ac:	6821      	ldr	r1, [r4, #0]
 80035ae:	680b      	ldr	r3, [r1, #0]
 80035b0:	f443 7380 	orr.w	r3, r3, #256	@ 0x100
 80035b4:	600b      	str	r3, [r1, #0]
  if (I2C_WaitOnFlagUntilTimeout(hi2c, I2C_FLAG_SB, RESET, Timeout, Tickstart) != HAL_OK)
 80035b6:	4620      	mov	r0, r4
 80035b8:	f8cd 8000 	str.w	r8, [sp]
 80035bc:	463b      	mov	r3, r7
 80035be:	f04f 1101 	mov.w	r1, #65537	@ 0x10001
 80035c2:	f7ff fe96 	bl	80032f2 <I2C_WaitOnFlagUntilTimeout>
 80035c6:	6822      	ldr	r2, [r4, #0]
 80035c8:	b160      	cbz	r0, 80035e4 <I2C_RequestMemoryRead+0xe4>
    if (READ_BIT(hi2c->Instance->CR1, I2C_CR1_START) == I2C_CR1_START)
 80035ca:	6813      	ldr	r3, [r2, #0]
 80035cc:	e7b4      	b.n	8003538 <I2C_RequestMemoryRead+0x38>
    hi2c->Instance->DR = I2C_MEM_ADD_MSB(MemAddress);
 80035ce:	0a2a      	lsrs	r2, r5, #8
 80035d0:	611a      	str	r2, [r3, #16]
    if (I2C_WaitOnTXEFlagUntilTimeout(hi2c, Timeout, Tickstart) != HAL_OK)
 80035d2:	4639      	mov	r1, r7
 80035d4:	4642      	mov	r2, r8
 80035d6:	4620      	mov	r0, r4
 80035d8:	f7ff ff0d 	bl	80033f6 <I2C_WaitOnTXEFlagUntilTimeout>
 80035dc:	2800      	cmp	r0, #0
 80035de:	d1cb      	bne.n	8003578 <I2C_RequestMemoryRead+0x78>
    hi2c->Instance->DR = I2C_MEM_ADD_LSB(MemAddress);
 80035e0:	6823      	ldr	r3, [r4, #0]
 80035e2:	e7d9      	b.n	8003598 <I2C_RequestMemoryRead+0x98>
  hi2c->Instance->DR = I2C_7BIT_ADD_READ(DevAddress);
 80035e4:	f049 0301 	orr.w	r3, r9, #1
 80035e8:	6113      	str	r3, [r2, #16]
  if (I2C_WaitOnMasterAddressFlagUntilTimeout(hi2c, I2C_FLAG_ADDR, Timeout, Tickstart) != HAL_OK)
 80035ea:	4905      	ldr	r1, [pc, #20]	@ (8003600 <I2C_RequestMemoryRead+0x100>)
 80035ec:	4643      	mov	r3, r8
 80035ee:	463a      	mov	r2, r7
 80035f0:	4620      	mov	r0, r4
 80035f2:	f7ff febe 	bl	8003372 <I2C_WaitOnMasterAddressFlagUntilTimeout>
 80035f6:	3800      	subs	r0, #0
 80035f8:	bf18      	it	ne
 80035fa:	2001      	movne	r0, #1
 80035fc:	e7c5      	b.n	800358a <I2C_RequestMemoryRead+0x8a>
 80035fe:	bf00      	nop
 8003600:	00010002 	.word	0x00010002

08003604 <I2C_WaitOnBTFFlagUntilTimeout>:
{
 8003604:	b570      	push	{r4, r5, r6, lr}
 8003606:	4604      	mov	r4, r0
 8003608:	460d      	mov	r5, r1
 800360a:	4616      	mov	r6, r2
  while (__HAL_I2C_GET_FLAG(hi2c, I2C_FLAG_BTF) == RESET)
 800360c:	6823      	ldr	r3, [r4, #0]
 800360e:	695b      	ldr	r3, [r3, #20]
 8003610:	075b      	lsls	r3, r3, #29
 8003612:	d501      	bpl.n	8003618 <I2C_WaitOnBTFFlagUntilTimeout+0x14>
  return HAL_OK;
 8003614:	2000      	movs	r0, #0
 8003616:	e01e      	b.n	8003656 <I2C_WaitOnBTFFlagUntilTimeout+0x52>
    if (I2C_IsAcknowledgeFailed(hi2c) != HAL_OK)
 8003618:	4620      	mov	r0, r4
 800361a:	f7ff fe50 	bl	80032be <I2C_IsAcknowledgeFailed>
 800361e:	b9c8      	cbnz	r0, 8003654 <I2C_WaitOnBTFFlagUntilTimeout+0x50>
    if (Timeout != HAL_MAX_DELAY)
 8003620:	1c6a      	adds	r2, r5, #1
 8003622:	d0f3      	beq.n	800360c <I2C_WaitOnBTFFlagUntilTimeout+0x8>
      if (((HAL_GetTick() - Tickstart) > Timeout) || (Timeout == 0U))
 8003624:	f7ff fb38 	bl	8002c98 <HAL_GetTick>
 8003628:	1b80      	subs	r0, r0, r6
 800362a:	42a8      	cmp	r0, r5
 800362c:	d801      	bhi.n	8003632 <I2C_WaitOnBTFFlagUntilTimeout+0x2e>
 800362e:	2d00      	cmp	r5, #0
 8003630:	d1ec      	bne.n	800360c <I2C_WaitOnBTFFlagUntilTimeout+0x8>
        if ((__HAL_I2C_GET_FLAG(hi2c, I2C_FLAG_BTF) == RESET))
 8003632:	6823      	ldr	r3, [r4, #0]
 8003634:	695b      	ldr	r3, [r3, #20]
 8003636:	f013 0304 	ands.w	r3, r3, #4
 800363a:	d1e7      	bne.n	800360c <I2C_WaitOnBTFFlagUntilTimeout+0x8>
          hi2c->State               = HAL_I2C_STATE_READY;
 800363c:	2220      	movs	r2, #32
          hi2c->PreviousState       = I2C_STATE_NONE;
 800363e:	6323      	str	r3, [r4, #48]	@ 0x30
          hi2c->State               = HAL_I2C_STATE_READY;
 8003640:	f884 203d 	strb.w	r2, [r4, #61]	@ 0x3d
          hi2c->Mode                = HAL_I2C_MODE_NONE;
 8003644:	f884 303e 	strb.w	r3, [r4, #62]	@ 0x3e
          hi2c->ErrorCode           |= HAL_I2C_ERROR_TIMEOUT;
 8003648:	6c22      	ldr	r2, [r4, #64]	@ 0x40
          __HAL_UNLOCK(hi2c);
 800364a:	f884 303c 	strb.w	r3, [r4, #60]	@ 0x3c
          hi2c->ErrorCode           |= HAL_I2C_ERROR_TIMEOUT;
 800364e:	f042 0220 	orr.w	r2, r2, #32
 8003652:	6422      	str	r2, [r4, #64]	@ 0x40
      return HAL_ERROR;
 8003654:	2001      	movs	r0, #1
}
 8003656:	bd70      	pop	{r4, r5, r6, pc}

08003658 <I2C_WaitOnRXNEFlagUntilTimeout>:
{
 8003658:	b570      	push	{r4, r5, r6, lr}
 800365a:	4604      	mov	r4, r0
 800365c:	460d      	mov	r5, r1
 800365e:	4616      	mov	r6, r2
  while (__HAL_I2C_GET_FLAG(hi2c, I2C_FLAG_RXNE) == RESET)
 8003660:	6821      	ldr	r1, [r4, #0]
 8003662:	694b      	ldr	r3, [r1, #20]
 8003664:	f013 0340 	ands.w	r3, r3, #64	@ 0x40
 8003668:	d001      	beq.n	800366e <I2C_WaitOnRXNEFlagUntilTimeout+0x16>
  return HAL_OK;
 800366a:	2000      	movs	r0, #0
 800366c:	e011      	b.n	8003692 <I2C_WaitOnRXNEFlagUntilTimeout+0x3a>
    if (__HAL_I2C_GET_FLAG(hi2c, I2C_FLAG_STOPF) == SET)
 800366e:	694a      	ldr	r2, [r1, #20]
 8003670:	06d2      	lsls	r2, r2, #27
 8003672:	d50f      	bpl.n	8003694 <I2C_WaitOnRXNEFlagUntilTimeout+0x3c>
      __HAL_I2C_CLEAR_FLAG(hi2c, I2C_FLAG_STOPF);
 8003674:	f06f 0210 	mvn.w	r2, #16
 8003678:	614a      	str	r2, [r1, #20]
      hi2c->State               = HAL_I2C_STATE_READY;
 800367a:	2220      	movs	r2, #32
      hi2c->PreviousState       = I2C_STATE_NONE;
 800367c:	6323      	str	r3, [r4, #48]	@ 0x30
      hi2c->State               = HAL_I2C_STATE_READY;
 800367e:	f884 203d 	strb.w	r2, [r4, #61]	@ 0x3d
      hi2c->Mode                = HAL_I2C_MODE_NONE;
 8003682:	f884 303e 	strb.w	r3, [r4, #62]	@ 0x3e
      hi2c->ErrorCode           |= HAL_I2C_ERROR_NONE;
 8003686:	6c23      	ldr	r3, [r4, #64]	@ 0x40
        hi2c->ErrorCode           |= HAL_I2C_ERROR_TIMEOUT;
 8003688:	6423      	str	r3, [r4, #64]	@ 0x40
        __HAL_UNLOCK(hi2c);
 800368a:	2300      	movs	r3, #0
 800368c:	f884 303c 	strb.w	r3, [r4, #60]	@ 0x3c
      return HAL_ERROR;
 8003690:	2001      	movs	r0, #1
}
 8003692:	bd70      	pop	{r4, r5, r6, pc}
    if (((HAL_GetTick() - Tickstart) > Timeout) || (Timeout == 0U))
 8003694:	f7ff fb00 	bl	8002c98 <HAL_GetTick>
 8003698:	1b80      	subs	r0, r0, r6
 800369a:	42a8      	cmp	r0, r5
 800369c:	d801      	bhi.n	80036a2 <I2C_WaitOnRXNEFlagUntilTimeout+0x4a>
 800369e:	2d00      	cmp	r5, #0
 80036a0:	d1de      	bne.n	8003660 <I2C_WaitOnRXNEFlagUntilTimeout+0x8>
      if ((__HAL_I2C_GET_FLAG(hi2c, I2C_FLAG_RXNE) == RESET))
 80036a2:	6823      	ldr	r3, [r4, #0]
 80036a4:	695b      	ldr	r3, [r3, #20]
 80036a6:	f013 0340 	ands.w	r3, r3, #64	@ 0x40
 80036aa:	d1d9      	bne.n	8003660 <I2C_WaitOnRXNEFlagUntilTimeout+0x8>
        hi2c->State               = HAL_I2C_STATE_READY;
 80036ac:	2220      	movs	r2, #32
        hi2c->PreviousState       = I2C_STATE_NONE;
 80036ae:	6323      	str	r3, [r4, #48]	@ 0x30
        hi2c->State               = HAL_I2C_STATE_READY;
 80036b0:	f884 203d 	strb.w	r2, [r4, #61]	@ 0x3d
        hi2c->Mode                = HAL_I2C_MODE_NONE;
 80036b4:	f884 303e 	strb.w	r3, [r4, #62]	@ 0x3e
        hi2c->ErrorCode           |= HAL_I2C_ERROR_TIMEOUT;
 80036b8:	6c23      	ldr	r3, [r4, #64]	@ 0x40
 80036ba:	4313      	orrs	r3, r2
 80036bc:	e7e4      	b.n	8003688 <I2C_WaitOnRXNEFlagUntilTimeout+0x30>
	...

080036c0 <HAL_I2C_Init>:
{
 80036c0:	b570      	push	{r4, r5, r6, lr}
  if (hi2c == NULL)
 80036c2:	4604      	mov	r4, r0
 80036c4:	b908      	cbnz	r0, 80036ca <HAL_I2C_Init+0xa>
    return HAL_ERROR;
 80036c6:	2001      	movs	r0, #1
}
 80036c8:	bd70      	pop	{r4, r5, r6, pc}
  if (hi2c->State == HAL_I2C_STATE_RESET)
 80036ca:	f890 303d 	ldrb.w	r3, [r0, #61]	@ 0x3d
 80036ce:	f003 02ff 	and.w	r2, r3, #255	@ 0xff
 80036d2:	b91b      	cbnz	r3, 80036dc <HAL_I2C_Init+0x1c>
    hi2c->Lock = HAL_UNLOCKED;
 80036d4:	f880 203c 	strb.w	r2, [r0, #60]	@ 0x3c
    HAL_I2C_MspInit(hi2c);
 80036d8:	f7ff f860 	bl	800279c <HAL_I2C_MspInit>
  hi2c->State = HAL_I2C_STATE_BUSY;
 80036dc:	2324      	movs	r3, #36	@ 0x24
 80036de:	f884 303d 	strb.w	r3, [r4, #61]	@ 0x3d
  __HAL_I2C_DISABLE(hi2c);
 80036e2:	6823      	ldr	r3, [r4, #0]
 80036e4:	681a      	ldr	r2, [r3, #0]
 80036e6:	f022 0201 	bic.w	r2, r2, #1
 80036ea:	601a      	str	r2, [r3, #0]
  hi2c->Instance->CR1 |= I2C_CR1_SWRST;
 80036ec:	681a      	ldr	r2, [r3, #0]
 80036ee:	f442 4200 	orr.w	r2, r2, #32768	@ 0x8000
 80036f2:	601a      	str	r2, [r3, #0]
  hi2c->Instance->CR1 &= ~I2C_CR1_SWRST;
 80036f4:	681a      	ldr	r2, [r3, #0]
 80036f6:	f422 4200 	bic.w	r2, r2, #32768	@ 0x8000
 80036fa:	601a      	str	r2, [r3, #0]
  pclk1 = HAL_RCC_GetPCLK1Freq();
 80036fc:	f001 fa88 	bl	8004c10 <HAL_RCC_GetPCLK1Freq>
  if (I2C_MIN_PCLK_FREQ(pclk1, hi2c->Init.ClockSpeed) == 1U)
 8003700:	4b3f      	ldr	r3, [pc, #252]	@ (8003800 <HAL_I2C_Init+0x140>)
 8003702:	6865      	ldr	r5, [r4, #4]
 8003704:	429d      	cmp	r5, r3
 8003706:	bf94      	ite	ls
 8003708:	4b3e      	ldrls	r3, [pc, #248]	@ (8003804 <HAL_I2C_Init+0x144>)
 800370a:	4b3f      	ldrhi	r3, [pc, #252]	@ (8003808 <HAL_I2C_Init+0x148>)
 800370c:	4298      	cmp	r0, r3
 800370e:	bf8c      	ite	hi
 8003710:	2300      	movhi	r3, #0
 8003712:	2301      	movls	r3, #1
 8003714:	2b00      	cmp	r3, #0
 8003716:	d1d6      	bne.n	80036c6 <HAL_I2C_Init+0x6>
  MODIFY_REG(hi2c->Instance->CR2, I2C_CR2_FREQ, freqrange);
 8003718:	6822      	ldr	r2, [r4, #0]
  MODIFY_REG(hi2c->Instance->TRISE, I2C_TRISE_TRISE, I2C_RISE_TIME(freqrange, hi2c->Init.ClockSpeed));
 800371a:	4e39      	ldr	r6, [pc, #228]	@ (8003800 <HAL_I2C_Init+0x140>)
  MODIFY_REG(hi2c->Instance->CR2, I2C_CR2_FREQ, freqrange);
 800371c:	6851      	ldr	r1, [r2, #4]
  freqrange = I2C_FREQRANGE(pclk1);
 800371e:	4b3b      	ldr	r3, [pc, #236]	@ (800380c <HAL_I2C_Init+0x14c>)
 8003720:	fbb0 f3f3 	udiv	r3, r0, r3
  MODIFY_REG(hi2c->Instance->CR2, I2C_CR2_FREQ, freqrange);
 8003724:	f021 013f 	bic.w	r1, r1, #63	@ 0x3f
 8003728:	4319      	orrs	r1, r3
  MODIFY_REG(hi2c->Instance->TRISE, I2C_TRISE_TRISE, I2C_RISE_TIME(freqrange, hi2c->Init.ClockSpeed));
 800372a:	42b5      	cmp	r5, r6
  MODIFY_REG(hi2c->Instance->CR2, I2C_CR2_FREQ, freqrange);
 800372c:	6051      	str	r1, [r2, #4]
  MODIFY_REG(hi2c->Instance->TRISE, I2C_TRISE_TRISE, I2C_RISE_TIME(freqrange, hi2c->Init.ClockSpeed));
 800372e:	bf88      	it	hi
 8003730:	f44f 7696 	movhi.w	r6, #300	@ 0x12c
 8003734:	6a11      	ldr	r1, [r2, #32]
 8003736:	bf88      	it	hi
 8003738:	4373      	mulhi	r3, r6
 800373a:	f021 013f 	bic.w	r1, r1, #63	@ 0x3f
 800373e:	bf84      	itt	hi
 8003740:	f44f 767a 	movhi.w	r6, #1000	@ 0x3e8
 8003744:	fbb3 f3f6 	udivhi	r3, r3, r6
 8003748:	3301      	adds	r3, #1
 800374a:	430b      	orrs	r3, r1
 800374c:	6213      	str	r3, [r2, #32]
  MODIFY_REG(hi2c->Instance->CCR, (I2C_CCR_FS | I2C_CCR_DUTY | I2C_CCR_CCR), I2C_SPEED(pclk1, hi2c->Init.ClockSpeed, hi2c->Init.DutyCycle));
 800374e:	69d1      	ldr	r1, [r2, #28]
 8003750:	1e43      	subs	r3, r0, #1
 8003752:	482b      	ldr	r0, [pc, #172]	@ (8003800 <HAL_I2C_Init+0x140>)
 8003754:	f421 414f 	bic.w	r1, r1, #52992	@ 0xcf00
 8003758:	4285      	cmp	r5, r0
 800375a:	f021 01ff 	bic.w	r1, r1, #255	@ 0xff
 800375e:	d832      	bhi.n	80037c6 <HAL_I2C_Init+0x106>
 8003760:	006d      	lsls	r5, r5, #1
 8003762:	f640 70fc 	movw	r0, #4092	@ 0xffc
 8003766:	fbb3 f3f5 	udiv	r3, r3, r5
 800376a:	3301      	adds	r3, #1
 800376c:	4203      	tst	r3, r0
 800376e:	d042      	beq.n	80037f6 <HAL_I2C_Init+0x136>
 8003770:	f3c3 030b 	ubfx	r3, r3, #0, #12
 8003774:	4319      	orrs	r1, r3
 8003776:	61d1      	str	r1, [r2, #28]
  MODIFY_REG(hi2c->Instance->CR1, (I2C_CR1_ENGC | I2C_CR1_NOSTRETCH), (hi2c->Init.GeneralCallMode | hi2c->Init.NoStretchMode));
 8003778:	e9d4 3007 	ldrd	r3, r0, [r4, #28]
 800377c:	6811      	ldr	r1, [r2, #0]
 800377e:	4303      	orrs	r3, r0
 8003780:	f021 01c0 	bic.w	r1, r1, #192	@ 0xc0
 8003784:	430b      	orrs	r3, r1
 8003786:	6013      	str	r3, [r2, #0]
  MODIFY_REG(hi2c->Instance->OAR1, (I2C_OAR1_ADDMODE | I2C_OAR1_ADD8_9 | I2C_OAR1_ADD1_7 | I2C_OAR1_ADD0), (hi2c->Init.AddressingMode | hi2c->Init.OwnAddress1));
 8003788:	6891      	ldr	r1, [r2, #8]
 800378a:	e9d4 0303 	ldrd	r0, r3, [r4, #12]
 800378e:	f421 4103 	bic.w	r1, r1, #33536	@ 0x8300
 8003792:	4303      	orrs	r3, r0
 8003794:	f021 01ff 	bic.w	r1, r1, #255	@ 0xff
 8003798:	430b      	orrs	r3, r1
 800379a:	6093      	str	r3, [r2, #8]
  MODIFY_REG(hi2c->Instance->OAR2, (I2C_OAR2_ENDUAL | I2C_OAR2_ADD2), (hi2c->Init.DualAddressMode | hi2c->Init.OwnAddress2));
 800379c:	e9d4 3005 	ldrd	r3, r0, [r4, #20]
 80037a0:	68d1      	ldr	r1, [r2, #12]
 80037a2:	4303      	orrs	r3, r0
 80037a4:	f021 01ff 	bic.w	r1, r1, #255	@ 0xff
 80037a8:	430b      	orrs	r3, r1
 80037aa:	60d3      	str	r3, [r2, #12]
  __HAL_I2C_ENABLE(hi2c);
 80037ac:	6813      	ldr	r3, [r2, #0]
 80037ae:	f043 0301 	orr.w	r3, r3, #1
 80037b2:	6013      	str	r3, [r2, #0]
  hi2c->ErrorCode = HAL_I2C_ERROR_NONE;
 80037b4:	2000      	movs	r0, #0
  hi2c->State = HAL_I2C_STATE_READY;
 80037b6:	2320      	movs	r3, #32
  hi2c->ErrorCode = HAL_I2C_ERROR_NONE;
 80037b8:	6420      	str	r0, [r4, #64]	@ 0x40
  hi2c->State = HAL_I2C_STATE_READY;
 80037ba:	f884 303d 	strb.w	r3, [r4, #61]	@ 0x3d
  hi2c->PreviousState = I2C_STATE_NONE;
 80037be:	6320      	str	r0, [r4, #48]	@ 0x30
  hi2c->Mode = HAL_I2C_MODE_NONE;
 80037c0:	f884 003e 	strb.w	r0, [r4, #62]	@ 0x3e
  return HAL_OK;
 80037c4:	e780      	b.n	80036c8 <HAL_I2C_Init+0x8>
  MODIFY_REG(hi2c->Instance->CCR, (I2C_CCR_FS | I2C_CCR_DUTY | I2C_CCR_CCR), I2C_SPEED(pclk1, hi2c->Init.ClockSpeed, hi2c->Init.DutyCycle));
 80037c6:	68a0      	ldr	r0, [r4, #8]
 80037c8:	b950      	cbnz	r0, 80037e0 <HAL_I2C_Init+0x120>
 80037ca:	eb05 0545 	add.w	r5, r5, r5, lsl #1
 80037ce:	fbb3 f3f5 	udiv	r3, r3, r5
 80037d2:	3301      	adds	r3, #1
 80037d4:	f3c3 030b 	ubfx	r3, r3, #0, #12
 80037d8:	b17b      	cbz	r3, 80037fa <HAL_I2C_Init+0x13a>
 80037da:	f443 4300 	orr.w	r3, r3, #32768	@ 0x8000
 80037de:	e7c9      	b.n	8003774 <HAL_I2C_Init+0xb4>
 80037e0:	2019      	movs	r0, #25
 80037e2:	4368      	muls	r0, r5
 80037e4:	fbb3 f3f0 	udiv	r3, r3, r0
 80037e8:	3301      	adds	r3, #1
 80037ea:	f3c3 030b 	ubfx	r3, r3, #0, #12
 80037ee:	b123      	cbz	r3, 80037fa <HAL_I2C_Init+0x13a>
 80037f0:	f443 4340 	orr.w	r3, r3, #49152	@ 0xc000
 80037f4:	e7be      	b.n	8003774 <HAL_I2C_Init+0xb4>
 80037f6:	2304      	movs	r3, #4
 80037f8:	e7bc      	b.n	8003774 <HAL_I2C_Init+0xb4>
 80037fa:	2301      	movs	r3, #1
 80037fc:	e7ba      	b.n	8003774 <HAL_I2C_Init+0xb4>
 80037fe:	bf00      	nop
 8003800:	000186a0 	.word	0x000186a0
 8003804:	001e847f 	.word	0x001e847f
 8003808:	003d08ff 	.word	0x003d08ff
 800380c:	000f4240 	.word	0x000f4240

08003810 <HAL_I2C_Mem_Write>:
{
 8003810:	e92d 43f7 	stmdb	sp!, {r0, r1, r2, r4, r5, r6, r7, r8, r9, lr}
 8003814:	4604      	mov	r4, r0
 8003816:	4699      	mov	r9, r3
 8003818:	9e0c      	ldr	r6, [sp, #48]	@ 0x30
 800381a:	460f      	mov	r7, r1
 800381c:	4690      	mov	r8, r2
  uint32_t tickstart = HAL_GetTick();
 800381e:	f7ff fa3b 	bl	8002c98 <HAL_GetTick>
  if (hi2c->State == HAL_I2C_STATE_READY)
 8003822:	f894 303d 	ldrb.w	r3, [r4, #61]	@ 0x3d
 8003826:	2b20      	cmp	r3, #32
  uint32_t tickstart = HAL_GetTick();
 8003828:	4605      	mov	r5, r0
  if (hi2c->State == HAL_I2C_STATE_READY)
 800382a:	d003      	beq.n	8003834 <HAL_I2C_Mem_Write+0x24>
      return HAL_BUSY;
 800382c:	2002      	movs	r0, #2
}
 800382e:	b003      	add	sp, #12
 8003830:	e8bd 83f0 	ldmia.w	sp!, {r4, r5, r6, r7, r8, r9, pc}
    if (I2C_WaitOnFlagUntilTimeout(hi2c, I2C_FLAG_BUSY, SET, I2C_TIMEOUT_BUSY_FLAG, tickstart) != HAL_OK)
 8003834:	9000      	str	r0, [sp, #0]
 8003836:	493c      	ldr	r1, [pc, #240]	@ (8003928 <HAL_I2C_Mem_Write+0x118>)
 8003838:	2319      	movs	r3, #25
 800383a:	2201      	movs	r2, #1
 800383c:	4620      	mov	r0, r4
 800383e:	f7ff fd58 	bl	80032f2 <I2C_WaitOnFlagUntilTimeout>
 8003842:	2800      	cmp	r0, #0
 8003844:	d1f2      	bne.n	800382c <HAL_I2C_Mem_Write+0x1c>
    __HAL_LOCK(hi2c);
 8003846:	f894 303c 	ldrb.w	r3, [r4, #60]	@ 0x3c
 800384a:	2b01      	cmp	r3, #1
 800384c:	d0ee      	beq.n	800382c <HAL_I2C_Mem_Write+0x1c>
    if ((hi2c->Instance->CR1 & I2C_CR1_PE) != I2C_CR1_PE)
 800384e:	6820      	ldr	r0, [r4, #0]
    __HAL_LOCK(hi2c);
 8003850:	2301      	movs	r3, #1
 8003852:	f884 303c 	strb.w	r3, [r4, #60]	@ 0x3c
    if ((hi2c->Instance->CR1 & I2C_CR1_PE) != I2C_CR1_PE)
 8003856:	6803      	ldr	r3, [r0, #0]
 8003858:	07d9      	lsls	r1, r3, #31
      __HAL_I2C_ENABLE(hi2c);
 800385a:	bf5e      	ittt	pl
 800385c:	6803      	ldrpl	r3, [r0, #0]
 800385e:	f043 0301 	orrpl.w	r3, r3, #1
 8003862:	6003      	strpl	r3, [r0, #0]
    CLEAR_BIT(hi2c->Instance->CR1, I2C_CR1_POS);
 8003864:	6803      	ldr	r3, [r0, #0]
 8003866:	f423 6300 	bic.w	r3, r3, #2048	@ 0x800
 800386a:	6003      	str	r3, [r0, #0]
    hi2c->State     = HAL_I2C_STATE_BUSY_TX;
 800386c:	2321      	movs	r3, #33	@ 0x21
 800386e:	f884 303d 	strb.w	r3, [r4, #61]	@ 0x3d
    hi2c->Mode      = HAL_I2C_MODE_MEM;
 8003872:	2340      	movs	r3, #64	@ 0x40
 8003874:	f884 303e 	strb.w	r3, [r4, #62]	@ 0x3e
    hi2c->ErrorCode = HAL_I2C_ERROR_NONE;
 8003878:	2300      	movs	r3, #0
 800387a:	6423      	str	r3, [r4, #64]	@ 0x40
    hi2c->pBuffPtr    = pData;
 800387c:	9b0a      	ldr	r3, [sp, #40]	@ 0x28
 800387e:	6263      	str	r3, [r4, #36]	@ 0x24
    hi2c->XferCount   = Size;
 8003880:	f8bd 302c 	ldrh.w	r3, [sp, #44]	@ 0x2c
 8003884:	8563      	strh	r3, [r4, #42]	@ 0x2a
    hi2c->XferSize    = hi2c->XferCount;
 8003886:	8d63      	ldrh	r3, [r4, #42]	@ 0x2a
 8003888:	8523      	strh	r3, [r4, #40]	@ 0x28
    hi2c->XferOptions = I2C_NO_OPTION_FRAME;
 800388a:	4b28      	ldr	r3, [pc, #160]	@ (800392c <HAL_I2C_Mem_Write+0x11c>)
 800388c:	62e3      	str	r3, [r4, #44]	@ 0x2c
    if (I2C_RequestMemoryWrite(hi2c, DevAddress, MemAddress, MemAddSize, Timeout, tickstart) != HAL_OK)
 800388e:	4642      	mov	r2, r8
 8003890:	e9cd 6500 	strd	r6, r5, [sp]
 8003894:	464b      	mov	r3, r9
 8003896:	4639      	mov	r1, r7
 8003898:	4620      	mov	r0, r4
 800389a:	f7ff fdd7 	bl	800344c <I2C_RequestMemoryWrite>
 800389e:	2800      	cmp	r0, #0
 80038a0:	d02a      	beq.n	80038f8 <HAL_I2C_Mem_Write+0xe8>
      return HAL_ERROR;
 80038a2:	2001      	movs	r0, #1
 80038a4:	e7c3      	b.n	800382e <HAL_I2C_Mem_Write+0x1e>
      if (I2C_WaitOnTXEFlagUntilTimeout(hi2c, Timeout, tickstart) != HAL_OK)
 80038a6:	f7ff fda6 	bl	80033f6 <I2C_WaitOnTXEFlagUntilTimeout>
 80038aa:	b140      	cbz	r0, 80038be <HAL_I2C_Mem_Write+0xae>
        if (hi2c->ErrorCode == HAL_I2C_ERROR_AF)
 80038ac:	6c23      	ldr	r3, [r4, #64]	@ 0x40
 80038ae:	2b04      	cmp	r3, #4
          SET_BIT(hi2c->Instance->CR1, I2C_CR1_STOP);
 80038b0:	bf01      	itttt	eq
 80038b2:	6822      	ldreq	r2, [r4, #0]
 80038b4:	6813      	ldreq	r3, [r2, #0]
 80038b6:	f443 7300 	orreq.w	r3, r3, #512	@ 0x200
 80038ba:	6013      	streq	r3, [r2, #0]
 80038bc:	e7f1      	b.n	80038a2 <HAL_I2C_Mem_Write+0x92>
      hi2c->Instance->DR = *hi2c->pBuffPtr;
 80038be:	6a63      	ldr	r3, [r4, #36]	@ 0x24
 80038c0:	6827      	ldr	r7, [r4, #0]
 80038c2:	461a      	mov	r2, r3
 80038c4:	f812 1b01 	ldrb.w	r1, [r2], #1
 80038c8:	6139      	str	r1, [r7, #16]
      hi2c->pBuffPtr++;
 80038ca:	6262      	str	r2, [r4, #36]	@ 0x24
      hi2c->XferCount--;
 80038cc:	8d62      	ldrh	r2, [r4, #42]	@ 0x2a
      hi2c->XferSize--;
 80038ce:	8d21      	ldrh	r1, [r4, #40]	@ 0x28
      hi2c->XferCount--;
 80038d0:	3a01      	subs	r2, #1
 80038d2:	b292      	uxth	r2, r2
 80038d4:	8562      	strh	r2, [r4, #42]	@ 0x2a
      if ((__HAL_I2C_GET_FLAG(hi2c, I2C_FLAG_BTF) == SET) && (hi2c->XferSize != 0U))
 80038d6:	697a      	ldr	r2, [r7, #20]
      hi2c->XferSize--;
 80038d8:	1e48      	subs	r0, r1, #1
 80038da:	b280      	uxth	r0, r0
      if ((__HAL_I2C_GET_FLAG(hi2c, I2C_FLAG_BTF) == SET) && (hi2c->XferSize != 0U))
 80038dc:	0752      	lsls	r2, r2, #29
      hi2c->XferSize--;
 80038de:	8520      	strh	r0, [r4, #40]	@ 0x28
      if ((__HAL_I2C_GET_FLAG(hi2c, I2C_FLAG_BTF) == SET) && (hi2c->XferSize != 0U))
 80038e0:	d50a      	bpl.n	80038f8 <HAL_I2C_Mem_Write+0xe8>
 80038e2:	b148      	cbz	r0, 80038f8 <HAL_I2C_Mem_Write+0xe8>
        hi2c->Instance->DR = *hi2c->pBuffPtr;
 80038e4:	785a      	ldrb	r2, [r3, #1]
 80038e6:	613a      	str	r2, [r7, #16]
        hi2c->pBuffPtr++;
 80038e8:	3302      	adds	r3, #2
 80038ea:	6263      	str	r3, [r4, #36]	@ 0x24
        hi2c->XferCount--;
 80038ec:	8d63      	ldrh	r3, [r4, #42]	@ 0x2a
 80038ee:	3b01      	subs	r3, #1
        hi2c->XferSize--;
 80038f0:	3902      	subs	r1, #2
        hi2c->XferCount--;
 80038f2:	b29b      	uxth	r3, r3
        hi2c->XferSize--;
 80038f4:	8521      	strh	r1, [r4, #40]	@ 0x28
        hi2c->XferCount--;
 80038f6:	8563      	strh	r3, [r4, #42]	@ 0x2a
    while (hi2c->XferSize > 0U)
 80038f8:	8d23      	ldrh	r3, [r4, #40]	@ 0x28
      if (I2C_WaitOnTXEFlagUntilTimeout(hi2c, Timeout, tickstart) != HAL_OK)
 80038fa:	462a      	mov	r2, r5
 80038fc:	4631      	mov	r1, r6
 80038fe:	4620      	mov	r0, r4
    while (hi2c->XferSize > 0U)
 8003900:	2b00      	cmp	r3, #0
 8003902:	d1d0      	bne.n	80038a6 <HAL_I2C_Mem_Write+0x96>
    if (I2C_WaitOnBTFFlagUntilTimeout(hi2c, Timeout, tickstart) != HAL_OK)
 8003904:	f7ff fe7e 	bl	8003604 <I2C_WaitOnBTFFlagUntilTimeout>
 8003908:	2800      	cmp	r0, #0
 800390a:	d1cf      	bne.n	80038ac <HAL_I2C_Mem_Write+0x9c>
    SET_BIT(hi2c->Instance->CR1, I2C_CR1_STOP);
 800390c:	6822      	ldr	r2, [r4, #0]
 800390e:	6813      	ldr	r3, [r2, #0]
 8003910:	f443 7300 	orr.w	r3, r3, #512	@ 0x200
 8003914:	6013      	str	r3, [r2, #0]
    hi2c->State = HAL_I2C_STATE_READY;
 8003916:	2320      	movs	r3, #32
 8003918:	f884 303d 	strb.w	r3, [r4, #61]	@ 0x3d
    __HAL_UNLOCK(hi2c);
 800391c:	f884 003c 	strb.w	r0, [r4, #60]	@ 0x3c
    hi2c->Mode = HAL_I2C_MODE_NONE;
 8003920:	f884 003e 	strb.w	r0, [r4, #62]	@ 0x3e
    return HAL_OK;
 8003924:	e783      	b.n	800382e <HAL_I2C_Mem_Write+0x1e>
 8003926:	bf00      	nop
 8003928:	00100002 	.word	0x00100002
 800392c:	ffff0000 	.word	0xffff0000

08003930 <HAL_I2C_Mem_Read>:
{
 8003930:	e92d 43f0 	stmdb	sp!, {r4, r5, r6, r7, r8, r9, lr}
 8003934:	4604      	mov	r4, r0
 8003936:	b087      	sub	sp, #28
 8003938:	4699      	mov	r9, r3
 800393a:	9f10      	ldr	r7, [sp, #64]	@ 0x40
 800393c:	460d      	mov	r5, r1
 800393e:	4690      	mov	r8, r2
  uint32_t tickstart = HAL_GetTick();
 8003940:	f7ff f9aa 	bl	8002c98 <HAL_GetTick>
  if (hi2c->State == HAL_I2C_STATE_READY)
 8003944:	f894 303d 	ldrb.w	r3, [r4, #61]	@ 0x3d
 8003948:	2b20      	cmp	r3, #32
  uint32_t tickstart = HAL_GetTick();
 800394a:	4606      	mov	r6, r0
  if (hi2c->State == HAL_I2C_STATE_READY)
 800394c:	d004      	beq.n	8003958 <HAL_I2C_Mem_Read+0x28>
      return HAL_BUSY;
 800394e:	2502      	movs	r5, #2
}
 8003950:	4628      	mov	r0, r5
 8003952:	b007      	add	sp, #28
 8003954:	e8bd 83f0 	ldmia.w	sp!, {r4, r5, r6, r7, r8, r9, pc}
    if (I2C_WaitOnFlagUntilTimeout(hi2c, I2C_FLAG_BUSY, SET, I2C_TIMEOUT_BUSY_FLAG, tickstart) != HAL_OK)
 8003958:	9000      	str	r0, [sp, #0]
 800395a:	497a      	ldr	r1, [pc, #488]	@ (8003b44 <HAL_I2C_Mem_Read+0x214>)
 800395c:	2319      	movs	r3, #25
 800395e:	2201      	movs	r2, #1
 8003960:	4620      	mov	r0, r4
 8003962:	f7ff fcc6 	bl	80032f2 <I2C_WaitOnFlagUntilTimeout>
 8003966:	2800      	cmp	r0, #0
 8003968:	d1f1      	bne.n	800394e <HAL_I2C_Mem_Read+0x1e>
    __HAL_LOCK(hi2c);
 800396a:	f894 303c 	ldrb.w	r3, [r4, #60]	@ 0x3c
 800396e:	2b01      	cmp	r3, #1
 8003970:	d0ed      	beq.n	800394e <HAL_I2C_Mem_Read+0x1e>
    if ((hi2c->Instance->CR1 & I2C_CR1_PE) != I2C_CR1_PE)
 8003972:	6820      	ldr	r0, [r4, #0]
    __HAL_LOCK(hi2c);
 8003974:	2301      	movs	r3, #1
 8003976:	f884 303c 	strb.w	r3, [r4, #60]	@ 0x3c
    if ((hi2c->Instance->CR1 & I2C_CR1_PE) != I2C_CR1_PE)
 800397a:	6803      	ldr	r3, [r0, #0]
 800397c:	07db      	lsls	r3, r3, #31
      __HAL_I2C_ENABLE(hi2c);
 800397e:	bf5e      	ittt	pl
 8003980:	6803      	ldrpl	r3, [r0, #0]
 8003982:	f043 0301 	orrpl.w	r3, r3, #1
 8003986:	6003      	strpl	r3, [r0, #0]
    CLEAR_BIT(hi2c->Instance->CR1, I2C_CR1_POS);
 8003988:	6803      	ldr	r3, [r0, #0]
 800398a:	f423 6300 	bic.w	r3, r3, #2048	@ 0x800
 800398e:	6003      	str	r3, [r0, #0]
    hi2c->State     = HAL_I2C_STATE_BUSY_RX;
 8003990:	2322      	movs	r3, #34	@ 0x22
 8003992:	f884 303d 	strb.w	r3, [r4, #61]	@ 0x3d
    hi2c->Mode      = HAL_I2C_MODE_MEM;
 8003996:	2340      	movs	r3, #64	@ 0x40
 8003998:	f884 303e 	strb.w	r3, [r4, #62]	@ 0x3e
    hi2c->ErrorCode = HAL_I2C_ERROR_NONE;
 800399c:	2300      	movs	r3, #0
 800399e:	6423      	str	r3, [r4, #64]	@ 0x40
    hi2c->pBuffPtr    = pData;
 80039a0:	9b0e      	ldr	r3, [sp, #56]	@ 0x38
 80039a2:	6263      	str	r3, [r4, #36]	@ 0x24
    hi2c->XferCount   = Size;
 80039a4:	f8bd 303c 	ldrh.w	r3, [sp, #60]	@ 0x3c
 80039a8:	8563      	strh	r3, [r4, #42]	@ 0x2a
    hi2c->XferSize    = hi2c->XferCount;
 80039aa:	8d63      	ldrh	r3, [r4, #42]	@ 0x2a
 80039ac:	8523      	strh	r3, [r4, #40]	@ 0x28
    hi2c->XferOptions = I2C_NO_OPTION_FRAME;
 80039ae:	4b66      	ldr	r3, [pc, #408]	@ (8003b48 <HAL_I2C_Mem_Read+0x218>)
 80039b0:	62e3      	str	r3, [r4, #44]	@ 0x2c
    if (I2C_RequestMemoryRead(hi2c, DevAddress, MemAddress, MemAddSize, Timeout, tickstart) != HAL_OK)
 80039b2:	4629      	mov	r1, r5
 80039b4:	e9cd 7600 	strd	r7, r6, [sp]
 80039b8:	464b      	mov	r3, r9
 80039ba:	4642      	mov	r2, r8
 80039bc:	4620      	mov	r0, r4
 80039be:	f7ff fd9f 	bl	8003500 <I2C_RequestMemoryRead>
 80039c2:	4605      	mov	r5, r0
 80039c4:	b108      	cbz	r0, 80039ca <HAL_I2C_Mem_Read+0x9a>
      return HAL_ERROR;
 80039c6:	2501      	movs	r5, #1
 80039c8:	e7c2      	b.n	8003950 <HAL_I2C_Mem_Read+0x20>
    if (hi2c->XferSize == 0U)
 80039ca:	8d22      	ldrh	r2, [r4, #40]	@ 0x28
      __HAL_I2C_CLEAR_ADDRFLAG(hi2c);
 80039cc:	6823      	ldr	r3, [r4, #0]
    if (hi2c->XferSize == 0U)
 80039ce:	b9b2      	cbnz	r2, 80039fe <HAL_I2C_Mem_Read+0xce>
      __HAL_I2C_CLEAR_ADDRFLAG(hi2c);
 80039d0:	9002      	str	r0, [sp, #8]
 80039d2:	695a      	ldr	r2, [r3, #20]
 80039d4:	9202      	str	r2, [sp, #8]
 80039d6:	699a      	ldr	r2, [r3, #24]
 80039d8:	9202      	str	r2, [sp, #8]
 80039da:	9a02      	ldr	r2, [sp, #8]
      SET_BIT(hi2c->Instance->CR1, I2C_CR1_STOP);
 80039dc:	681a      	ldr	r2, [r3, #0]
 80039de:	f442 7200 	orr.w	r2, r2, #512	@ 0x200
 80039e2:	601a      	str	r2, [r3, #0]
          if (I2C_WaitOnFlagUntilTimeout(hi2c, I2C_FLAG_BTF, RESET, Timeout, tickstart) != HAL_OK)
 80039e4:	f8df 8164 	ldr.w	r8, [pc, #356]	@ 8003b4c <HAL_I2C_Mem_Read+0x21c>
    while (hi2c->XferSize > 0U)
 80039e8:	8d23      	ldrh	r3, [r4, #40]	@ 0x28
 80039ea:	2b00      	cmp	r3, #0
 80039ec:	d12c      	bne.n	8003a48 <HAL_I2C_Mem_Read+0x118>
    hi2c->State = HAL_I2C_STATE_READY;
 80039ee:	2220      	movs	r2, #32
 80039f0:	f884 203d 	strb.w	r2, [r4, #61]	@ 0x3d
    __HAL_UNLOCK(hi2c);
 80039f4:	f884 303c 	strb.w	r3, [r4, #60]	@ 0x3c
    hi2c->Mode = HAL_I2C_MODE_NONE;
 80039f8:	f884 303e 	strb.w	r3, [r4, #62]	@ 0x3e
    return HAL_OK;
 80039fc:	e7a8      	b.n	8003950 <HAL_I2C_Mem_Read+0x20>
    else if (hi2c->XferSize == 1U)
 80039fe:	2a01      	cmp	r2, #1
 8003a00:	d10a      	bne.n	8003a18 <HAL_I2C_Mem_Read+0xe8>
      CLEAR_BIT(hi2c->Instance->CR1, I2C_CR1_ACK);
 8003a02:	681a      	ldr	r2, [r3, #0]
 8003a04:	f422 6280 	bic.w	r2, r2, #1024	@ 0x400
 8003a08:	601a      	str	r2, [r3, #0]
      __HAL_I2C_CLEAR_ADDRFLAG(hi2c);
 8003a0a:	9003      	str	r0, [sp, #12]
 8003a0c:	695a      	ldr	r2, [r3, #20]
 8003a0e:	9203      	str	r2, [sp, #12]
 8003a10:	699a      	ldr	r2, [r3, #24]
 8003a12:	9203      	str	r2, [sp, #12]
 8003a14:	9a03      	ldr	r2, [sp, #12]
 8003a16:	e7e1      	b.n	80039dc <HAL_I2C_Mem_Read+0xac>
    else if (hi2c->XferSize == 2U)
 8003a18:	2a02      	cmp	r2, #2
 8003a1a:	d10e      	bne.n	8003a3a <HAL_I2C_Mem_Read+0x10a>
      CLEAR_BIT(hi2c->Instance->CR1, I2C_CR1_ACK);
 8003a1c:	681a      	ldr	r2, [r3, #0]
 8003a1e:	f422 6280 	bic.w	r2, r2, #1024	@ 0x400
 8003a22:	601a      	str	r2, [r3, #0]
      SET_BIT(hi2c->Instance->CR1, I2C_CR1_POS);
 8003a24:	681a      	ldr	r2, [r3, #0]
 8003a26:	f442 6200 	orr.w	r2, r2, #2048	@ 0x800
 8003a2a:	601a      	str	r2, [r3, #0]
      __HAL_I2C_CLEAR_ADDRFLAG(hi2c);
 8003a2c:	9004      	str	r0, [sp, #16]
 8003a2e:	695a      	ldr	r2, [r3, #20]
 8003a30:	9204      	str	r2, [sp, #16]
 8003a32:	699b      	ldr	r3, [r3, #24]
 8003a34:	9304      	str	r3, [sp, #16]
 8003a36:	9b04      	ldr	r3, [sp, #16]
 8003a38:	e7d4      	b.n	80039e4 <HAL_I2C_Mem_Read+0xb4>
      __HAL_I2C_CLEAR_ADDRFLAG(hi2c);
 8003a3a:	9005      	str	r0, [sp, #20]
 8003a3c:	695a      	ldr	r2, [r3, #20]
 8003a3e:	9205      	str	r2, [sp, #20]
 8003a40:	699b      	ldr	r3, [r3, #24]
 8003a42:	9305      	str	r3, [sp, #20]
 8003a44:	9b05      	ldr	r3, [sp, #20]
 8003a46:	e7cd      	b.n	80039e4 <HAL_I2C_Mem_Read+0xb4>
      if (hi2c->XferSize <= 3U)
 8003a48:	2b03      	cmp	r3, #3
 8003a4a:	d856      	bhi.n	8003afa <HAL_I2C_Mem_Read+0x1ca>
        if (hi2c->XferSize == 1U)
 8003a4c:	2b01      	cmp	r3, #1
 8003a4e:	d115      	bne.n	8003a7c <HAL_I2C_Mem_Read+0x14c>
          if (I2C_WaitOnRXNEFlagUntilTimeout(hi2c, Timeout, tickstart) != HAL_OK)
 8003a50:	4632      	mov	r2, r6
 8003a52:	4639      	mov	r1, r7
 8003a54:	4620      	mov	r0, r4
 8003a56:	f7ff fdff 	bl	8003658 <I2C_WaitOnRXNEFlagUntilTimeout>
 8003a5a:	2800      	cmp	r0, #0
 8003a5c:	d1b3      	bne.n	80039c6 <HAL_I2C_Mem_Read+0x96>
          *hi2c->pBuffPtr = (uint8_t)hi2c->Instance->DR;
 8003a5e:	6823      	ldr	r3, [r4, #0]
 8003a60:	691a      	ldr	r2, [r3, #16]
 8003a62:	6a63      	ldr	r3, [r4, #36]	@ 0x24
 8003a64:	701a      	strb	r2, [r3, #0]
          hi2c->pBuffPtr++;
 8003a66:	6a63      	ldr	r3, [r4, #36]	@ 0x24
 8003a68:	3301      	adds	r3, #1
 8003a6a:	6263      	str	r3, [r4, #36]	@ 0x24
          hi2c->XferSize--;
 8003a6c:	8d23      	ldrh	r3, [r4, #40]	@ 0x28
 8003a6e:	3b01      	subs	r3, #1
 8003a70:	8523      	strh	r3, [r4, #40]	@ 0x28
          hi2c->XferCount--;
 8003a72:	8d63      	ldrh	r3, [r4, #42]	@ 0x2a
 8003a74:	3b01      	subs	r3, #1
 8003a76:	b29b      	uxth	r3, r3
 8003a78:	8563      	strh	r3, [r4, #42]	@ 0x2a
 8003a7a:	e7b5      	b.n	80039e8 <HAL_I2C_Mem_Read+0xb8>
        else if (hi2c->XferSize == 2U)
 8003a7c:	2b02      	cmp	r3, #2
          if (I2C_WaitOnFlagUntilTimeout(hi2c, I2C_FLAG_BTF, RESET, Timeout, tickstart) != HAL_OK)
 8003a7e:	9600      	str	r6, [sp, #0]
 8003a80:	463b      	mov	r3, r7
 8003a82:	f04f 0200 	mov.w	r2, #0
 8003a86:	4641      	mov	r1, r8
 8003a88:	4620      	mov	r0, r4
        else if (hi2c->XferSize == 2U)
 8003a8a:	d119      	bne.n	8003ac0 <HAL_I2C_Mem_Read+0x190>
          if (I2C_WaitOnFlagUntilTimeout(hi2c, I2C_FLAG_BTF, RESET, Timeout, tickstart) != HAL_OK)
 8003a8c:	f7ff fc31 	bl	80032f2 <I2C_WaitOnFlagUntilTimeout>
 8003a90:	2800      	cmp	r0, #0
 8003a92:	d198      	bne.n	80039c6 <HAL_I2C_Mem_Read+0x96>
          SET_BIT(hi2c->Instance->CR1, I2C_CR1_STOP);
 8003a94:	6823      	ldr	r3, [r4, #0]
 8003a96:	681a      	ldr	r2, [r3, #0]
 8003a98:	f442 7200 	orr.w	r2, r2, #512	@ 0x200
 8003a9c:	601a      	str	r2, [r3, #0]
          *hi2c->pBuffPtr = (uint8_t)hi2c->Instance->DR;
 8003a9e:	691a      	ldr	r2, [r3, #16]
 8003aa0:	6a63      	ldr	r3, [r4, #36]	@ 0x24
 8003aa2:	701a      	strb	r2, [r3, #0]
          hi2c->pBuffPtr++;
 8003aa4:	6a62      	ldr	r2, [r4, #36]	@ 0x24
 8003aa6:	1c53      	adds	r3, r2, #1
 8003aa8:	6263      	str	r3, [r4, #36]	@ 0x24
          hi2c->XferSize--;
 8003aaa:	8d23      	ldrh	r3, [r4, #40]	@ 0x28
 8003aac:	3b01      	subs	r3, #1
 8003aae:	8523      	strh	r3, [r4, #40]	@ 0x28
          hi2c->XferCount--;
 8003ab0:	8d63      	ldrh	r3, [r4, #42]	@ 0x2a
 8003ab2:	3b01      	subs	r3, #1
 8003ab4:	b29b      	uxth	r3, r3
 8003ab6:	8563      	strh	r3, [r4, #42]	@ 0x2a
          *hi2c->pBuffPtr = (uint8_t)hi2c->Instance->DR;
 8003ab8:	6823      	ldr	r3, [r4, #0]
 8003aba:	691b      	ldr	r3, [r3, #16]
 8003abc:	7053      	strb	r3, [r2, #1]
          hi2c->pBuffPtr++;
 8003abe:	e7d2      	b.n	8003a66 <HAL_I2C_Mem_Read+0x136>
          if (I2C_WaitOnFlagUntilTimeout(hi2c, I2C_FLAG_BTF, RESET, Timeout, tickstart) != HAL_OK)
 8003ac0:	f7ff fc17 	bl	80032f2 <I2C_WaitOnFlagUntilTimeout>
 8003ac4:	4602      	mov	r2, r0
 8003ac6:	2800      	cmp	r0, #0
 8003ac8:	f47f af7d 	bne.w	80039c6 <HAL_I2C_Mem_Read+0x96>
          CLEAR_BIT(hi2c->Instance->CR1, I2C_CR1_ACK);
 8003acc:	6823      	ldr	r3, [r4, #0]
 8003ace:	6819      	ldr	r1, [r3, #0]
 8003ad0:	f421 6180 	bic.w	r1, r1, #1024	@ 0x400
 8003ad4:	6019      	str	r1, [r3, #0]
          *hi2c->pBuffPtr = (uint8_t)hi2c->Instance->DR;
 8003ad6:	6919      	ldr	r1, [r3, #16]
 8003ad8:	6a63      	ldr	r3, [r4, #36]	@ 0x24
 8003ada:	7019      	strb	r1, [r3, #0]
          hi2c->pBuffPtr++;
 8003adc:	6a63      	ldr	r3, [r4, #36]	@ 0x24
 8003ade:	3301      	adds	r3, #1
 8003ae0:	6263      	str	r3, [r4, #36]	@ 0x24
          hi2c->XferSize--;
 8003ae2:	8d23      	ldrh	r3, [r4, #40]	@ 0x28
 8003ae4:	3b01      	subs	r3, #1
 8003ae6:	8523      	strh	r3, [r4, #40]	@ 0x28
          hi2c->XferCount--;
 8003ae8:	8d63      	ldrh	r3, [r4, #42]	@ 0x2a
 8003aea:	3b01      	subs	r3, #1
 8003aec:	b29b      	uxth	r3, r3
 8003aee:	8563      	strh	r3, [r4, #42]	@ 0x2a
          if (I2C_WaitOnFlagUntilTimeout(hi2c, I2C_FLAG_BTF, RESET, Timeout, tickstart) != HAL_OK)
 8003af0:	4641      	mov	r1, r8
 8003af2:	9600      	str	r6, [sp, #0]
 8003af4:	463b      	mov	r3, r7
 8003af6:	4620      	mov	r0, r4
 8003af8:	e7c8      	b.n	8003a8c <HAL_I2C_Mem_Read+0x15c>
        if (I2C_WaitOnRXNEFlagUntilTimeout(hi2c, Timeout, tickstart) != HAL_OK)
 8003afa:	4632      	mov	r2, r6
 8003afc:	4639      	mov	r1, r7
 8003afe:	4620      	mov	r0, r4
 8003b00:	f7ff fdaa 	bl	8003658 <I2C_WaitOnRXNEFlagUntilTimeout>
 8003b04:	2800      	cmp	r0, #0
 8003b06:	f47f af5e 	bne.w	80039c6 <HAL_I2C_Mem_Read+0x96>
        *hi2c->pBuffPtr = (uint8_t)hi2c->Instance->DR;
 8003b0a:	6823      	ldr	r3, [r4, #0]
 8003b0c:	691a      	ldr	r2, [r3, #16]
 8003b0e:	6a63      	ldr	r3, [r4, #36]	@ 0x24
 8003b10:	701a      	strb	r2, [r3, #0]
        hi2c->XferCount--;
 8003b12:	8d62      	ldrh	r2, [r4, #42]	@ 0x2a
        hi2c->pBuffPtr++;
 8003b14:	6a61      	ldr	r1, [r4, #36]	@ 0x24
        hi2c->XferCount--;
 8003b16:	3a01      	subs	r2, #1
 8003b18:	b292      	uxth	r2, r2
        hi2c->pBuffPtr++;
 8003b1a:	1c4b      	adds	r3, r1, #1
        hi2c->XferCount--;
 8003b1c:	8562      	strh	r2, [r4, #42]	@ 0x2a
        if (__HAL_I2C_GET_FLAG(hi2c, I2C_FLAG_BTF) == SET)
 8003b1e:	6822      	ldr	r2, [r4, #0]
        hi2c->pBuffPtr++;
 8003b20:	6263      	str	r3, [r4, #36]	@ 0x24
        hi2c->XferSize--;
 8003b22:	8d23      	ldrh	r3, [r4, #40]	@ 0x28
        if (__HAL_I2C_GET_FLAG(hi2c, I2C_FLAG_BTF) == SET)
 8003b24:	6950      	ldr	r0, [r2, #20]
        hi2c->XferSize--;
 8003b26:	3b01      	subs	r3, #1
 8003b28:	b29b      	uxth	r3, r3
        if (__HAL_I2C_GET_FLAG(hi2c, I2C_FLAG_BTF) == SET)
 8003b2a:	0740      	lsls	r0, r0, #29
        hi2c->XferSize--;
 8003b2c:	8523      	strh	r3, [r4, #40]	@ 0x28
        if (__HAL_I2C_GET_FLAG(hi2c, I2C_FLAG_BTF) == SET)
 8003b2e:	f57f af5b 	bpl.w	80039e8 <HAL_I2C_Mem_Read+0xb8>
          if (hi2c->XferSize == 3U)
 8003b32:	2b03      	cmp	r3, #3
            CLEAR_BIT(hi2c->Instance->CR1, I2C_CR1_ACK);
 8003b34:	bf02      	ittt	eq
 8003b36:	6813      	ldreq	r3, [r2, #0]
 8003b38:	f423 6380 	biceq.w	r3, r3, #1024	@ 0x400
 8003b3c:	6013      	streq	r3, [r2, #0]
          *hi2c->pBuffPtr = (uint8_t)hi2c->Instance->DR;
 8003b3e:	6913      	ldr	r3, [r2, #16]
 8003b40:	704b      	strb	r3, [r1, #1]
 8003b42:	e790      	b.n	8003a66 <HAL_I2C_Mem_Read+0x136>
 8003b44:	00100002 	.word	0x00100002
 8003b48:	ffff0000 	.word	0xffff0000
 8003b4c:	00010004 	.word	0x00010004

08003b50 <HAL_I2C_IsDeviceReady>:
{
 8003b50:	e92d 4ff0 	stmdb	sp!, {r4, r5, r6, r7, r8, r9, sl, fp, lr}
 8003b54:	4604      	mov	r4, r0
 8003b56:	b085      	sub	sp, #20
 8003b58:	461f      	mov	r7, r3
 8003b5a:	4688      	mov	r8, r1
 8003b5c:	4692      	mov	sl, r2
  uint32_t tickstart = HAL_GetTick();
 8003b5e:	f7ff f89b 	bl	8002c98 <HAL_GetTick>
  if (hi2c->State == HAL_I2C_STATE_READY)
 8003b62:	f894 303d 	ldrb.w	r3, [r4, #61]	@ 0x3d
 8003b66:	2b20      	cmp	r3, #32
  uint32_t tickstart = HAL_GetTick();
 8003b68:	4605      	mov	r5, r0
  if (hi2c->State == HAL_I2C_STATE_READY)
 8003b6a:	d003      	beq.n	8003b74 <HAL_I2C_IsDeviceReady+0x24>
      return HAL_BUSY;
 8003b6c:	2002      	movs	r0, #2
}
 8003b6e:	b005      	add	sp, #20
 8003b70:	e8bd 8ff0 	ldmia.w	sp!, {r4, r5, r6, r7, r8, r9, sl, fp, pc}
    if (I2C_WaitOnFlagUntilTimeout(hi2c, I2C_FLAG_BUSY, SET, I2C_TIMEOUT_BUSY_FLAG, tickstart) != HAL_OK)
 8003b74:	9000      	str	r0, [sp, #0]
 8003b76:	494d      	ldr	r1, [pc, #308]	@ (8003cac <HAL_I2C_IsDeviceReady+0x15c>)
 8003b78:	2319      	movs	r3, #25
 8003b7a:	2201      	movs	r2, #1
 8003b7c:	4620      	mov	r0, r4
 8003b7e:	f7ff fbb8 	bl	80032f2 <I2C_WaitOnFlagUntilTimeout>
 8003b82:	2800      	cmp	r0, #0
 8003b84:	d1f2      	bne.n	8003b6c <HAL_I2C_IsDeviceReady+0x1c>
    __HAL_LOCK(hi2c);
 8003b86:	f894 303c 	ldrb.w	r3, [r4, #60]	@ 0x3c
 8003b8a:	2b01      	cmp	r3, #1
 8003b8c:	d0ee      	beq.n	8003b6c <HAL_I2C_IsDeviceReady+0x1c>
 8003b8e:	2301      	movs	r3, #1
 8003b90:	f884 303c 	strb.w	r3, [r4, #60]	@ 0x3c
    if ((hi2c->Instance->CR1 & I2C_CR1_PE) != I2C_CR1_PE)
 8003b94:	6823      	ldr	r3, [r4, #0]
        if (I2C_WaitOnFlagUntilTimeout(hi2c, I2C_FLAG_BUSY, SET, I2C_TIMEOUT_BUSY_FLAG, tickstart) != HAL_OK)
 8003b96:	f8df b114 	ldr.w	fp, [pc, #276]	@ 8003cac <HAL_I2C_IsDeviceReady+0x15c>
    if ((hi2c->Instance->CR1 & I2C_CR1_PE) != I2C_CR1_PE)
 8003b9a:	681a      	ldr	r2, [r3, #0]
 8003b9c:	07d0      	lsls	r0, r2, #31
      __HAL_I2C_ENABLE(hi2c);
 8003b9e:	bf5e      	ittt	pl
 8003ba0:	681a      	ldrpl	r2, [r3, #0]
 8003ba2:	f042 0201 	orrpl.w	r2, r2, #1
 8003ba6:	601a      	strpl	r2, [r3, #0]
    CLEAR_BIT(hi2c->Instance->CR1, I2C_CR1_POS);
 8003ba8:	681a      	ldr	r2, [r3, #0]
 8003baa:	f422 6200 	bic.w	r2, r2, #2048	@ 0x800
 8003bae:	601a      	str	r2, [r3, #0]
    hi2c->State = HAL_I2C_STATE_BUSY;
 8003bb0:	2324      	movs	r3, #36	@ 0x24
 8003bb2:	f884 303d 	strb.w	r3, [r4, #61]	@ 0x3d
    hi2c->ErrorCode = HAL_I2C_ERROR_NONE;
 8003bb6:	2600      	movs	r6, #0
    hi2c->XferOptions = I2C_NO_OPTION_FRAME;
 8003bb8:	4b3d      	ldr	r3, [pc, #244]	@ (8003cb0 <HAL_I2C_IsDeviceReady+0x160>)
    hi2c->ErrorCode = HAL_I2C_ERROR_NONE;
 8003bba:	6426      	str	r6, [r4, #64]	@ 0x40
      hi2c->Instance->DR = I2C_7BIT_ADD_WRITE(DevAddress);
 8003bbc:	f008 08fe 	and.w	r8, r8, #254	@ 0xfe
    hi2c->XferOptions = I2C_NO_OPTION_FRAME;
 8003bc0:	62e3      	str	r3, [r4, #44]	@ 0x2c
      SET_BIT(hi2c->Instance->CR1, I2C_CR1_START);
 8003bc2:	6822      	ldr	r2, [r4, #0]
 8003bc4:	6813      	ldr	r3, [r2, #0]
 8003bc6:	f443 7380 	orr.w	r3, r3, #256	@ 0x100
 8003bca:	6013      	str	r3, [r2, #0]
      if (I2C_WaitOnFlagUntilTimeout(hi2c, I2C_FLAG_SB, RESET, Timeout, tickstart) != HAL_OK)
 8003bcc:	f04f 1101 	mov.w	r1, #65537	@ 0x10001
 8003bd0:	463b      	mov	r3, r7
 8003bd2:	9500      	str	r5, [sp, #0]
 8003bd4:	2200      	movs	r2, #0
 8003bd6:	4620      	mov	r0, r4
 8003bd8:	f7ff fb8b 	bl	80032f2 <I2C_WaitOnFlagUntilTimeout>
 8003bdc:	6823      	ldr	r3, [r4, #0]
 8003bde:	b138      	cbz	r0, 8003bf0 <HAL_I2C_IsDeviceReady+0xa0>
        if (READ_BIT(hi2c->Instance->CR1, I2C_CR1_START) == I2C_CR1_START)
 8003be0:	681b      	ldr	r3, [r3, #0]
 8003be2:	05d9      	lsls	r1, r3, #23
          hi2c->ErrorCode = HAL_I2C_WRONG_START;
 8003be4:	bf44      	itt	mi
 8003be6:	f44f 7300 	movmi.w	r3, #512	@ 0x200
 8003bea:	6423      	strmi	r3, [r4, #64]	@ 0x40
        return HAL_TIMEOUT;
 8003bec:	2003      	movs	r0, #3
 8003bee:	e7be      	b.n	8003b6e <HAL_I2C_IsDeviceReady+0x1e>
      hi2c->Instance->DR = I2C_7BIT_ADD_WRITE(DevAddress);
 8003bf0:	f8c3 8010 	str.w	r8, [r3, #16]
      tickstart = HAL_GetTick();
 8003bf4:	f7ff f850 	bl	8002c98 <HAL_GetTick>
      tmp1 = __HAL_I2C_GET_FLAG(hi2c, I2C_FLAG_ADDR);
 8003bf8:	6823      	ldr	r3, [r4, #0]
 8003bfa:	695a      	ldr	r2, [r3, #20]
      tmp2 = __HAL_I2C_GET_FLAG(hi2c, I2C_FLAG_AF);
 8003bfc:	695b      	ldr	r3, [r3, #20]
      tickstart = HAL_GetTick();
 8003bfe:	4605      	mov	r5, r0
      tmp1 = __HAL_I2C_GET_FLAG(hi2c, I2C_FLAG_ADDR);
 8003c00:	f3c2 0240 	ubfx	r2, r2, #1, #1
      tmp2 = __HAL_I2C_GET_FLAG(hi2c, I2C_FLAG_AF);
 8003c04:	f3c3 2380 	ubfx	r3, r3, #10, #1
          hi2c->State = HAL_I2C_STATE_TIMEOUT;
 8003c08:	f04f 09a0 	mov.w	r9, #160	@ 0xa0
      while ((hi2c->State != HAL_I2C_STATE_TIMEOUT) && (tmp1 == RESET) && (tmp2 == RESET))
 8003c0c:	f894 103d 	ldrb.w	r1, [r4, #61]	@ 0x3d
 8003c10:	29a0      	cmp	r1, #160	@ 0xa0
 8003c12:	d11c      	bne.n	8003c4e <HAL_I2C_IsDeviceReady+0xfe>
      if (__HAL_I2C_GET_FLAG(hi2c, I2C_FLAG_ADDR) == SET)
 8003c14:	6823      	ldr	r3, [r4, #0]
      hi2c->State = HAL_I2C_STATE_READY;
 8003c16:	f04f 0920 	mov.w	r9, #32
 8003c1a:	f884 903d 	strb.w	r9, [r4, #61]	@ 0x3d
      if (__HAL_I2C_GET_FLAG(hi2c, I2C_FLAG_ADDR) == SET)
 8003c1e:	695a      	ldr	r2, [r3, #20]
 8003c20:	0792      	lsls	r2, r2, #30
 8003c22:	d52b      	bpl.n	8003c7c <HAL_I2C_IsDeviceReady+0x12c>
        SET_BIT(hi2c->Instance->CR1, I2C_CR1_STOP);
 8003c24:	681a      	ldr	r2, [r3, #0]
        if (I2C_WaitOnFlagUntilTimeout(hi2c, I2C_FLAG_BUSY, SET, I2C_TIMEOUT_BUSY_FLAG, tickstart) != HAL_OK)
 8003c26:	4921      	ldr	r1, [pc, #132]	@ (8003cac <HAL_I2C_IsDeviceReady+0x15c>)
        SET_BIT(hi2c->Instance->CR1, I2C_CR1_STOP);
 8003c28:	f442 7200 	orr.w	r2, r2, #512	@ 0x200
 8003c2c:	601a      	str	r2, [r3, #0]
        __HAL_I2C_CLEAR_ADDRFLAG(hi2c);
 8003c2e:	2200      	movs	r2, #0
 8003c30:	9203      	str	r2, [sp, #12]
 8003c32:	695a      	ldr	r2, [r3, #20]
 8003c34:	9203      	str	r2, [sp, #12]
 8003c36:	699b      	ldr	r3, [r3, #24]
 8003c38:	9303      	str	r3, [sp, #12]
 8003c3a:	9b03      	ldr	r3, [sp, #12]
        if (I2C_WaitOnFlagUntilTimeout(hi2c, I2C_FLAG_BUSY, SET, I2C_TIMEOUT_BUSY_FLAG, tickstart) != HAL_OK)
 8003c3c:	9500      	str	r5, [sp, #0]
 8003c3e:	2319      	movs	r3, #25
 8003c40:	2201      	movs	r2, #1
 8003c42:	4620      	mov	r0, r4
 8003c44:	f7ff fb55 	bl	80032f2 <I2C_WaitOnFlagUntilTimeout>
 8003c48:	b198      	cbz	r0, 8003c72 <HAL_I2C_IsDeviceReady+0x122>
          return HAL_ERROR;
 8003c4a:	2001      	movs	r0, #1
 8003c4c:	e78f      	b.n	8003b6e <HAL_I2C_IsDeviceReady+0x1e>
      while ((hi2c->State != HAL_I2C_STATE_TIMEOUT) && (tmp1 == RESET) && (tmp2 == RESET))
 8003c4e:	4313      	orrs	r3, r2
 8003c50:	d1e0      	bne.n	8003c14 <HAL_I2C_IsDeviceReady+0xc4>
        if (((HAL_GetTick() - tickstart) > Timeout) || (Timeout == 0U))
 8003c52:	f7ff f821 	bl	8002c98 <HAL_GetTick>
 8003c56:	1b40      	subs	r0, r0, r5
 8003c58:	42b8      	cmp	r0, r7
 8003c5a:	d800      	bhi.n	8003c5e <HAL_I2C_IsDeviceReady+0x10e>
 8003c5c:	b90f      	cbnz	r7, 8003c62 <HAL_I2C_IsDeviceReady+0x112>
          hi2c->State = HAL_I2C_STATE_TIMEOUT;
 8003c5e:	f884 903d 	strb.w	r9, [r4, #61]	@ 0x3d
        tmp1 = __HAL_I2C_GET_FLAG(hi2c, I2C_FLAG_ADDR);
 8003c62:	6823      	ldr	r3, [r4, #0]
 8003c64:	695a      	ldr	r2, [r3, #20]
        tmp2 = __HAL_I2C_GET_FLAG(hi2c, I2C_FLAG_AF);
 8003c66:	695b      	ldr	r3, [r3, #20]
        tmp1 = __HAL_I2C_GET_FLAG(hi2c, I2C_FLAG_ADDR);
 8003c68:	f3c2 0240 	ubfx	r2, r2, #1, #1
        tmp2 = __HAL_I2C_GET_FLAG(hi2c, I2C_FLAG_AF);
 8003c6c:	f3c3 2380 	ubfx	r3, r3, #10, #1
 8003c70:	e7cc      	b.n	8003c0c <HAL_I2C_IsDeviceReady+0xbc>
        hi2c->State = HAL_I2C_STATE_READY;
 8003c72:	f884 903d 	strb.w	r9, [r4, #61]	@ 0x3d
        __HAL_UNLOCK(hi2c);
 8003c76:	f884 003c 	strb.w	r0, [r4, #60]	@ 0x3c
        return HAL_OK;
 8003c7a:	e778      	b.n	8003b6e <HAL_I2C_IsDeviceReady+0x1e>
        SET_BIT(hi2c->Instance->CR1, I2C_CR1_STOP);
 8003c7c:	681a      	ldr	r2, [r3, #0]
 8003c7e:	f442 7200 	orr.w	r2, r2, #512	@ 0x200
 8003c82:	601a      	str	r2, [r3, #0]
        __HAL_I2C_CLEAR_FLAG(hi2c, I2C_FLAG_AF);
 8003c84:	f46f 6280 	mvn.w	r2, #1024	@ 0x400
 8003c88:	615a      	str	r2, [r3, #20]
        if (I2C_WaitOnFlagUntilTimeout(hi2c, I2C_FLAG_BUSY, SET, I2C_TIMEOUT_BUSY_FLAG, tickstart) != HAL_OK)
 8003c8a:	4659      	mov	r1, fp
 8003c8c:	9500      	str	r5, [sp, #0]
 8003c8e:	2319      	movs	r3, #25
 8003c90:	2201      	movs	r2, #1
 8003c92:	4620      	mov	r0, r4
 8003c94:	f7ff fb2d 	bl	80032f2 <I2C_WaitOnFlagUntilTimeout>
 8003c98:	2800      	cmp	r0, #0
 8003c9a:	d1d6      	bne.n	8003c4a <HAL_I2C_IsDeviceReady+0xfa>
      I2C_Trials++;
 8003c9c:	3601      	adds	r6, #1
    while (I2C_Trials < Trials);
 8003c9e:	4556      	cmp	r6, sl
 8003ca0:	d38f      	bcc.n	8003bc2 <HAL_I2C_IsDeviceReady+0x72>
    hi2c->State = HAL_I2C_STATE_READY;
 8003ca2:	f884 903d 	strb.w	r9, [r4, #61]	@ 0x3d
    __HAL_UNLOCK(hi2c);
 8003ca6:	f884 003c 	strb.w	r0, [r4, #60]	@ 0x3c
    return HAL_ERROR;
 8003caa:	e7ce      	b.n	8003c4a <HAL_I2C_IsDeviceReady+0xfa>
 8003cac:	00100002 	.word	0x00100002
 8003cb0:	ffff0000 	.word	0xffff0000

08003cb4 <HAL_PCD_Init>:
  *         parameters in the PCD_InitTypeDef and initialize the associated handle.
  * @param  hpcd PCD handle
  * @retval HAL status
  */
HAL_StatusTypeDef HAL_PCD_Init(PCD_HandleTypeDef *hpcd)
{
 8003cb4:	b5f7      	push	{r0, r1, r2, r4, r5, r6, r7, lr}
  const USB_OTG_GlobalTypeDef *USBx;
#endif /* defined (USB_OTG_FS) */
  uint8_t i;

  /* Check the PCD handle allocation */
  if (hpcd == NULL)
 8003cb6:	4604      	mov	r4, r0
 8003cb8:	b310      	cbz	r0, 8003d00 <HAL_PCD_Init+0x4c>

#if defined (USB_OTG_FS)
  USBx = hpcd->Instance;
#endif /* defined (USB_OTG_FS) */

  if (hpcd->State == HAL_PCD_STATE_RESET)
 8003cba:	f890 3495 	ldrb.w	r3, [r0, #1173]	@ 0x495
  USBx = hpcd->Instance;
 8003cbe:	6805      	ldr	r5, [r0, #0]
  if (hpcd->State == HAL_PCD_STATE_RESET)
 8003cc0:	f003 02ff 	and.w	r2, r3, #255	@ 0xff
 8003cc4:	b91b      	cbnz	r3, 8003cce <HAL_PCD_Init+0x1a>
  {
    /* Allocate lock resource and initialize it */
    hpcd->Lock = HAL_UNLOCKED;
 8003cc6:	f880 2494 	strb.w	r2, [r0, #1172]	@ 0x494

    /* Init the low level hardware */
    hpcd->MspInitCallback(hpcd);
#else
    /* Init the low level hardware : GPIO, CLOCK, NVIC... */
    HAL_PCD_MspInit(hpcd);
 8003cca:	f004 f95b 	bl	8007f84 <HAL_PCD_MspInit>
#endif /* (USE_HAL_PCD_REGISTER_CALLBACKS) */
  }

  hpcd->State = HAL_PCD_STATE_BUSY;
 8003cce:	2303      	movs	r3, #3

#if defined (USB_OTG_FS)
  /* Disable DMA mode for FS instance */
  if (USBx == USB_OTG_FS)
 8003cd0:	f1b5 4fa0 	cmp.w	r5, #1342177280	@ 0x50000000
  hpcd->State = HAL_PCD_STATE_BUSY;
 8003cd4:	f884 3495 	strb.w	r3, [r4, #1173]	@ 0x495
  {
    hpcd->Init.dma_enable = 0U;
 8003cd8:	bf04      	itt	eq
 8003cda:	2300      	moveq	r3, #0
 8003cdc:	71a3      	strbeq	r3, [r4, #6]
  }
#endif /* defined (USB_OTG_FS) */

  /* Disable the Interrupts */
  __HAL_PCD_DISABLE(hpcd);
 8003cde:	6820      	ldr	r0, [r4, #0]
 8003ce0:	f001 fee6 	bl	8005ab0 <USB_DisableGlobalInt>

  /*Init the Core (common init.) */
  if (USB_CoreInit(hpcd->Instance, hpcd->Init) != HAL_OK)
 8003ce4:	7c23      	ldrb	r3, [r4, #16]
 8003ce6:	f88d 3000 	strb.w	r3, [sp]
 8003cea:	1d25      	adds	r5, r4, #4
 8003cec:	e895 000e 	ldmia.w	r5, {r1, r2, r3}
 8003cf0:	6820      	ldr	r0, [r4, #0]
 8003cf2:	f001 fe22 	bl	800593a <USB_CoreInit>
 8003cf6:	4601      	mov	r1, r0
 8003cf8:	b130      	cbz	r0, 8003d08 <HAL_PCD_Init+0x54>
  {
    hpcd->State = HAL_PCD_STATE_ERROR;
 8003cfa:	2302      	movs	r3, #2
 8003cfc:	f884 3495 	strb.w	r3, [r4, #1173]	@ 0x495
    return HAL_ERROR;
 8003d00:	2501      	movs	r5, #1
          defined(STM32F412Vx) || defined(STM32F412Rx) || defined(STM32F412Cx) || defined(STM32F413xx) ||
          defined(STM32F423xx) */
  (void)USB_DevDisconnect(hpcd->Instance);

  return HAL_OK;
}
 8003d02:	4628      	mov	r0, r5
 8003d04:	b003      	add	sp, #12
 8003d06:	bdf0      	pop	{r4, r5, r6, r7, pc}
  if (USB_SetCurrentMode(hpcd->Instance, USB_DEVICE_MODE) != HAL_OK)
 8003d08:	6820      	ldr	r0, [r4, #0]
 8003d0a:	f001 fed7 	bl	8005abc <USB_SetCurrentMode>
 8003d0e:	2800      	cmp	r0, #0
 8003d10:	d1f3      	bne.n	8003cfa <HAL_PCD_Init+0x46>
  for (i = 0U; i < hpcd->Init.dev_endpoints; i++)
 8003d12:	7926      	ldrb	r6, [r4, #4]
 8003d14:	f104 0314 	add.w	r3, r4, #20
    hpcd->IN_ep[i].is_in = 1U;
 8003d18:	2701      	movs	r7, #1
    hpcd->IN_ep[i].type = EP_TYPE_CTRL;
 8003d1a:	4602      	mov	r2, r0
 8003d1c:	b2c1      	uxtb	r1, r0
  for (i = 0U; i < hpcd->Init.dev_endpoints; i++)
 8003d1e:	428e      	cmp	r6, r1
 8003d20:	f103 0324 	add.w	r3, r3, #36	@ 0x24
 8003d24:	d81b      	bhi.n	8003d5e <HAL_PCD_Init+0xaa>
 8003d26:	2100      	movs	r1, #0
 8003d28:	f504 7315 	add.w	r3, r4, #596	@ 0x254
    hpcd->OUT_ep[i].is_in = 0U;
 8003d2c:	460a      	mov	r2, r1
 8003d2e:	b2c8      	uxtb	r0, r1
  for (i = 0U; i < hpcd->Init.dev_endpoints; i++)
 8003d30:	4286      	cmp	r6, r0
 8003d32:	f103 0324 	add.w	r3, r3, #36	@ 0x24
 8003d36:	d820      	bhi.n	8003d7a <HAL_PCD_Init+0xc6>
  if (USB_DevInit(hpcd->Instance, hpcd->Init) != HAL_OK)
 8003d38:	7c23      	ldrb	r3, [r4, #16]
 8003d3a:	f88d 3000 	strb.w	r3, [sp]
 8003d3e:	e895 000e 	ldmia.w	r5, {r1, r2, r3}
 8003d42:	6820      	ldr	r0, [r4, #0]
 8003d44:	f001 ff36 	bl	8005bb4 <USB_DevInit>
 8003d48:	4605      	mov	r5, r0
 8003d4a:	2800      	cmp	r0, #0
 8003d4c:	d1d5      	bne.n	8003cfa <HAL_PCD_Init+0x46>
  hpcd->State = HAL_PCD_STATE_READY;
 8003d4e:	2301      	movs	r3, #1
  hpcd->USB_Address = 0U;
 8003d50:	7460      	strb	r0, [r4, #17]
  (void)USB_DevDisconnect(hpcd->Instance);
 8003d52:	6820      	ldr	r0, [r4, #0]
  hpcd->State = HAL_PCD_STATE_READY;
 8003d54:	f884 3495 	strb.w	r3, [r4, #1173]	@ 0x495
  (void)USB_DevDisconnect(hpcd->Instance);
 8003d58:	f002 fa70 	bl	800623c <USB_DevDisconnect>
  return HAL_OK;
 8003d5c:	e7d1      	b.n	8003d02 <HAL_PCD_Init+0x4e>
    hpcd->IN_ep[i].tx_fifo_num = i;
 8003d5e:	f823 0c0a 	strh.w	r0, [r3, #-10]
    hpcd->IN_ep[i].xfer_buff = 0U;
 8003d62:	e943 2207 	strd	r2, r2, [r3, #-28]
    hpcd->IN_ep[i].is_in = 1U;
 8003d66:	f803 7c23 	strb.w	r7, [r3, #-35]
    hpcd->IN_ep[i].num = i;
 8003d6a:	f803 1c24 	strb.w	r1, [r3, #-36]
    hpcd->IN_ep[i].type = EP_TYPE_CTRL;
 8003d6e:	f803 2c20 	strb.w	r2, [r3, #-32]
    hpcd->IN_ep[i].xfer_len = 0U;
 8003d72:	f843 2c14 	str.w	r2, [r3, #-20]
  for (i = 0U; i < hpcd->Init.dev_endpoints; i++)
 8003d76:	3001      	adds	r0, #1
 8003d78:	e7d0      	b.n	8003d1c <HAL_PCD_Init+0x68>
    hpcd->OUT_ep[i].xfer_buff = 0U;
 8003d7a:	e943 2207 	strd	r2, r2, [r3, #-28]
    hpcd->OUT_ep[i].is_in = 0U;
 8003d7e:	f803 2c23 	strb.w	r2, [r3, #-35]
    hpcd->OUT_ep[i].num = i;
 8003d82:	f803 0c24 	strb.w	r0, [r3, #-36]
    hpcd->OUT_ep[i].type = EP_TYPE_CTRL;
 8003d86:	f803 2c20 	strb.w	r2, [r3, #-32]
    hpcd->OUT_ep[i].xfer_len = 0U;
 8003d8a:	f843 2c14 	str.w	r2, [r3, #-20]
  for (i = 0U; i < hpcd->Init.dev_endpoints; i++)
 8003d8e:	3101      	adds	r1, #1
 8003d90:	e7cd      	b.n	8003d2e <HAL_PCD_Init+0x7a>

08003d92 <HAL_PCD_Start>:
  * @brief  Start the USB device
  * @param  hpcd PCD handle
  * @retval HAL status
  */
HAL_StatusTypeDef HAL_PCD_Start(PCD_HandleTypeDef *hpcd)
{
 8003d92:	b510      	push	{r4, lr}
 8003d94:	4604      	mov	r4, r0
  USB_OTG_GlobalTypeDef *USBx = hpcd->Instance;
 8003d96:	6800      	ldr	r0, [r0, #0]

  __HAL_LOCK(hpcd);
 8003d98:	f894 3494 	ldrb.w	r3, [r4, #1172]	@ 0x494
 8003d9c:	2b01      	cmp	r3, #1
 8003d9e:	d015      	beq.n	8003dcc <HAL_PCD_Start+0x3a>
 8003da0:	2301      	movs	r3, #1
 8003da2:	f884 3494 	strb.w	r3, [r4, #1172]	@ 0x494

  if (((USBx->GUSBCFG & USB_OTG_GUSBCFG_PHYSEL) != 0U) &&
 8003da6:	68c3      	ldr	r3, [r0, #12]
 8003da8:	065b      	lsls	r3, r3, #25
 8003daa:	d506      	bpl.n	8003dba <HAL_PCD_Start+0x28>
 8003dac:	7b63      	ldrb	r3, [r4, #13]
 8003dae:	2b01      	cmp	r3, #1
      (hpcd->Init.battery_charging_enable == 1U))
  {
    /* Enable USB Transceiver */
    USBx->GCCFG |= USB_OTG_GCCFG_PWRDWN;
 8003db0:	bf02      	ittt	eq
 8003db2:	6b83      	ldreq	r3, [r0, #56]	@ 0x38
 8003db4:	f443 3380 	orreq.w	r3, r3, #65536	@ 0x10000
 8003db8:	6383      	streq	r3, [r0, #56]	@ 0x38
  }

  __HAL_PCD_ENABLE(hpcd);
 8003dba:	f001 fe73 	bl	8005aa4 <USB_EnableGlobalInt>
  (void)USB_DevConnect(hpcd->Instance);
 8003dbe:	6820      	ldr	r0, [r4, #0]
 8003dc0:	f002 fa2e 	bl	8006220 <USB_DevConnect>
  __HAL_UNLOCK(hpcd);
 8003dc4:	2000      	movs	r0, #0
 8003dc6:	f884 0494 	strb.w	r0, [r4, #1172]	@ 0x494

  return HAL_OK;
}
 8003dca:	bd10      	pop	{r4, pc}
  __HAL_LOCK(hpcd);
 8003dcc:	2002      	movs	r0, #2
 8003dce:	e7fc      	b.n	8003dca <HAL_PCD_Start+0x38>

08003dd0 <HAL_PCD_SetAddress>:
  * @param  hpcd PCD handle
  * @param  address new device address
  * @retval HAL status
  */
HAL_StatusTypeDef HAL_PCD_SetAddress(PCD_HandleTypeDef *hpcd, uint8_t address)
{
 8003dd0:	b510      	push	{r4, lr}
  __HAL_LOCK(hpcd);
 8003dd2:	f890 2494 	ldrb.w	r2, [r0, #1172]	@ 0x494
 8003dd6:	2a01      	cmp	r2, #1
{
 8003dd8:	4604      	mov	r4, r0
  __HAL_LOCK(hpcd);
 8003dda:	d00a      	beq.n	8003df2 <HAL_PCD_SetAddress+0x22>
 8003ddc:	2201      	movs	r2, #1
 8003dde:	f880 2494 	strb.w	r2, [r0, #1172]	@ 0x494
  hpcd->USB_Address = address;
 8003de2:	7441      	strb	r1, [r0, #17]
  (void)USB_SetDevAddress(hpcd->Instance, address);
 8003de4:	6800      	ldr	r0, [r0, #0]
 8003de6:	f002 fa0b 	bl	8006200 <USB_SetDevAddress>
  __HAL_UNLOCK(hpcd);
 8003dea:	2000      	movs	r0, #0
 8003dec:	f884 0494 	strb.w	r0, [r4, #1172]	@ 0x494

  return HAL_OK;
}
 8003df0:	bd10      	pop	{r4, pc}
  __HAL_LOCK(hpcd);
 8003df2:	2002      	movs	r0, #2
 8003df4:	e7fc      	b.n	8003df0 <HAL_PCD_SetAddress+0x20>

08003df6 <HAL_PCD_EP_Open>:
  * @param  ep_type endpoint type
  * @retval HAL status
  */
HAL_StatusTypeDef HAL_PCD_EP_Open(PCD_HandleTypeDef *hpcd, uint8_t ep_addr,
                                  uint16_t ep_mps, uint8_t ep_type)
{
 8003df6:	b570      	push	{r4, r5, r6, lr}
 8003df8:	f001 060f 	and.w	r6, r1, #15
 8003dfc:	eb06 04c6 	add.w	r4, r6, r6, lsl #3
  HAL_StatusTypeDef ret = HAL_OK;
  PCD_EPTypeDef *ep;

  if ((ep_addr & 0x80U) == 0x80U)
 8003e00:	f011 0f80 	tst.w	r1, #128	@ 0x80
{
 8003e04:	4605      	mov	r5, r0
 8003e06:	ea4f 0484 	mov.w	r4, r4, lsl #2
 8003e0a:	f04f 0024 	mov.w	r0, #36	@ 0x24
  if ((ep_addr & 0x80U) == 0x80U)
 8003e0e:	d020      	beq.n	8003e52 <HAL_PCD_EP_Open+0x5c>
  {
    ep = &hpcd->IN_ep[ep_addr & EP_ADDR_MSK];
    ep->is_in = 1U;
 8003e10:	fb00 5006 	mla	r0, r0, r6, r5
    ep = &hpcd->IN_ep[ep_addr & EP_ADDR_MSK];
 8003e14:	f104 0114 	add.w	r1, r4, #20
    ep->is_in = 1U;
 8003e18:	2401      	movs	r4, #1
    ep = &hpcd->IN_ep[ep_addr & EP_ADDR_MSK];
 8003e1a:	4429      	add	r1, r5
    ep->is_in = 1U;
 8003e1c:	7544      	strb	r4, [r0, #21]
    ep = &hpcd->OUT_ep[ep_addr & EP_ADDR_MSK];
    ep->is_in = 0U;
  }

  ep->num = ep_addr & EP_ADDR_MSK;
  ep->maxpacket = (uint32_t)ep_mps & 0x7FFU;
 8003e1e:	f3c2 020a 	ubfx	r2, r2, #0, #11
 8003e22:	608a      	str	r2, [r1, #8]
  ep->type = ep_type;

  if (ep->is_in != 0U)
 8003e24:	784a      	ldrb	r2, [r1, #1]
  ep->num = ep_addr & EP_ADDR_MSK;
 8003e26:	700e      	strb	r6, [r1, #0]
  ep->type = ep_type;
 8003e28:	710b      	strb	r3, [r1, #4]
  if (ep->is_in != 0U)
 8003e2a:	b102      	cbz	r2, 8003e2e <HAL_PCD_EP_Open+0x38>
  {
    /* Assign a Tx FIFO */
    ep->tx_fifo_num = ep->num;
 8003e2c:	834e      	strh	r6, [r1, #26]
  }

  /* Set initial data PID. */
  if (ep_type == EP_TYPE_BULK)
 8003e2e:	2b02      	cmp	r3, #2
  {
    ep->data_pid_start = 0U;
 8003e30:	bf04      	itt	eq
 8003e32:	2300      	moveq	r3, #0
 8003e34:	714b      	strbeq	r3, [r1, #5]
  }

  __HAL_LOCK(hpcd);
 8003e36:	f895 3494 	ldrb.w	r3, [r5, #1172]	@ 0x494
 8003e3a:	2b01      	cmp	r3, #1
 8003e3c:	d012      	beq.n	8003e64 <HAL_PCD_EP_Open+0x6e>
 8003e3e:	2301      	movs	r3, #1
  (void)USB_ActivateEndpoint(hpcd->Instance, ep);
 8003e40:	6828      	ldr	r0, [r5, #0]
  __HAL_LOCK(hpcd);
 8003e42:	f885 3494 	strb.w	r3, [r5, #1172]	@ 0x494
  (void)USB_ActivateEndpoint(hpcd->Instance, ep);
 8003e46:	f001 ff7a 	bl	8005d3e <USB_ActivateEndpoint>
  __HAL_UNLOCK(hpcd);
 8003e4a:	2000      	movs	r0, #0
 8003e4c:	f885 0494 	strb.w	r0, [r5, #1172]	@ 0x494

  return ret;
}
 8003e50:	bd70      	pop	{r4, r5, r6, pc}
    ep->is_in = 0U;
 8003e52:	fb00 5006 	mla	r0, r0, r6, r5
    ep = &hpcd->OUT_ep[ep_addr & EP_ADDR_MSK];
 8003e56:	f504 7115 	add.w	r1, r4, #596	@ 0x254
    ep->is_in = 0U;
 8003e5a:	2400      	movs	r4, #0
    ep = &hpcd->OUT_ep[ep_addr & EP_ADDR_MSK];
 8003e5c:	4429      	add	r1, r5
    ep->is_in = 0U;
 8003e5e:	f880 4255 	strb.w	r4, [r0, #597]	@ 0x255
 8003e62:	e7dc      	b.n	8003e1e <HAL_PCD_EP_Open+0x28>
  __HAL_LOCK(hpcd);
 8003e64:	2002      	movs	r0, #2
 8003e66:	e7f3      	b.n	8003e50 <HAL_PCD_EP_Open+0x5a>

08003e68 <HAL_PCD_EP_Close>:
  * @param  hpcd PCD handle
  * @param  ep_addr endpoint address
  * @retval HAL status
  */
HAL_StatusTypeDef HAL_PCD_EP_Close(PCD_HandleTypeDef *hpcd, uint8_t ep_addr)
{
 8003e68:	b510      	push	{r4, lr}
 8003e6a:	4604      	mov	r4, r0
 8003e6c:	f001 000f 	and.w	r0, r1, #15
 8003e70:	eb00 03c0 	add.w	r3, r0, r0, lsl #3
  PCD_EPTypeDef *ep;

  if ((ep_addr & 0x80U) == 0x80U)
 8003e74:	f011 0f80 	tst.w	r1, #128	@ 0x80
 8003e78:	ea4f 0383 	mov.w	r3, r3, lsl #2
 8003e7c:	f04f 0224 	mov.w	r2, #36	@ 0x24
 8003e80:	d015      	beq.n	8003eae <HAL_PCD_EP_Close+0x46>
  {
    ep = &hpcd->IN_ep[ep_addr & EP_ADDR_MSK];
    ep->is_in = 1U;
 8003e82:	fb02 4200 	mla	r2, r2, r0, r4
    ep = &hpcd->IN_ep[ep_addr & EP_ADDR_MSK];
 8003e86:	f103 0114 	add.w	r1, r3, #20
    ep->is_in = 1U;
 8003e8a:	2301      	movs	r3, #1
    ep = &hpcd->IN_ep[ep_addr & EP_ADDR_MSK];
 8003e8c:	4421      	add	r1, r4
    ep->is_in = 1U;
 8003e8e:	7553      	strb	r3, [r2, #21]
  else
  {
    ep = &hpcd->OUT_ep[ep_addr & EP_ADDR_MSK];
    ep->is_in = 0U;
  }
  ep->num = ep_addr & EP_ADDR_MSK;
 8003e90:	7008      	strb	r0, [r1, #0]

  __HAL_LOCK(hpcd);
 8003e92:	f894 3494 	ldrb.w	r3, [r4, #1172]	@ 0x494
 8003e96:	2b01      	cmp	r3, #1
 8003e98:	d012      	beq.n	8003ec0 <HAL_PCD_EP_Close+0x58>
 8003e9a:	2301      	movs	r3, #1
  (void)USB_DeactivateEndpoint(hpcd->Instance, ep);
 8003e9c:	6820      	ldr	r0, [r4, #0]
  __HAL_LOCK(hpcd);
 8003e9e:	f884 3494 	strb.w	r3, [r4, #1172]	@ 0x494
  (void)USB_DeactivateEndpoint(hpcd->Instance, ep);
 8003ea2:	f001 ff8b 	bl	8005dbc <USB_DeactivateEndpoint>
  __HAL_UNLOCK(hpcd);
 8003ea6:	2000      	movs	r0, #0
 8003ea8:	f884 0494 	strb.w	r0, [r4, #1172]	@ 0x494
  return HAL_OK;
}
 8003eac:	bd10      	pop	{r4, pc}
    ep->is_in = 0U;
 8003eae:	fb02 4200 	mla	r2, r2, r0, r4
    ep = &hpcd->OUT_ep[ep_addr & EP_ADDR_MSK];
 8003eb2:	f503 7115 	add.w	r1, r3, #596	@ 0x254
    ep->is_in = 0U;
 8003eb6:	2300      	movs	r3, #0
    ep = &hpcd->OUT_ep[ep_addr & EP_ADDR_MSK];
 8003eb8:	4421      	add	r1, r4
    ep->is_in = 0U;
 8003eba:	f882 3255 	strb.w	r3, [r2, #597]	@ 0x255
 8003ebe:	e7e7      	b.n	8003e90 <HAL_PCD_EP_Close+0x28>
  __HAL_LOCK(hpcd);
 8003ec0:	2002      	movs	r0, #2
 8003ec2:	e7f3      	b.n	8003eac <HAL_PCD_EP_Close+0x44>

08003ec4 <HAL_PCD_EP_Receive>:
  * @param  pBuf pointer to the reception buffer
  * @param  len amount of data to be received
  * @retval HAL status
  */
HAL_StatusTypeDef HAL_PCD_EP_Receive(PCD_HandleTypeDef *hpcd, uint8_t ep_addr, uint8_t *pBuf, uint32_t len)
{
 8003ec4:	b570      	push	{r4, r5, r6, lr}
 8003ec6:	f001 050f 	and.w	r5, r1, #15
  PCD_EPTypeDef *ep;

  ep = &hpcd->OUT_ep[ep_addr & EP_ADDR_MSK];
 8003eca:	2424      	movs	r4, #36	@ 0x24
 8003ecc:	fb04 0105 	mla	r1, r4, r5, r0

  /*setup and start the Xfer */
  ep->xfer_buff = pBuf;
 8003ed0:	fb04 0405 	mla	r4, r4, r5, r0
  ep->xfer_len = len;
 8003ed4:	e9c4 2398 	strd	r2, r3, [r4, #608]	@ 0x260
  ep->xfer_count = 0U;
 8003ed8:	2300      	movs	r3, #0
 8003eda:	f8c4 3268 	str.w	r3, [r4, #616]	@ 0x268
  ep->is_in = 0U;
 8003ede:	f884 3255 	strb.w	r3, [r4, #597]	@ 0x255
  ep->num = ep_addr & EP_ADDR_MSK;
 8003ee2:	f884 5254 	strb.w	r5, [r4, #596]	@ 0x254
{
 8003ee6:	4616      	mov	r6, r2

  if (hpcd->Init.dma_enable == 1U)
 8003ee8:	7982      	ldrb	r2, [r0, #6]
  {
    ep->dma_addr = (uint32_t)pBuf;
  }

  (void)USB_EPStartXfer(hpcd->Instance, ep, (uint8_t)hpcd->Init.dma_enable);
 8003eea:	6800      	ldr	r0, [r0, #0]
  if (hpcd->Init.dma_enable == 1U)
 8003eec:	2a01      	cmp	r2, #1
  ep = &hpcd->OUT_ep[ep_addr & EP_ADDR_MSK];
 8003eee:	f501 7115 	add.w	r1, r1, #596	@ 0x254
    ep->dma_addr = (uint32_t)pBuf;
 8003ef2:	bf08      	it	eq
 8003ef4:	f8c4 6270 	streq.w	r6, [r4, #624]	@ 0x270
  (void)USB_EPStartXfer(hpcd->Instance, ep, (uint8_t)hpcd->Init.dma_enable);
 8003ef8:	f002 f80c 	bl	8005f14 <USB_EPStartXfer>

  return HAL_OK;
}
 8003efc:	2000      	movs	r0, #0
 8003efe:	bd70      	pop	{r4, r5, r6, pc}

08003f00 <HAL_PCD_EP_GetRxCount>:
  * @param  ep_addr endpoint address
  * @retval Data Size
  */
uint32_t HAL_PCD_EP_GetRxCount(PCD_HandleTypeDef const *hpcd, uint8_t ep_addr)
{
  return hpcd->OUT_ep[ep_addr & EP_ADDR_MSK].xfer_count;
 8003f00:	f001 010f 	and.w	r1, r1, #15
 8003f04:	2324      	movs	r3, #36	@ 0x24
 8003f06:	fb03 0001 	mla	r0, r3, r1, r0
}
 8003f0a:	f8d0 0268 	ldr.w	r0, [r0, #616]	@ 0x268
 8003f0e:	4770      	bx	lr

08003f10 <HAL_PCD_EP_Transmit>:
  * @param  pBuf pointer to the transmission buffer
  * @param  len amount of data to be sent
  * @retval HAL status
  */
HAL_StatusTypeDef HAL_PCD_EP_Transmit(PCD_HandleTypeDef *hpcd, uint8_t ep_addr, uint8_t *pBuf, uint32_t len)
{
 8003f10:	b570      	push	{r4, r5, r6, lr}
 8003f12:	f001 050f 	and.w	r5, r1, #15
  PCD_EPTypeDef *ep;

  ep = &hpcd->IN_ep[ep_addr & EP_ADDR_MSK];
 8003f16:	2424      	movs	r4, #36	@ 0x24
 8003f18:	fb04 0105 	mla	r1, r4, r5, r0

  /*setup and start the Xfer */
  ep->xfer_buff = pBuf;
 8003f1c:	fb04 0405 	mla	r4, r4, r5, r0
  ep->xfer_len = len;
 8003f20:	e9c4 2308 	strd	r2, r3, [r4, #32]
  ep->xfer_count = 0U;
 8003f24:	2300      	movs	r3, #0
 8003f26:	62a3      	str	r3, [r4, #40]	@ 0x28
  ep->is_in = 1U;
 8003f28:	2301      	movs	r3, #1
 8003f2a:	7563      	strb	r3, [r4, #21]
  ep->num = ep_addr & EP_ADDR_MSK;
 8003f2c:	7525      	strb	r5, [r4, #20]
{
 8003f2e:	4616      	mov	r6, r2

  if (hpcd->Init.dma_enable == 1U)
 8003f30:	7982      	ldrb	r2, [r0, #6]
  {
    ep->dma_addr = (uint32_t)pBuf;
  }

  (void)USB_EPStartXfer(hpcd->Instance, ep, (uint8_t)hpcd->Init.dma_enable);
 8003f32:	6800      	ldr	r0, [r0, #0]
  if (hpcd->Init.dma_enable == 1U)
 8003f34:	429a      	cmp	r2, r3
  ep = &hpcd->IN_ep[ep_addr & EP_ADDR_MSK];
 8003f36:	f101 0114 	add.w	r1, r1, #20
    ep->dma_addr = (uint32_t)pBuf;
 8003f3a:	bf08      	it	eq
 8003f3c:	6326      	streq	r6, [r4, #48]	@ 0x30
  (void)USB_EPStartXfer(hpcd->Instance, ep, (uint8_t)hpcd->Init.dma_enable);
 8003f3e:	f001 ffe9 	bl	8005f14 <USB_EPStartXfer>

  return HAL_OK;
}
 8003f42:	2000      	movs	r0, #0
 8003f44:	bd70      	pop	{r4, r5, r6, pc}

08003f46 <HAL_PCD_EP_SetStall>:
  * @param  hpcd PCD handle
  * @param  ep_addr endpoint address
  * @retval HAL status
  */
HAL_StatusTypeDef HAL_PCD_EP_SetStall(PCD_HandleTypeDef *hpcd, uint8_t ep_addr)
{
 8003f46:	b538      	push	{r3, r4, r5, lr}
  PCD_EPTypeDef *ep;

  if (((uint32_t)ep_addr & EP_ADDR_MSK) > hpcd->Init.dev_endpoints)
 8003f48:	7903      	ldrb	r3, [r0, #4]
 8003f4a:	f001 050f 	and.w	r5, r1, #15
 8003f4e:	42ab      	cmp	r3, r5
{
 8003f50:	4604      	mov	r4, r0
  if (((uint32_t)ep_addr & EP_ADDR_MSK) > hpcd->Init.dev_endpoints)
 8003f52:	d32b      	bcc.n	8003fac <HAL_PCD_EP_SetStall+0x66>
  {
    return HAL_ERROR;
  }

  if ((0x80U & ep_addr) == 0x80U)
 8003f54:	f011 0f80 	tst.w	r1, #128	@ 0x80
 8003f58:	f04f 0024 	mov.w	r0, #36	@ 0x24
 8003f5c:	d01d      	beq.n	8003f9a <HAL_PCD_EP_SetStall+0x54>
  {
    ep = &hpcd->IN_ep[ep_addr & EP_ADDR_MSK];
 8003f5e:	fb00 4105 	mla	r1, r0, r5, r4
    ep->is_in = 1U;
 8003f62:	fb00 4005 	mla	r0, r0, r5, r4
 8003f66:	2301      	movs	r3, #1
    ep = &hpcd->IN_ep[ep_addr & EP_ADDR_MSK];
 8003f68:	3114      	adds	r1, #20
    ep->is_in = 1U;
 8003f6a:	7543      	strb	r3, [r0, #21]
  {
    ep = &hpcd->OUT_ep[ep_addr];
    ep->is_in = 0U;
  }

  ep->is_stall = 1U;
 8003f6c:	2301      	movs	r3, #1
 8003f6e:	708b      	strb	r3, [r1, #2]
  ep->num = ep_addr & EP_ADDR_MSK;
 8003f70:	700d      	strb	r5, [r1, #0]

  __HAL_LOCK(hpcd);
 8003f72:	f894 2494 	ldrb.w	r2, [r4, #1172]	@ 0x494
 8003f76:	429a      	cmp	r2, r3
 8003f78:	d01a      	beq.n	8003fb0 <HAL_PCD_EP_SetStall+0x6a>

  (void)USB_EPSetStall(hpcd->Instance, ep);
 8003f7a:	6820      	ldr	r0, [r4, #0]
  __HAL_LOCK(hpcd);
 8003f7c:	f884 3494 	strb.w	r3, [r4, #1172]	@ 0x494
  (void)USB_EPSetStall(hpcd->Instance, ep);
 8003f80:	f002 f8ea 	bl	8006158 <USB_EPSetStall>

  if ((ep_addr & EP_ADDR_MSK) == 0U)
 8003f84:	b92d      	cbnz	r5, 8003f92 <HAL_PCD_EP_SetStall+0x4c>
  {
    (void)USB_EP0_OutStart(hpcd->Instance, (uint8_t)hpcd->Init.dma_enable, (uint8_t *)hpcd->Setup);
 8003f86:	79a1      	ldrb	r1, [r4, #6]
 8003f88:	6820      	ldr	r0, [r4, #0]
 8003f8a:	f204 429c 	addw	r2, r4, #1180	@ 0x49c
 8003f8e:	f002 f9a3 	bl	80062d8 <USB_EP0_OutStart>
  }

  __HAL_UNLOCK(hpcd);
 8003f92:	2000      	movs	r0, #0
 8003f94:	f884 0494 	strb.w	r0, [r4, #1172]	@ 0x494

  return HAL_OK;
}
 8003f98:	bd38      	pop	{r3, r4, r5, pc}
    ep = &hpcd->OUT_ep[ep_addr];
 8003f9a:	fb00 4301 	mla	r3, r0, r1, r4
    ep->is_in = 0U;
 8003f9e:	461a      	mov	r2, r3
    ep = &hpcd->OUT_ep[ep_addr];
 8003fa0:	f503 7115 	add.w	r1, r3, #596	@ 0x254
    ep->is_in = 0U;
 8003fa4:	2300      	movs	r3, #0
 8003fa6:	f882 3255 	strb.w	r3, [r2, #597]	@ 0x255
 8003faa:	e7df      	b.n	8003f6c <HAL_PCD_EP_SetStall+0x26>
    return HAL_ERROR;
 8003fac:	2001      	movs	r0, #1
 8003fae:	e7f3      	b.n	8003f98 <HAL_PCD_EP_SetStall+0x52>
  __HAL_LOCK(hpcd);
 8003fb0:	2002      	movs	r0, #2
 8003fb2:	e7f1      	b.n	8003f98 <HAL_PCD_EP_SetStall+0x52>

08003fb4 <HAL_PCD_EP_ClrStall>:
  * @param  hpcd PCD handle
  * @param  ep_addr endpoint address
  * @retval HAL status
  */
HAL_StatusTypeDef HAL_PCD_EP_ClrStall(PCD_HandleTypeDef *hpcd, uint8_t ep_addr)
{
 8003fb4:	b538      	push	{r3, r4, r5, lr}
  PCD_EPTypeDef *ep;

  if (((uint32_t)ep_addr & 0x0FU) > hpcd->Init.dev_endpoints)
 8003fb6:	7903      	ldrb	r3, [r0, #4]
 8003fb8:	f001 020f 	and.w	r2, r1, #15
 8003fbc:	4293      	cmp	r3, r2
{
 8003fbe:	4604      	mov	r4, r0
  if (((uint32_t)ep_addr & 0x0FU) > hpcd->Init.dev_endpoints)
 8003fc0:	d329      	bcc.n	8004016 <HAL_PCD_EP_ClrStall+0x62>
  {
    return HAL_ERROR;
  }

  if ((0x80U & ep_addr) == 0x80U)
 8003fc2:	eb02 03c2 	add.w	r3, r2, r2, lsl #3
 8003fc6:	f011 0f80 	tst.w	r1, #128	@ 0x80
 8003fca:	ea4f 0383 	mov.w	r3, r3, lsl #2
 8003fce:	f04f 0024 	mov.w	r0, #36	@ 0x24
 8003fd2:	d017      	beq.n	8004004 <HAL_PCD_EP_ClrStall+0x50>
  {
    ep = &hpcd->IN_ep[ep_addr & EP_ADDR_MSK];
    ep->is_in = 1U;
 8003fd4:	fb00 4002 	mla	r0, r0, r2, r4
    ep = &hpcd->IN_ep[ep_addr & EP_ADDR_MSK];
 8003fd8:	f103 0114 	add.w	r1, r3, #20
    ep->is_in = 1U;
 8003fdc:	2301      	movs	r3, #1
    ep = &hpcd->IN_ep[ep_addr & EP_ADDR_MSK];
 8003fde:	4421      	add	r1, r4
    ep->is_in = 1U;
 8003fe0:	7543      	strb	r3, [r0, #21]
  {
    ep = &hpcd->OUT_ep[ep_addr & EP_ADDR_MSK];
    ep->is_in = 0U;
  }

  ep->is_stall = 0U;
 8003fe2:	2500      	movs	r5, #0
 8003fe4:	708d      	strb	r5, [r1, #2]
  ep->num = ep_addr & EP_ADDR_MSK;
 8003fe6:	700a      	strb	r2, [r1, #0]

  __HAL_LOCK(hpcd);
 8003fe8:	f894 3494 	ldrb.w	r3, [r4, #1172]	@ 0x494
 8003fec:	2b01      	cmp	r3, #1
 8003fee:	d014      	beq.n	800401a <HAL_PCD_EP_ClrStall+0x66>
 8003ff0:	2301      	movs	r3, #1
  (void)USB_EPClearStall(hpcd->Instance, ep);
 8003ff2:	6820      	ldr	r0, [r4, #0]
  __HAL_LOCK(hpcd);
 8003ff4:	f884 3494 	strb.w	r3, [r4, #1172]	@ 0x494
  (void)USB_EPClearStall(hpcd->Instance, ep);
 8003ff8:	f002 f8d9 	bl	80061ae <USB_EPClearStall>
  __HAL_UNLOCK(hpcd);
 8003ffc:	f884 5494 	strb.w	r5, [r4, #1172]	@ 0x494

  return HAL_OK;
 8004000:	4628      	mov	r0, r5
}
 8004002:	bd38      	pop	{r3, r4, r5, pc}
    ep->is_in = 0U;
 8004004:	fb00 4002 	mla	r0, r0, r2, r4
    ep = &hpcd->OUT_ep[ep_addr & EP_ADDR_MSK];
 8004008:	f503 7115 	add.w	r1, r3, #596	@ 0x254
    ep->is_in = 0U;
 800400c:	2300      	movs	r3, #0
    ep = &hpcd->OUT_ep[ep_addr & EP_ADDR_MSK];
 800400e:	4421      	add	r1, r4
    ep->is_in = 0U;
 8004010:	f880 3255 	strb.w	r3, [r0, #597]	@ 0x255
 8004014:	e7e5      	b.n	8003fe2 <HAL_PCD_EP_ClrStall+0x2e>
    return HAL_ERROR;
 8004016:	2001      	movs	r0, #1
 8004018:	e7f3      	b.n	8004002 <HAL_PCD_EP_ClrStall+0x4e>
  __HAL_LOCK(hpcd);
 800401a:	2002      	movs	r0, #2
 800401c:	e7f1      	b.n	8004002 <HAL_PCD_EP_ClrStall+0x4e>

0800401e <HAL_PCD_EP_Abort>:
HAL_StatusTypeDef HAL_PCD_EP_Abort(PCD_HandleTypeDef *hpcd, uint8_t ep_addr)
{
  HAL_StatusTypeDef ret;
  PCD_EPTypeDef *ep;

  if ((0x80U & ep_addr) == 0x80U)
 800401e:	f001 030f 	and.w	r3, r1, #15
 8004022:	eb03 03c3 	add.w	r3, r3, r3, lsl #3
 8004026:	060a      	lsls	r2, r1, #24
  {
    ep = &hpcd->IN_ep[ep_addr & EP_ADDR_MSK];
 8004028:	ea4f 0383 	mov.w	r3, r3, lsl #2
 800402c:	bf4c      	ite	mi
 800402e:	f103 0114 	addmi.w	r1, r3, #20
  }
  else
  {
    ep = &hpcd->OUT_ep[ep_addr & EP_ADDR_MSK];
 8004032:	f503 7115 	addpl.w	r1, r3, #596	@ 0x254
 8004036:	4401      	add	r1, r0
  }

  /* Stop Xfer */
  ret = USB_EPStopXfer(hpcd->Instance, ep);
 8004038:	6800      	ldr	r0, [r0, #0]
 800403a:	f001 bf15 	b.w	8005e68 <USB_EPStopXfer>
	...

08004040 <HAL_PCD_IRQHandler>:
{
 8004040:	e92d 4ff0 	stmdb	sp!, {r4, r5, r6, r7, r8, r9, sl, fp, lr}
  USB_OTG_GlobalTypeDef *USBx = hpcd->Instance;
 8004044:	6806      	ldr	r6, [r0, #0]
{
 8004046:	b089      	sub	sp, #36	@ 0x24
 8004048:	4604      	mov	r4, r0
  if (USB_GetMode(hpcd->Instance) == USB_OTG_MODE_DEVICE)
 800404a:	4630      	mov	r0, r6
 800404c:	f002 f932 	bl	80062b4 <USB_GetMode>
 8004050:	9003      	str	r0, [sp, #12]
 8004052:	2800      	cmp	r0, #0
 8004054:	f040 8156 	bne.w	8004304 <HAL_PCD_IRQHandler+0x2c4>
    if (__HAL_PCD_IS_INVALID_INTERRUPT(hpcd))
 8004058:	6820      	ldr	r0, [r4, #0]
 800405a:	f002 f8fd 	bl	8006258 <USB_ReadInterrupts>
 800405e:	2800      	cmp	r0, #0
 8004060:	f000 8150 	beq.w	8004304 <HAL_PCD_IRQHandler+0x2c4>
    hpcd->FrameNumber = (USBx_DEVICE->DSTS & USB_OTG_DSTS_FNSOF_Msk) >> USB_OTG_DSTS_FNSOF_Pos;
 8004064:	f8d6 3808 	ldr.w	r3, [r6, #2056]	@ 0x808
    if (__HAL_PCD_GET_FLAG(hpcd, USB_OTG_GINTSTS_MMIS))
 8004068:	6820      	ldr	r0, [r4, #0]
    hpcd->FrameNumber = (USBx_DEVICE->DSTS & USB_OTG_DSTS_FNSOF_Msk) >> USB_OTG_DSTS_FNSOF_Pos;
 800406a:	f3c3 230d 	ubfx	r3, r3, #8, #14
 800406e:	f8c4 34d4 	str.w	r3, [r4, #1236]	@ 0x4d4
    if (__HAL_PCD_GET_FLAG(hpcd, USB_OTG_GINTSTS_MMIS))
 8004072:	f002 f8f1 	bl	8006258 <USB_ReadInterrupts>
 8004076:	0787      	lsls	r7, r0, #30
      __HAL_PCD_CLEAR_FLAG(hpcd, USB_OTG_GINTSTS_MMIS);
 8004078:	bf48      	it	mi
 800407a:	6822      	ldrmi	r2, [r4, #0]
    if (__HAL_PCD_GET_FLAG(hpcd, USB_OTG_GINTSTS_RXFLVL))
 800407c:	6820      	ldr	r0, [r4, #0]
      __HAL_PCD_CLEAR_FLAG(hpcd, USB_OTG_GINTSTS_MMIS);
 800407e:	bf42      	ittt	mi
 8004080:	6953      	ldrmi	r3, [r2, #20]
 8004082:	f003 0302 	andmi.w	r3, r3, #2
 8004086:	6153      	strmi	r3, [r2, #20]
    if (__HAL_PCD_GET_FLAG(hpcd, USB_OTG_GINTSTS_RXFLVL))
 8004088:	f002 f8e6 	bl	8006258 <USB_ReadInterrupts>
 800408c:	06c0      	lsls	r0, r0, #27
    hpcd->FrameNumber = (USBx_DEVICE->DSTS & USB_OTG_DSTS_FNSOF_Msk) >> USB_OTG_DSTS_FNSOF_Pos;
 800408e:	f506 6500 	add.w	r5, r6, #2048	@ 0x800
    if (__HAL_PCD_GET_FLAG(hpcd, USB_OTG_GINTSTS_RXFLVL))
 8004092:	d52d      	bpl.n	80040f0 <HAL_PCD_IRQHandler+0xb0>
      USB_MASK_INTERRUPT(hpcd->Instance, USB_OTG_GINTSTS_RXFLVL);
 8004094:	6822      	ldr	r2, [r4, #0]
 8004096:	6993      	ldr	r3, [r2, #24]
 8004098:	f023 0310 	bic.w	r3, r3, #16
 800409c:	6193      	str	r3, [r2, #24]
      RegVal = USBx->GRXSTSP;
 800409e:	f8d6 8020 	ldr.w	r8, [r6, #32]
      if (((RegVal & USB_OTG_GRXSTSP_PKTSTS) >> 17) ==  STS_DATA_UPDT)
 80040a2:	f408 13f0 	and.w	r3, r8, #1966080	@ 0x1e0000
 80040a6:	f5b3 2f80 	cmp.w	r3, #262144	@ 0x40000
      ep = &hpcd->OUT_ep[RegVal & USB_OTG_GRXSTSP_EPNUM];
 80040aa:	f008 070f 	and.w	r7, r8, #15
      if (((RegVal & USB_OTG_GRXSTSP_PKTSTS) >> 17) ==  STS_DATA_UPDT)
 80040ae:	f040 812c 	bne.w	800430a <HAL_PCD_IRQHandler+0x2ca>
        if ((RegVal & USB_OTG_GRXSTSP_BCNT) != 0U)
 80040b2:	f647 73f0 	movw	r3, #32752	@ 0x7ff0
 80040b6:	ea18 0f03 	tst.w	r8, r3
 80040ba:	d014      	beq.n	80040e6 <HAL_PCD_IRQHandler+0xa6>
          (void)USB_ReadPacket(USBx, ep->xfer_buff,
 80040bc:	2324      	movs	r3, #36	@ 0x24
 80040be:	fb03 4707 	mla	r7, r3, r7, r4
 80040c2:	f3c8 190a 	ubfx	r9, r8, #4, #11
 80040c6:	f8d7 1260 	ldr.w	r1, [r7, #608]	@ 0x260
 80040ca:	464a      	mov	r2, r9
 80040cc:	4630      	mov	r0, r6
 80040ce:	f002 f823 	bl	8006118 <USB_ReadPacket>
          ep->xfer_buff += (RegVal & USB_OTG_GRXSTSP_BCNT) >> 4;
 80040d2:	f8d7 3260 	ldr.w	r3, [r7, #608]	@ 0x260
 80040d6:	444b      	add	r3, r9
 80040d8:	f8c7 3260 	str.w	r3, [r7, #608]	@ 0x260
          ep->xfer_count += (RegVal & USB_OTG_GRXSTSP_BCNT) >> 4;
 80040dc:	f8d7 3268 	ldr.w	r3, [r7, #616]	@ 0x268
 80040e0:	444b      	add	r3, r9
        ep->xfer_count += (RegVal & USB_OTG_GRXSTSP_BCNT) >> 4;
 80040e2:	f8c7 3268 	str.w	r3, [r7, #616]	@ 0x268
      USB_UNMASK_INTERRUPT(hpcd->Instance, USB_OTG_GINTSTS_RXFLVL);
 80040e6:	6822      	ldr	r2, [r4, #0]
 80040e8:	6993      	ldr	r3, [r2, #24]
 80040ea:	f043 0310 	orr.w	r3, r3, #16
 80040ee:	6193      	str	r3, [r2, #24]
    if (__HAL_PCD_GET_FLAG(hpcd, USB_OTG_GINTSTS_OEPINT))
 80040f0:	6820      	ldr	r0, [r4, #0]
 80040f2:	f002 f8b1 	bl	8006258 <USB_ReadInterrupts>
 80040f6:	0301      	lsls	r1, r0, #12
 80040f8:	f100 811a 	bmi.w	8004330 <HAL_PCD_IRQHandler+0x2f0>
    if (__HAL_PCD_GET_FLAG(hpcd, USB_OTG_GINTSTS_IEPINT))
 80040fc:	6820      	ldr	r0, [r4, #0]
 80040fe:	f002 f8ab 	bl	8006258 <USB_ReadInterrupts>
 8004102:	0342      	lsls	r2, r0, #13
 8004104:	d50d      	bpl.n	8004122 <HAL_PCD_IRQHandler+0xe2>
      ep_intr = USB_ReadDevAllInEpInterrupt(hpcd->Instance);
 8004106:	6820      	ldr	r0, [r4, #0]
 8004108:	f002 f8b2 	bl	8006270 <USB_ReadDevAllInEpInterrupt>
 800410c:	4627      	mov	r7, r4
 800410e:	9004      	str	r0, [sp, #16]
      while (ep_intr != 0U)
 8004110:	f506 6b10 	add.w	fp, r6, #2304	@ 0x900
      epnum = 0U;
 8004114:	f04f 0a00 	mov.w	sl, #0
      while (ep_intr != 0U)
 8004118:	9b04      	ldr	r3, [sp, #16]
          epint = USB_ReadDevInEPInterrupt(hpcd->Instance, (uint8_t)epnum);
 800411a:	6820      	ldr	r0, [r4, #0]
      while (ep_intr != 0U)
 800411c:	2b00      	cmp	r3, #0
 800411e:	f040 81d1 	bne.w	80044c4 <HAL_PCD_IRQHandler+0x484>
    if (__HAL_PCD_GET_FLAG(hpcd, USB_OTG_GINTSTS_WKUINT))
 8004122:	6820      	ldr	r0, [r4, #0]
 8004124:	f002 f898 	bl	8006258 <USB_ReadInterrupts>
 8004128:	2800      	cmp	r0, #0
 800412a:	da13      	bge.n	8004154 <HAL_PCD_IRQHandler+0x114>
      USBx_DEVICE->DCTL &= ~USB_OTG_DCTL_RWUSIG;
 800412c:	686b      	ldr	r3, [r5, #4]
 800412e:	f023 0301 	bic.w	r3, r3, #1
 8004132:	606b      	str	r3, [r5, #4]
      if (hpcd->LPM_State == LPM_L1)
 8004134:	f894 34cc 	ldrb.w	r3, [r4, #1228]	@ 0x4cc
 8004138:	2b01      	cmp	r3, #1
 800413a:	f040 8269 	bne.w	8004610 <HAL_PCD_IRQHandler+0x5d0>
        hpcd->LPM_State = LPM_L0;
 800413e:	2100      	movs	r1, #0
 8004140:	f884 14cc 	strb.w	r1, [r4, #1228]	@ 0x4cc
        HAL_PCDEx_LPM_Callback(hpcd, PCD_LPM_L0_ACTIVE);
 8004144:	4620      	mov	r0, r4
 8004146:	f000 fae6 	bl	8004716 <HAL_PCDEx_LPM_Callback>
      __HAL_PCD_CLEAR_FLAG(hpcd, USB_OTG_GINTSTS_WKUINT);
 800414a:	6822      	ldr	r2, [r4, #0]
 800414c:	6953      	ldr	r3, [r2, #20]
 800414e:	f003 4300 	and.w	r3, r3, #2147483648	@ 0x80000000
 8004152:	6153      	str	r3, [r2, #20]
    if (__HAL_PCD_GET_FLAG(hpcd, USB_OTG_GINTSTS_USBSUSP))
 8004154:	6820      	ldr	r0, [r4, #0]
 8004156:	f002 f87f 	bl	8006258 <USB_ReadInterrupts>
 800415a:	0507      	lsls	r7, r0, #20
 800415c:	d50a      	bpl.n	8004174 <HAL_PCD_IRQHandler+0x134>
      if ((USBx_DEVICE->DSTS & USB_OTG_DSTS_SUSPSTS) == USB_OTG_DSTS_SUSPSTS)
 800415e:	68ab      	ldr	r3, [r5, #8]
 8004160:	07d8      	lsls	r0, r3, #31
 8004162:	d502      	bpl.n	800416a <HAL_PCD_IRQHandler+0x12a>
        HAL_PCD_SuspendCallback(hpcd);
 8004164:	4620      	mov	r0, r4
 8004166:	f003 ff7d 	bl	8008064 <HAL_PCD_SuspendCallback>
      __HAL_PCD_CLEAR_FLAG(hpcd, USB_OTG_GINTSTS_USBSUSP);
 800416a:	6822      	ldr	r2, [r4, #0]
 800416c:	6953      	ldr	r3, [r2, #20]
 800416e:	f403 6300 	and.w	r3, r3, #2048	@ 0x800
 8004172:	6153      	str	r3, [r2, #20]
    if (__HAL_PCD_GET_FLAG(hpcd, USB_OTG_GINTSTS_USBRST))
 8004174:	6820      	ldr	r0, [r4, #0]
 8004176:	f002 f86f 	bl	8006258 <USB_ReadInterrupts>
 800417a:	04c1      	lsls	r1, r0, #19
 800417c:	d533      	bpl.n	80041e6 <HAL_PCD_IRQHandler+0x1a6>
      USBx_DEVICE->DCTL &= ~USB_OTG_DCTL_RWUSIG;
 800417e:	686b      	ldr	r3, [r5, #4]
      (void)USB_FlushTxFifo(hpcd->Instance, 0x10U);
 8004180:	6820      	ldr	r0, [r4, #0]
      USBx_DEVICE->DCTL &= ~USB_OTG_DCTL_RWUSIG;
 8004182:	f023 0301 	bic.w	r3, r3, #1
 8004186:	606b      	str	r3, [r5, #4]
      (void)USB_FlushTxFifo(hpcd->Instance, 0x10U);
 8004188:	2110      	movs	r1, #16
 800418a:	f001 fcc7 	bl	8005b1c <USB_FlushTxFifo>
      for (i = 0U; i < hpcd->Init.dev_endpoints; i++)
 800418e:	7920      	ldrb	r0, [r4, #4]
 8004190:	f506 6310 	add.w	r3, r6, #2304	@ 0x900
        USBx_INEP(i)->DIEPINT = 0xFB7FU;
 8004194:	f64f 317f 	movw	r1, #64383	@ 0xfb7f
      for (i = 0U; i < hpcd->Init.dev_endpoints; i++)
 8004198:	9a03      	ldr	r2, [sp, #12]
 800419a:	4290      	cmp	r0, r2
 800419c:	f200 823c 	bhi.w	8004618 <HAL_PCD_IRQHandler+0x5d8>
      USBx_DEVICE->DAINTMSK |= 0x10001U;
 80041a0:	69eb      	ldr	r3, [r5, #28]
 80041a2:	f043 1301 	orr.w	r3, r3, #65537	@ 0x10001
 80041a6:	61eb      	str	r3, [r5, #28]
      if (hpcd->Init.use_dedicated_ep1 != 0U)
 80041a8:	7be3      	ldrb	r3, [r4, #15]
 80041aa:	2b00      	cmp	r3, #0
 80041ac:	f000 8250 	beq.w	8004650 <HAL_PCD_IRQHandler+0x610>
        USBx_DEVICE->DOUTEP1MSK |= USB_OTG_DOEPMSK_STUPM |
 80041b0:	f8d5 3084 	ldr.w	r3, [r5, #132]	@ 0x84
 80041b4:	f043 030b 	orr.w	r3, r3, #11
 80041b8:	f8c5 3084 	str.w	r3, [r5, #132]	@ 0x84
        USBx_DEVICE->DINEP1MSK |= USB_OTG_DIEPMSK_TOM |
 80041bc:	6c6b      	ldr	r3, [r5, #68]	@ 0x44
 80041be:	f043 030b 	orr.w	r3, r3, #11
 80041c2:	646b      	str	r3, [r5, #68]	@ 0x44
      USBx_DEVICE->DCFG &= ~USB_OTG_DCFG_DAD;
 80041c4:	f8d6 3800 	ldr.w	r3, [r6, #2048]	@ 0x800
      (void)USB_EP0_OutStart(hpcd->Instance, (uint8_t)hpcd->Init.dma_enable,
 80041c8:	6820      	ldr	r0, [r4, #0]
      USBx_DEVICE->DCFG &= ~USB_OTG_DCFG_DAD;
 80041ca:	f423 63fe 	bic.w	r3, r3, #2032	@ 0x7f0
 80041ce:	f8c6 3800 	str.w	r3, [r6, #2048]	@ 0x800
      (void)USB_EP0_OutStart(hpcd->Instance, (uint8_t)hpcd->Init.dma_enable,
 80041d2:	f204 429c 	addw	r2, r4, #1180	@ 0x49c
 80041d6:	79a1      	ldrb	r1, [r4, #6]
 80041d8:	f002 f87e 	bl	80062d8 <USB_EP0_OutStart>
      __HAL_PCD_CLEAR_FLAG(hpcd, USB_OTG_GINTSTS_USBRST);
 80041dc:	6822      	ldr	r2, [r4, #0]
 80041de:	6953      	ldr	r3, [r2, #20]
 80041e0:	f403 5380 	and.w	r3, r3, #4096	@ 0x1000
 80041e4:	6153      	str	r3, [r2, #20]
    if (__HAL_PCD_GET_FLAG(hpcd, USB_OTG_GINTSTS_ENUMDNE))
 80041e6:	6820      	ldr	r0, [r4, #0]
 80041e8:	f002 f836 	bl	8006258 <USB_ReadInterrupts>
 80041ec:	0482      	lsls	r2, r0, #18
 80041ee:	d516      	bpl.n	800421e <HAL_PCD_IRQHandler+0x1de>
      (void)USB_ActivateSetup(hpcd->Instance);
 80041f0:	6820      	ldr	r0, [r4, #0]
 80041f2:	f002 f863 	bl	80062bc <USB_ActivateSetup>
      hpcd->Init.speed = USB_GetDevSpeed(hpcd->Instance);
 80041f6:	6820      	ldr	r0, [r4, #0]
 80041f8:	f001 fd96 	bl	8005d28 <USB_GetDevSpeed>
 80041fc:	71e0      	strb	r0, [r4, #7]
      (void)USB_SetTurnaroundTime(hpcd->Instance,
 80041fe:	6827      	ldr	r7, [r4, #0]
 8004200:	f000 fd00 	bl	8004c04 <HAL_RCC_GetHCLKFreq>
 8004204:	79e2      	ldrb	r2, [r4, #7]
 8004206:	4601      	mov	r1, r0
 8004208:	4638      	mov	r0, r7
 800420a:	f001 fbdb 	bl	80059c4 <USB_SetTurnaroundTime>
      HAL_PCD_ResetCallback(hpcd);
 800420e:	4620      	mov	r0, r4
 8004210:	f003 ff15 	bl	800803e <HAL_PCD_ResetCallback>
      __HAL_PCD_CLEAR_FLAG(hpcd, USB_OTG_GINTSTS_ENUMDNE);
 8004214:	6822      	ldr	r2, [r4, #0]
 8004216:	6953      	ldr	r3, [r2, #20]
 8004218:	f403 5300 	and.w	r3, r3, #8192	@ 0x2000
 800421c:	6153      	str	r3, [r2, #20]
    if (__HAL_PCD_GET_FLAG(hpcd, USB_OTG_GINTSTS_SOF))
 800421e:	6820      	ldr	r0, [r4, #0]
 8004220:	f002 f81a 	bl	8006258 <USB_ReadInterrupts>
 8004224:	0703      	lsls	r3, r0, #28
 8004226:	d507      	bpl.n	8004238 <HAL_PCD_IRQHandler+0x1f8>
      HAL_PCD_SOFCallback(hpcd);
 8004228:	4620      	mov	r0, r4
 800422a:	f003 ff04 	bl	8008036 <HAL_PCD_SOFCallback>
      __HAL_PCD_CLEAR_FLAG(hpcd, USB_OTG_GINTSTS_SOF);
 800422e:	6822      	ldr	r2, [r4, #0]
 8004230:	6953      	ldr	r3, [r2, #20]
 8004232:	f003 0308 	and.w	r3, r3, #8
 8004236:	6153      	str	r3, [r2, #20]
    if (__HAL_PCD_GET_FLAG(hpcd, USB_OTG_GINTSTS_BOUTNAKEFF))
 8004238:	6820      	ldr	r0, [r4, #0]
 800423a:	f002 f80d 	bl	8006258 <USB_ReadInterrupts>
 800423e:	0607      	lsls	r7, r0, #24
 8004240:	f100 8211 	bmi.w	8004666 <HAL_PCD_IRQHandler+0x626>
    if (__HAL_PCD_GET_FLAG(hpcd, USB_OTG_GINTSTS_IISOIXFR))
 8004244:	6820      	ldr	r0, [r4, #0]
 8004246:	f002 f807 	bl	8006258 <USB_ReadInterrupts>
 800424a:	02c0      	lsls	r0, r0, #11
 800424c:	d50c      	bpl.n	8004268 <HAL_PCD_IRQHandler+0x228>
 800424e:	46a0      	mov	r8, r4
 8004250:	f506 6912 	add.w	r9, r6, #2336	@ 0x920
      for (epnum = 1U; epnum < hpcd->Init.dev_endpoints; epnum++)
 8004254:	2701      	movs	r7, #1
 8004256:	7923      	ldrb	r3, [r4, #4]
 8004258:	42bb      	cmp	r3, r7
 800425a:	f200 821d 	bhi.w	8004698 <HAL_PCD_IRQHandler+0x658>
      __HAL_PCD_CLEAR_FLAG(hpcd, USB_OTG_GINTSTS_IISOIXFR);
 800425e:	6822      	ldr	r2, [r4, #0]
 8004260:	6953      	ldr	r3, [r2, #20]
 8004262:	f403 1380 	and.w	r3, r3, #1048576	@ 0x100000
 8004266:	6153      	str	r3, [r2, #20]
    if (__HAL_PCD_GET_FLAG(hpcd, USB_OTG_GINTSTS_PXFR_INCOMPISOOUT))
 8004268:	6820      	ldr	r0, [r4, #0]
 800426a:	f001 fff5 	bl	8006258 <USB_ReadInterrupts>
 800426e:	0281      	lsls	r1, r0, #10
 8004270:	d52b      	bpl.n	80042ca <HAL_PCD_IRQHandler+0x28a>
      for (epnum = 1U; epnum < hpcd->Init.dev_endpoints; epnum++)
 8004272:	f894 e004 	ldrb.w	lr, [r4, #4]
 8004276:	4623      	mov	r3, r4
 8004278:	f506 6132 	add.w	r1, r6, #2848	@ 0xb20
 800427c:	f04f 0c01 	mov.w	ip, #1
 8004280:	45e6      	cmp	lr, ip
 8004282:	d91d      	bls.n	80042c0 <HAL_PCD_IRQHandler+0x280>
        if ((hpcd->OUT_ep[epnum].type == EP_TYPE_ISOC) &&
 8004284:	f893 727c 	ldrb.w	r7, [r3, #636]	@ 0x27c
        RegVal = USBx_OUTEP(epnum)->DOEPCTL;
 8004288:	6808      	ldr	r0, [r1, #0]
        if ((hpcd->OUT_ep[epnum].type == EP_TYPE_ISOC) &&
 800428a:	2f01      	cmp	r7, #1
 800428c:	f040 821a 	bne.w	80046c4 <HAL_PCD_IRQHandler+0x684>
 8004290:	2800      	cmp	r0, #0
 8004292:	f280 8217 	bge.w	80046c4 <HAL_PCD_IRQHandler+0x684>
            (((RegVal & (0x1U << 16)) >> 16U) == (hpcd->FrameNumber & 0x1U)))
 8004296:	f8d4 24d4 	ldr.w	r2, [r4, #1236]	@ 0x4d4
 800429a:	ea82 4010 	eor.w	r0, r2, r0, lsr #16
            ((RegVal & USB_OTG_DOEPCTL_EPENA) == USB_OTG_DOEPCTL_EPENA) &&
 800429e:	07c2      	lsls	r2, r0, #31
 80042a0:	f100 8210 	bmi.w	80046c4 <HAL_PCD_IRQHandler+0x684>
          hpcd->OUT_ep[epnum].is_iso_incomplete = 1U;
 80042a4:	f883 727b 	strb.w	r7, [r3, #635]	@ 0x27b
          USBx->GINTMSK |= USB_OTG_GINTMSK_GONAKEFFM;
 80042a8:	69b0      	ldr	r0, [r6, #24]
 80042aa:	f040 0080 	orr.w	r0, r0, #128	@ 0x80
 80042ae:	61b0      	str	r0, [r6, #24]
          if ((USBx->GINTSTS & USB_OTG_GINTSTS_BOUTNAKEFF) == 0U)
 80042b0:	6970      	ldr	r0, [r6, #20]
 80042b2:	0600      	lsls	r0, r0, #24
 80042b4:	f100 8206 	bmi.w	80046c4 <HAL_PCD_IRQHandler+0x684>
            USBx_DEVICE->DCTL |= USB_OTG_DCTL_SGONAK;
 80042b8:	686b      	ldr	r3, [r5, #4]
 80042ba:	f443 7300 	orr.w	r3, r3, #512	@ 0x200
 80042be:	606b      	str	r3, [r5, #4]
      __HAL_PCD_CLEAR_FLAG(hpcd, USB_OTG_GINTSTS_PXFR_INCOMPISOOUT);
 80042c0:	6822      	ldr	r2, [r4, #0]
 80042c2:	6953      	ldr	r3, [r2, #20]
 80042c4:	f403 1300 	and.w	r3, r3, #2097152	@ 0x200000
 80042c8:	6153      	str	r3, [r2, #20]
    if (__HAL_PCD_GET_FLAG(hpcd, USB_OTG_GINTSTS_SRQINT))
 80042ca:	6820      	ldr	r0, [r4, #0]
 80042cc:	f001 ffc4 	bl	8006258 <USB_ReadInterrupts>
 80042d0:	0041      	lsls	r1, r0, #1
 80042d2:	d507      	bpl.n	80042e4 <HAL_PCD_IRQHandler+0x2a4>
      HAL_PCD_ConnectCallback(hpcd);
 80042d4:	4620      	mov	r0, r4
 80042d6:	f003 fee9 	bl	80080ac <HAL_PCD_ConnectCallback>
      __HAL_PCD_CLEAR_FLAG(hpcd, USB_OTG_GINTSTS_SRQINT);
 80042da:	6822      	ldr	r2, [r4, #0]
 80042dc:	6953      	ldr	r3, [r2, #20]
 80042de:	f003 4380 	and.w	r3, r3, #1073741824	@ 0x40000000
 80042e2:	6153      	str	r3, [r2, #20]
    if (__HAL_PCD_GET_FLAG(hpcd, USB_OTG_GINTSTS_OTGINT))
 80042e4:	6820      	ldr	r0, [r4, #0]
 80042e6:	f001 ffb7 	bl	8006258 <USB_ReadInterrupts>
 80042ea:	0742      	lsls	r2, r0, #29
 80042ec:	d50a      	bpl.n	8004304 <HAL_PCD_IRQHandler+0x2c4>
      RegVal = hpcd->Instance->GOTGINT;
 80042ee:	6823      	ldr	r3, [r4, #0]
 80042f0:	685d      	ldr	r5, [r3, #4]
      if ((RegVal & USB_OTG_GOTGINT_SEDET) == USB_OTG_GOTGINT_SEDET)
 80042f2:	076b      	lsls	r3, r5, #29
 80042f4:	d502      	bpl.n	80042fc <HAL_PCD_IRQHandler+0x2bc>
        HAL_PCD_DisconnectCallback(hpcd);
 80042f6:	4620      	mov	r0, r4
 80042f8:	f003 fedc 	bl	80080b4 <HAL_PCD_DisconnectCallback>
      hpcd->Instance->GOTGINT |= RegVal;
 80042fc:	6822      	ldr	r2, [r4, #0]
 80042fe:	6853      	ldr	r3, [r2, #4]
 8004300:	432b      	orrs	r3, r5
 8004302:	6053      	str	r3, [r2, #4]
}
 8004304:	b009      	add	sp, #36	@ 0x24
 8004306:	e8bd 8ff0 	ldmia.w	sp!, {r4, r5, r6, r7, r8, r9, sl, fp, pc}
      else if (((RegVal & USB_OTG_GRXSTSP_PKTSTS) >> 17) == STS_SETUP_UPDT)
 800430a:	f5b3 2f40 	cmp.w	r3, #786432	@ 0xc0000
 800430e:	f47f aeea 	bne.w	80040e6 <HAL_PCD_IRQHandler+0xa6>
        (void)USB_ReadPacket(USBx, (uint8_t *)hpcd->Setup, 8U);
 8004312:	2208      	movs	r2, #8
 8004314:	f204 419c 	addw	r1, r4, #1180	@ 0x49c
 8004318:	4630      	mov	r0, r6
 800431a:	f001 fefd 	bl	8006118 <USB_ReadPacket>
        ep->xfer_count += (RegVal & USB_OTG_GRXSTSP_BCNT) >> 4;
 800431e:	2324      	movs	r3, #36	@ 0x24
 8004320:	fb03 4707 	mla	r7, r3, r7, r4
 8004324:	f3c8 180a 	ubfx	r8, r8, #4, #11
 8004328:	f8d7 3268 	ldr.w	r3, [r7, #616]	@ 0x268
 800432c:	4443      	add	r3, r8
 800432e:	e6d8      	b.n	80040e2 <HAL_PCD_IRQHandler+0xa2>
      ep_intr = USB_ReadDevAllOutEpInterrupt(hpcd->Instance);
 8004330:	6820      	ldr	r0, [r4, #0]
 8004332:	f001 ff95 	bl	8006260 <USB_ReadDevAllOutEpInterrupt>
 8004336:	f506 6830 	add.w	r8, r6, #2816	@ 0xb00
 800433a:	9004      	str	r0, [sp, #16]
      while (ep_intr != 0U)
 800433c:	46a2      	mov	sl, r4
      epnum = 0U;
 800433e:	2700      	movs	r7, #0
      while (ep_intr != 0U)
 8004340:	9b04      	ldr	r3, [sp, #16]
          epint = USB_ReadDevOutEPInterrupt(hpcd->Instance, (uint8_t)epnum);
 8004342:	6820      	ldr	r0, [r4, #0]
      while (ep_intr != 0U)
 8004344:	2b00      	cmp	r3, #0
 8004346:	f43f aed9 	beq.w	80040fc <HAL_PCD_IRQHandler+0xbc>
        if ((ep_intr & 0x1U) != 0U)
 800434a:	9b04      	ldr	r3, [sp, #16]
 800434c:	07db      	lsls	r3, r3, #31
 800434e:	d578      	bpl.n	8004442 <HAL_PCD_IRQHandler+0x402>
          epint = USB_ReadDevOutEPInterrupt(hpcd->Instance, (uint8_t)epnum);
 8004350:	fa5f fb87 	uxtb.w	fp, r7
 8004354:	4659      	mov	r1, fp
 8004356:	f001 ff93 	bl	8006280 <USB_ReadDevOutEPInterrupt>
          if ((epint & USB_OTG_DOEPINT_XFRC) == USB_OTG_DOEPINT_XFRC)
 800435a:	f010 0f01 	tst.w	r0, #1
          epint = USB_ReadDevOutEPInterrupt(hpcd->Instance, (uint8_t)epnum);
 800435e:	4681      	mov	r9, r0
          if ((epint & USB_OTG_DOEPINT_XFRC) == USB_OTG_DOEPINT_XFRC)
 8004360:	d01f      	beq.n	80043a2 <HAL_PCD_IRQHandler+0x362>
  * @retval HAL status
  */
static HAL_StatusTypeDef PCD_EP_OutXfrComplete_int(PCD_HandleTypeDef *hpcd, uint32_t epnum)
{
  USB_OTG_EPTypeDef *ep;
  const USB_OTG_GlobalTypeDef *USBx = hpcd->Instance;
 8004362:	6820      	ldr	r0, [r4, #0]
            CLEAR_OUT_EP_INTR(epnum, USB_OTG_DOEPINT_XFRC);
 8004364:	2301      	movs	r3, #1
 8004366:	f8c8 3008 	str.w	r3, [r8, #8]
  uint32_t USBx_BASE = (uint32_t)USBx;
  uint32_t gSNPSiD = *(__IO const uint32_t *)(&USBx->CID + 0x1U);
  uint32_t DoepintReg = USBx_OUTEP(epnum)->DOEPINT;

  if (hpcd->Init.dma_enable == 1U)
 800436a:	f894 c006 	ldrb.w	ip, [r4, #6]
  uint32_t gSNPSiD = *(__IO const uint32_t *)(&USBx->CID + 0x1U);
 800436e:	6c01      	ldr	r1, [r0, #64]	@ 0x40
  uint32_t DoepintReg = USBx_OUTEP(epnum)->DOEPINT;
 8004370:	f500 6330 	add.w	r3, r0, #2816	@ 0xb00
 8004374:	eb03 1347 	add.w	r3, r3, r7, lsl #5
  if (hpcd->Init.dma_enable == 1U)
 8004378:	f1bc 0f01 	cmp.w	ip, #1
  uint32_t DoepintReg = USBx_OUTEP(epnum)->DOEPINT;
 800437c:	689a      	ldr	r2, [r3, #8]
  if (hpcd->Init.dma_enable == 1U)
 800437e:	f040 808b 	bne.w	8004498 <HAL_PCD_IRQHandler+0x458>
  {
    if ((DoepintReg & USB_OTG_DOEPINT_STUP) == USB_OTG_DOEPINT_STUP) /* Class C */
 8004382:	f012 0f08 	tst.w	r2, #8
 8004386:	d007      	beq.n	8004398 <HAL_PCD_IRQHandler+0x358>
    {
      /* StupPktRcvd = 1 this is a setup packet */
      if ((gSNPSiD > USB_OTG_CORE_ID_300A) &&
 8004388:	48af      	ldr	r0, [pc, #700]	@ (8004648 <HAL_PCD_IRQHandler+0x608>)
 800438a:	4281      	cmp	r1, r0
 800438c:	d909      	bls.n	80043a2 <HAL_PCD_IRQHandler+0x362>
 800438e:	0412      	lsls	r2, r2, #16
 8004390:	d507      	bpl.n	80043a2 <HAL_PCD_IRQHandler+0x362>
    if (gSNPSiD == USB_OTG_CORE_ID_310A)
    {
      /* StupPktRcvd = 1 this is a setup packet */
      if ((DoepintReg & USB_OTG_DOEPINT_STPKTRX) == USB_OTG_DOEPINT_STPKTRX)
      {
        CLEAR_OUT_EP_INTR(epnum, USB_OTG_DOEPINT_STPKTRX);
 8004392:	f44f 4200 	mov.w	r2, #32768	@ 0x8000
 8004396:	e003      	b.n	80043a0 <HAL_PCD_IRQHandler+0x360>
    else if ((DoepintReg & USB_OTG_DOEPINT_OTEPSPR) == USB_OTG_DOEPINT_OTEPSPR) /* Class E */
 8004398:	f012 0f20 	tst.w	r2, #32
 800439c:	d05a      	beq.n	8004454 <HAL_PCD_IRQHandler+0x414>
      CLEAR_OUT_EP_INTR(epnum, USB_OTG_DOEPINT_OTEPSPR);
 800439e:	2220      	movs	r2, #32
        CLEAR_OUT_EP_INTR(epnum, USB_OTG_DOEPINT_STPKTRX);
 80043a0:	609a      	str	r2, [r3, #8]
          if ((epint & USB_OTG_DOEPINT_STUP) == USB_OTG_DOEPINT_STUP)
 80043a2:	f019 0f08 	tst.w	r9, #8
 80043a6:	d021      	beq.n	80043ec <HAL_PCD_IRQHandler+0x3ac>
            CLEAR_OUT_EP_INTR(epnum, USB_OTG_DOEPINT_STUP);
 80043a8:	2308      	movs	r3, #8
 80043aa:	f8c8 3008 	str.w	r3, [r8, #8]
  * @param  epnum endpoint number
  * @retval HAL status
  */
static HAL_StatusTypeDef PCD_EP_OutSetupPacket_int(PCD_HandleTypeDef *hpcd, uint32_t epnum)
{
  const USB_OTG_GlobalTypeDef *USBx = hpcd->Instance;
 80043ae:	6823      	ldr	r3, [r4, #0]
  uint32_t USBx_BASE = (uint32_t)USBx;
  uint32_t gSNPSiD = *(__IO const uint32_t *)(&USBx->CID + 0x1U);
  uint32_t DoepintReg = USBx_OUTEP(epnum)->DOEPINT;

  if ((gSNPSiD > USB_OTG_CORE_ID_300A) &&
 80043b0:	49a5      	ldr	r1, [pc, #660]	@ (8004648 <HAL_PCD_IRQHandler+0x608>)
  uint32_t gSNPSiD = *(__IO const uint32_t *)(&USBx->CID + 0x1U);
 80043b2:	6c1a      	ldr	r2, [r3, #64]	@ 0x40
  uint32_t DoepintReg = USBx_OUTEP(epnum)->DOEPINT;
 80043b4:	f503 6330 	add.w	r3, r3, #2816	@ 0xb00
 80043b8:	eb03 1347 	add.w	r3, r3, r7, lsl #5
  if ((gSNPSiD > USB_OTG_CORE_ID_300A) &&
 80043bc:	428a      	cmp	r2, r1
  uint32_t DoepintReg = USBx_OUTEP(epnum)->DOEPINT;
 80043be:	6898      	ldr	r0, [r3, #8]
  if ((gSNPSiD > USB_OTG_CORE_ID_300A) &&
 80043c0:	d904      	bls.n	80043cc <HAL_PCD_IRQHandler+0x38c>
 80043c2:	0401      	lsls	r1, r0, #16
      ((DoepintReg & USB_OTG_DOEPINT_STPKTRX) == USB_OTG_DOEPINT_STPKTRX))
  {
    CLEAR_OUT_EP_INTR(epnum, USB_OTG_DOEPINT_STPKTRX);
 80043c4:	bf44      	itt	mi
 80043c6:	f44f 4000 	movmi.w	r0, #32768	@ 0x8000
 80043ca:	6098      	strmi	r0, [r3, #8]

  /* Inform the upper layer that a setup packet is available */
#if (USE_HAL_PCD_REGISTER_CALLBACKS == 1U)
  hpcd->SetupStageCallback(hpcd);
#else
  HAL_PCD_SetupStageCallback(hpcd);
 80043cc:	4620      	mov	r0, r4
 80043ce:	9205      	str	r2, [sp, #20]
 80043d0:	f003 fe1a 	bl	8008008 <HAL_PCD_SetupStageCallback>
#endif /* USE_HAL_PCD_REGISTER_CALLBACKS */

  if ((gSNPSiD > USB_OTG_CORE_ID_300A) && (hpcd->Init.dma_enable == 1U))
 80043d4:	9a05      	ldr	r2, [sp, #20]
 80043d6:	499c      	ldr	r1, [pc, #624]	@ (8004648 <HAL_PCD_IRQHandler+0x608>)
 80043d8:	428a      	cmp	r2, r1
 80043da:	d907      	bls.n	80043ec <HAL_PCD_IRQHandler+0x3ac>
 80043dc:	79a1      	ldrb	r1, [r4, #6]
 80043de:	2901      	cmp	r1, #1
 80043e0:	d104      	bne.n	80043ec <HAL_PCD_IRQHandler+0x3ac>
  {
    (void)USB_EP0_OutStart(hpcd->Instance, 1U, (uint8_t *)hpcd->Setup);
 80043e2:	6820      	ldr	r0, [r4, #0]
 80043e4:	f204 429c 	addw	r2, r4, #1180	@ 0x49c
 80043e8:	f001 ff76 	bl	80062d8 <USB_EP0_OutStart>
          if ((epint & USB_OTG_DOEPINT_OTEPDIS) == USB_OTG_DOEPINT_OTEPDIS)
 80043ec:	f019 0f10 	tst.w	r9, #16
            CLEAR_OUT_EP_INTR(epnum, USB_OTG_DOEPINT_OTEPDIS);
 80043f0:	bf1c      	itt	ne
 80043f2:	2310      	movne	r3, #16
 80043f4:	f8c8 3008 	strne.w	r3, [r8, #8]
          if ((epint & USB_OTG_DOEPINT_EPDISD) == USB_OTG_DOEPINT_EPDISD)
 80043f8:	f019 0f02 	tst.w	r9, #2
 80043fc:	d014      	beq.n	8004428 <HAL_PCD_IRQHandler+0x3e8>
            if ((USBx->GINTSTS & USB_OTG_GINTSTS_BOUTNAKEFF) == USB_OTG_GINTSTS_BOUTNAKEFF)
 80043fe:	6973      	ldr	r3, [r6, #20]
 8004400:	061a      	lsls	r2, r3, #24
              USBx_DEVICE->DCTL |= USB_OTG_DCTL_CGONAK;
 8004402:	bf42      	ittt	mi
 8004404:	686b      	ldrmi	r3, [r5, #4]
 8004406:	f443 6380 	orrmi.w	r3, r3, #1024	@ 0x400
 800440a:	606b      	strmi	r3, [r5, #4]
            if (ep->is_iso_incomplete == 1U)
 800440c:	f89a 3257 	ldrb.w	r3, [sl, #599]	@ 0x257
 8004410:	2b01      	cmp	r3, #1
 8004412:	d106      	bne.n	8004422 <HAL_PCD_IRQHandler+0x3e2>
              ep->is_iso_incomplete = 0U;
 8004414:	2300      	movs	r3, #0
 8004416:	f88a 3257 	strb.w	r3, [sl, #599]	@ 0x257
              HAL_PCD_ISOOUTIncompleteCallback(hpcd, (uint8_t)epnum);
 800441a:	4659      	mov	r1, fp
 800441c:	4620      	mov	r0, r4
 800441e:	f003 fe3d 	bl	800809c <HAL_PCD_ISOOUTIncompleteCallback>
            CLEAR_OUT_EP_INTR(epnum, USB_OTG_DOEPINT_EPDISD);
 8004422:	2302      	movs	r3, #2
 8004424:	f8c8 3008 	str.w	r3, [r8, #8]
          if ((epint & USB_OTG_DOEPINT_OTEPSPR) == USB_OTG_DOEPINT_OTEPSPR)
 8004428:	f019 0f20 	tst.w	r9, #32
            CLEAR_OUT_EP_INTR(epnum, USB_OTG_DOEPINT_OTEPSPR);
 800442c:	bf1c      	itt	ne
 800442e:	2320      	movne	r3, #32
 8004430:	f8c8 3008 	strne.w	r3, [r8, #8]
          if ((epint & USB_OTG_DOEPINT_NAK) == USB_OTG_DOEPINT_NAK)
 8004434:	f419 5f00 	tst.w	r9, #8192	@ 0x2000
            CLEAR_OUT_EP_INTR(epnum, USB_OTG_DOEPINT_NAK);
 8004438:	bf1c      	itt	ne
 800443a:	f44f 5300 	movne.w	r3, #8192	@ 0x2000
 800443e:	f8c8 3008 	strne.w	r3, [r8, #8]
        ep_intr >>= 1U;
 8004442:	9b04      	ldr	r3, [sp, #16]
 8004444:	085b      	lsrs	r3, r3, #1
        epnum++;
 8004446:	3701      	adds	r7, #1
        ep_intr >>= 1U;
 8004448:	9304      	str	r3, [sp, #16]
 800444a:	f108 0820 	add.w	r8, r8, #32
 800444e:	f10a 0a24 	add.w	sl, sl, #36	@ 0x24
 8004452:	e775      	b.n	8004340 <HAL_PCD_IRQHandler+0x300>
      if ((gSNPSiD > USB_OTG_CORE_ID_300A) &&
 8004454:	f8df c1f0 	ldr.w	ip, [pc, #496]	@ 8004648 <HAL_PCD_IRQHandler+0x608>
 8004458:	4561      	cmp	r1, ip
 800445a:	d901      	bls.n	8004460 <HAL_PCD_IRQHandler+0x420>
 800445c:	0412      	lsls	r2, r2, #16
 800445e:	d498      	bmi.n	8004392 <HAL_PCD_IRQHandler+0x352>
        ep->xfer_count = ep->xfer_size - (USBx_OUTEP(epnum)->DOEPTSIZ & USB_OTG_DOEPTSIZ_XFRSIZ);
 8004460:	691a      	ldr	r2, [r3, #16]
 8004462:	f8da 3274 	ldr.w	r3, [sl, #628]	@ 0x274
 8004466:	f3c2 0212 	ubfx	r2, r2, #0, #19
 800446a:	1a9b      	subs	r3, r3, r2
 800446c:	f8ca 3268 	str.w	r3, [sl, #616]	@ 0x268
        if (epnum == 0U)
 8004470:	b96f      	cbnz	r7, 800448e <HAL_PCD_IRQHandler+0x44e>
          if (ep->xfer_len == 0U)
 8004472:	f8d4 2264 	ldr.w	r2, [r4, #612]	@ 0x264
 8004476:	b92a      	cbnz	r2, 8004484 <HAL_PCD_IRQHandler+0x444>
            (void)USB_EP0_OutStart(hpcd->Instance, 1U, (uint8_t *)hpcd->Setup);
 8004478:	f204 429c 	addw	r2, r4, #1180	@ 0x49c
 800447c:	2101      	movs	r1, #1
        (void)USB_EP0_OutStart(hpcd->Instance, 0U, (uint8_t *)hpcd->Setup);
 800447e:	f001 ff2b 	bl	80062d8 <USB_EP0_OutStart>
 8004482:	e004      	b.n	800448e <HAL_PCD_IRQHandler+0x44e>
            ep->xfer_buff += ep->xfer_count;
 8004484:	f8d4 2260 	ldr.w	r2, [r4, #608]	@ 0x260
 8004488:	441a      	add	r2, r3
 800448a:	f8c4 2260 	str.w	r2, [r4, #608]	@ 0x260
      HAL_PCD_DataOutStageCallback(hpcd, (uint8_t)epnum);
 800448e:	4659      	mov	r1, fp
 8004490:	4620      	mov	r0, r4
 8004492:	f003 fdbf 	bl	8008014 <HAL_PCD_DataOutStageCallback>
 8004496:	e784      	b.n	80043a2 <HAL_PCD_IRQHandler+0x362>
    if (gSNPSiD == USB_OTG_CORE_ID_310A)
 8004498:	f8df c1b0 	ldr.w	ip, [pc, #432]	@ 800464c <HAL_PCD_IRQHandler+0x60c>
 800449c:	4561      	cmp	r1, ip
 800449e:	d107      	bne.n	80044b0 <HAL_PCD_IRQHandler+0x470>
      if ((DoepintReg & USB_OTG_DOEPINT_STPKTRX) == USB_OTG_DOEPINT_STPKTRX)
 80044a0:	0411      	lsls	r1, r2, #16
 80044a2:	f53f af76 	bmi.w	8004392 <HAL_PCD_IRQHandler+0x352>
        if ((DoepintReg & USB_OTG_DOEPINT_OTEPSPR) == USB_OTG_DOEPINT_OTEPSPR)
 80044a6:	0690      	lsls	r0, r2, #26
 80044a8:	d5f1      	bpl.n	800448e <HAL_PCD_IRQHandler+0x44e>
          CLEAR_OUT_EP_INTR(epnum, USB_OTG_DOEPINT_OTEPSPR);
 80044aa:	2220      	movs	r2, #32
 80044ac:	609a      	str	r2, [r3, #8]
        HAL_PCD_DataOutStageCallback(hpcd, (uint8_t)epnum);
 80044ae:	e7ee      	b.n	800448e <HAL_PCD_IRQHandler+0x44e>
      if ((epnum == 0U) && (hpcd->OUT_ep[epnum].xfer_len == 0U))
 80044b0:	2f00      	cmp	r7, #0
 80044b2:	d1ec      	bne.n	800448e <HAL_PCD_IRQHandler+0x44e>
 80044b4:	f8d4 3264 	ldr.w	r3, [r4, #612]	@ 0x264
 80044b8:	2b00      	cmp	r3, #0
 80044ba:	d1e8      	bne.n	800448e <HAL_PCD_IRQHandler+0x44e>
        (void)USB_EP0_OutStart(hpcd->Instance, 0U, (uint8_t *)hpcd->Setup);
 80044bc:	f204 429c 	addw	r2, r4, #1180	@ 0x49c
 80044c0:	4639      	mov	r1, r7
 80044c2:	e7dc      	b.n	800447e <HAL_PCD_IRQHandler+0x43e>
        if ((ep_intr & 0x1U) != 0U) /* In ITR */
 80044c4:	9b04      	ldr	r3, [sp, #16]
 80044c6:	07db      	lsls	r3, r3, #31
 80044c8:	f140 8099 	bpl.w	80045fe <HAL_PCD_IRQHandler+0x5be>
          epint = USB_ReadDevInEPInterrupt(hpcd->Instance, (uint8_t)epnum);
 80044cc:	fa5f f38a 	uxtb.w	r3, sl
 80044d0:	4619      	mov	r1, r3
 80044d2:	9305      	str	r3, [sp, #20]
 80044d4:	f001 fedd 	bl	8006292 <USB_ReadDevInEPInterrupt>
          if ((epint & USB_OTG_DIEPINT_XFRC) == USB_OTG_DIEPINT_XFRC)
 80044d8:	f010 0f01 	tst.w	r0, #1
          epint = USB_ReadDevInEPInterrupt(hpcd->Instance, (uint8_t)epnum);
 80044dc:	4680      	mov	r8, r0
          if ((epint & USB_OTG_DIEPINT_XFRC) == USB_OTG_DIEPINT_XFRC)
 80044de:	d01f      	beq.n	8004520 <HAL_PCD_IRQHandler+0x4e0>
            USBx_DEVICE->DIEPEMPMSK &= ~fifoemptymsk;
 80044e0:	6b6b      	ldr	r3, [r5, #52]	@ 0x34
            fifoemptymsk = (uint32_t)(0x1UL << (epnum & EP_ADDR_MSK));
 80044e2:	2101      	movs	r1, #1
 80044e4:	f00a 020f 	and.w	r2, sl, #15
 80044e8:	fa01 f202 	lsl.w	r2, r1, r2
            USBx_DEVICE->DIEPEMPMSK &= ~fifoemptymsk;
 80044ec:	ea23 0302 	bic.w	r3, r3, r2
 80044f0:	636b      	str	r3, [r5, #52]	@ 0x34
            CLEAR_IN_EP_INTR(epnum, USB_OTG_DIEPINT_XFRC);
 80044f2:	f8cb 1008 	str.w	r1, [fp, #8]
            if (hpcd->Init.dma_enable == 1U)
 80044f6:	79a1      	ldrb	r1, [r4, #6]
 80044f8:	2901      	cmp	r1, #1
 80044fa:	d10d      	bne.n	8004518 <HAL_PCD_IRQHandler+0x4d8>
              hpcd->IN_ep[epnum].xfer_buff += hpcd->IN_ep[epnum].maxpacket;
 80044fc:	e9d7 2307 	ldrd	r2, r3, [r7, #28]
 8004500:	4413      	add	r3, r2
 8004502:	623b      	str	r3, [r7, #32]
              if ((epnum == 0U) && (hpcd->IN_ep[epnum].xfer_len == 0U))
 8004504:	f1ba 0f00 	cmp.w	sl, #0
 8004508:	d106      	bne.n	8004518 <HAL_PCD_IRQHandler+0x4d8>
 800450a:	6a63      	ldr	r3, [r4, #36]	@ 0x24
 800450c:	b923      	cbnz	r3, 8004518 <HAL_PCD_IRQHandler+0x4d8>
                (void)USB_EP0_OutStart(hpcd->Instance, 1U, (uint8_t *)hpcd->Setup);
 800450e:	6820      	ldr	r0, [r4, #0]
 8004510:	f204 429c 	addw	r2, r4, #1180	@ 0x49c
 8004514:	f001 fee0 	bl	80062d8 <USB_EP0_OutStart>
            HAL_PCD_DataInStageCallback(hpcd, (uint8_t)epnum);
 8004518:	9905      	ldr	r1, [sp, #20]
 800451a:	4620      	mov	r0, r4
 800451c:	f003 fd83 	bl	8008026 <HAL_PCD_DataInStageCallback>
          if ((epint & USB_OTG_DIEPINT_TOC) == USB_OTG_DIEPINT_TOC)
 8004520:	f018 0f08 	tst.w	r8, #8
            CLEAR_IN_EP_INTR(epnum, USB_OTG_DIEPINT_TOC);
 8004524:	bf1c      	itt	ne
 8004526:	2308      	movne	r3, #8
 8004528:	f8cb 3008 	strne.w	r3, [fp, #8]
          if ((epint & USB_OTG_DIEPINT_ITTXFE) == USB_OTG_DIEPINT_ITTXFE)
 800452c:	f018 0f10 	tst.w	r8, #16
            CLEAR_IN_EP_INTR(epnum, USB_OTG_DIEPINT_ITTXFE);
 8004530:	bf1c      	itt	ne
 8004532:	2310      	movne	r3, #16
 8004534:	f8cb 3008 	strne.w	r3, [fp, #8]
          if ((epint & USB_OTG_DIEPINT_INEPNE) == USB_OTG_DIEPINT_INEPNE)
 8004538:	f018 0f40 	tst.w	r8, #64	@ 0x40
            CLEAR_IN_EP_INTR(epnum, USB_OTG_DIEPINT_INEPNE);
 800453c:	bf1c      	itt	ne
 800453e:	2340      	movne	r3, #64	@ 0x40
 8004540:	f8cb 3008 	strne.w	r3, [fp, #8]
          if ((epint & USB_OTG_DIEPINT_EPDISD) == USB_OTG_DIEPINT_EPDISD)
 8004544:	f018 0f02 	tst.w	r8, #2
 8004548:	d00f      	beq.n	800456a <HAL_PCD_IRQHandler+0x52a>
            (void)USB_FlushTxFifo(USBx, epnum);
 800454a:	4651      	mov	r1, sl
 800454c:	4630      	mov	r0, r6
 800454e:	f001 fae5 	bl	8005b1c <USB_FlushTxFifo>
            if (ep->is_iso_incomplete == 1U)
 8004552:	7dfb      	ldrb	r3, [r7, #23]
 8004554:	2b01      	cmp	r3, #1
 8004556:	d105      	bne.n	8004564 <HAL_PCD_IRQHandler+0x524>
              ep->is_iso_incomplete = 0U;
 8004558:	2300      	movs	r3, #0
              HAL_PCD_ISOINIncompleteCallback(hpcd, (uint8_t)epnum);
 800455a:	9905      	ldr	r1, [sp, #20]
              ep->is_iso_incomplete = 0U;
 800455c:	75fb      	strb	r3, [r7, #23]
              HAL_PCD_ISOINIncompleteCallback(hpcd, (uint8_t)epnum);
 800455e:	4620      	mov	r0, r4
 8004560:	f003 fda0 	bl	80080a4 <HAL_PCD_ISOINIncompleteCallback>
            CLEAR_IN_EP_INTR(epnum, USB_OTG_DIEPINT_EPDISD);
 8004564:	2302      	movs	r3, #2
 8004566:	f8cb 3008 	str.w	r3, [fp, #8]
  USB_OTG_GlobalTypeDef *USBx = hpcd->Instance;
 800456a:	6823      	ldr	r3, [r4, #0]
 800456c:	9306      	str	r3, [sp, #24]
          if ((epint & USB_OTG_DIEPINT_TXFE) == USB_OTG_DIEPINT_TXFE)
 800456e:	f018 0f80 	tst.w	r8, #128	@ 0x80
 8004572:	d044      	beq.n	80045fe <HAL_PCD_IRQHandler+0x5be>
  if (ep->xfer_count > ep->xfer_len)
 8004574:	e9d7 3209 	ldrd	r3, r2, [r7, #36]	@ 0x24
 8004578:	429a      	cmp	r2, r3
 800457a:	d840      	bhi.n	80045fe <HAL_PCD_IRQHandler+0x5be>
  len = ep->xfer_len - ep->xfer_count;
 800457c:	eba3 0802 	sub.w	r8, r3, r2
  if (len > ep->maxpacket)
 8004580:	69fb      	ldr	r3, [r7, #28]
 8004582:	4598      	cmp	r8, r3
 8004584:	bf28      	it	cs
 8004586:	4698      	movcs	r8, r3
  while (((USBx_INEP(epnum)->DTXFSTS & USB_OTG_DTXFSTS_INEPTFSAV) >= len32b) &&
 8004588:	9b06      	ldr	r3, [sp, #24]
 800458a:	f503 6310 	add.w	r3, r3, #2304	@ 0x900
  len32b = (len + 3U) / 4U;
 800458e:	f108 0803 	add.w	r8, r8, #3
  while (((USBx_INEP(epnum)->DTXFSTS & USB_OTG_DTXFSTS_INEPTFSAV) >= len32b) &&
 8004592:	eb03 134a 	add.w	r3, r3, sl, lsl #5
  len32b = (len + 3U) / 4U;
 8004596:	ea4f 0898 	mov.w	r8, r8, lsr #2
  while (((USBx_INEP(epnum)->DTXFSTS & USB_OTG_DTXFSTS_INEPTFSAV) >= len32b) &&
 800459a:	9307      	str	r3, [sp, #28]
 800459c:	9b07      	ldr	r3, [sp, #28]
 800459e:	6999      	ldr	r1, [r3, #24]
 80045a0:	b289      	uxth	r1, r1
         (ep->xfer_count < ep->xfer_len) && (ep->xfer_len != 0U))
 80045a2:	4541      	cmp	r1, r8
 80045a4:	e9d7 3209 	ldrd	r3, r2, [r7, #36]	@ 0x24
 80045a8:	d327      	bcc.n	80045fa <HAL_PCD_IRQHandler+0x5ba>
  while (((USBx_INEP(epnum)->DTXFSTS & USB_OTG_DTXFSTS_INEPTFSAV) >= len32b) &&
 80045aa:	4293      	cmp	r3, r2
 80045ac:	d80b      	bhi.n	80045c6 <HAL_PCD_IRQHandler+0x586>
    USBx_DEVICE->DIEPEMPMSK &= ~fifoemptymsk;
 80045ae:	9b06      	ldr	r3, [sp, #24]
    fifoemptymsk = (uint32_t)(0x1UL << (epnum & EP_ADDR_MSK));
 80045b0:	f00a 000f 	and.w	r0, sl, #15
    USBx_DEVICE->DIEPEMPMSK &= ~fifoemptymsk;
 80045b4:	f8d3 2834 	ldr.w	r2, [r3, #2100]	@ 0x834
    fifoemptymsk = (uint32_t)(0x1UL << (epnum & EP_ADDR_MSK));
 80045b8:	2101      	movs	r1, #1
 80045ba:	4081      	lsls	r1, r0
    USBx_DEVICE->DIEPEMPMSK &= ~fifoemptymsk;
 80045bc:	ea22 0201 	bic.w	r2, r2, r1
 80045c0:	f8c3 2834 	str.w	r2, [r3, #2100]	@ 0x834
 80045c4:	e01b      	b.n	80045fe <HAL_PCD_IRQHandler+0x5be>
    len = ep->xfer_len - ep->xfer_count;
 80045c6:	eba3 0902 	sub.w	r9, r3, r2
    if (len > ep->maxpacket)
 80045ca:	69fb      	ldr	r3, [r7, #28]
    (void)USB_WritePacket(USBx, ep->xfer_buff, (uint8_t)epnum, (uint16_t)len,
 80045cc:	9a05      	ldr	r2, [sp, #20]
 80045ce:	9806      	ldr	r0, [sp, #24]
    if (len > ep->maxpacket)
 80045d0:	4599      	cmp	r9, r3
 80045d2:	bf28      	it	cs
 80045d4:	4699      	movcs	r9, r3
    (void)USB_WritePacket(USBx, ep->xfer_buff, (uint8_t)epnum, (uint16_t)len,
 80045d6:	79a3      	ldrb	r3, [r4, #6]
 80045d8:	9300      	str	r3, [sp, #0]
 80045da:	6a39      	ldr	r1, [r7, #32]
 80045dc:	fa1f f389 	uxth.w	r3, r9
 80045e0:	f001 fc84 	bl	8005eec <USB_WritePacket>
    ep->xfer_buff  += len;
 80045e4:	6a3b      	ldr	r3, [r7, #32]
 80045e6:	444b      	add	r3, r9
 80045e8:	623b      	str	r3, [r7, #32]
    ep->xfer_count += len;
 80045ea:	6abb      	ldr	r3, [r7, #40]	@ 0x28
    len32b = (len + 3U) / 4U;
 80045ec:	f109 0803 	add.w	r8, r9, #3
    ep->xfer_count += len;
 80045f0:	444b      	add	r3, r9
    len32b = (len + 3U) / 4U;
 80045f2:	ea4f 0898 	mov.w	r8, r8, lsr #2
    ep->xfer_count += len;
 80045f6:	62bb      	str	r3, [r7, #40]	@ 0x28
 80045f8:	e7d0      	b.n	800459c <HAL_PCD_IRQHandler+0x55c>
  if (ep->xfer_len <= ep->xfer_count)
 80045fa:	4293      	cmp	r3, r2
 80045fc:	d9d7      	bls.n	80045ae <HAL_PCD_IRQHandler+0x56e>
        ep_intr >>= 1U;
 80045fe:	9b04      	ldr	r3, [sp, #16]
 8004600:	085b      	lsrs	r3, r3, #1
        epnum++;
 8004602:	f10a 0a01 	add.w	sl, sl, #1
        ep_intr >>= 1U;
 8004606:	9304      	str	r3, [sp, #16]
 8004608:	3724      	adds	r7, #36	@ 0x24
 800460a:	f10b 0b20 	add.w	fp, fp, #32
 800460e:	e583      	b.n	8004118 <HAL_PCD_IRQHandler+0xd8>
        HAL_PCD_ResumeCallback(hpcd);
 8004610:	4620      	mov	r0, r4
 8004612:	f003 fd3f 	bl	8008094 <HAL_PCD_ResumeCallback>
 8004616:	e598      	b.n	800414a <HAL_PCD_IRQHandler+0x10a>
        USBx_INEP(i)->DIEPINT = 0xFB7FU;
 8004618:	6099      	str	r1, [r3, #8]
        USBx_INEP(i)->DIEPCTL &= ~USB_OTG_DIEPCTL_STALL;
 800461a:	681a      	ldr	r2, [r3, #0]
 800461c:	f422 1200 	bic.w	r2, r2, #2097152	@ 0x200000
 8004620:	601a      	str	r2, [r3, #0]
        USBx_OUTEP(i)->DOEPINT = 0xFB7FU;
 8004622:	f8c3 1208 	str.w	r1, [r3, #520]	@ 0x208
        USBx_OUTEP(i)->DOEPCTL &= ~USB_OTG_DOEPCTL_STALL;
 8004626:	f8d3 2200 	ldr.w	r2, [r3, #512]	@ 0x200
 800462a:	f422 1200 	bic.w	r2, r2, #2097152	@ 0x200000
 800462e:	f8c3 2200 	str.w	r2, [r3, #512]	@ 0x200
        USBx_OUTEP(i)->DOEPCTL |= USB_OTG_DOEPCTL_SNAK;
 8004632:	f8d3 2200 	ldr.w	r2, [r3, #512]	@ 0x200
 8004636:	f042 6200 	orr.w	r2, r2, #134217728	@ 0x8000000
 800463a:	f8c3 2200 	str.w	r2, [r3, #512]	@ 0x200
      for (i = 0U; i < hpcd->Init.dev_endpoints; i++)
 800463e:	9a03      	ldr	r2, [sp, #12]
 8004640:	3201      	adds	r2, #1
 8004642:	9203      	str	r2, [sp, #12]
 8004644:	3320      	adds	r3, #32
 8004646:	e5a7      	b.n	8004198 <HAL_PCD_IRQHandler+0x158>
 8004648:	4f54300a 	.word	0x4f54300a
 800464c:	4f54310a 	.word	0x4f54310a
        USBx_DEVICE->DOEPMSK |= USB_OTG_DOEPMSK_STUPM |
 8004650:	696b      	ldr	r3, [r5, #20]
 8004652:	f443 5300 	orr.w	r3, r3, #8192	@ 0x2000
 8004656:	f043 032b 	orr.w	r3, r3, #43	@ 0x2b
 800465a:	616b      	str	r3, [r5, #20]
        USBx_DEVICE->DIEPMSK |= USB_OTG_DIEPMSK_TOM |
 800465c:	692b      	ldr	r3, [r5, #16]
 800465e:	f043 030b 	orr.w	r3, r3, #11
 8004662:	612b      	str	r3, [r5, #16]
 8004664:	e5ae      	b.n	80041c4 <HAL_PCD_IRQHandler+0x184>
      USBx->GINTMSK &= ~USB_OTG_GINTMSK_GONAKEFFM;
 8004666:	69b3      	ldr	r3, [r6, #24]
 8004668:	f023 0380 	bic.w	r3, r3, #128	@ 0x80
 800466c:	61b3      	str	r3, [r6, #24]
      for (epnum = 1U; epnum < hpcd->Init.dev_endpoints; epnum++)
 800466e:	2701      	movs	r7, #1
        if (hpcd->OUT_ep[epnum].is_iso_incomplete == 1U)
 8004670:	f204 2857 	addw	r8, r4, #599	@ 0x257
 8004674:	f04f 0924 	mov.w	r9, #36	@ 0x24
      for (epnum = 1U; epnum < hpcd->Init.dev_endpoints; epnum++)
 8004678:	7923      	ldrb	r3, [r4, #4]
 800467a:	42bb      	cmp	r3, r7
 800467c:	f67f ade2 	bls.w	8004244 <HAL_PCD_IRQHandler+0x204>
        if (hpcd->OUT_ep[epnum].is_iso_incomplete == 1U)
 8004680:	fb09 f307 	mul.w	r3, r9, r7
 8004684:	f818 3003 	ldrb.w	r3, [r8, r3]
 8004688:	2b01      	cmp	r3, #1
 800468a:	d103      	bne.n	8004694 <HAL_PCD_IRQHandler+0x654>
          (void)HAL_PCD_EP_Abort(hpcd, (uint8_t)epnum);
 800468c:	b2f9      	uxtb	r1, r7
 800468e:	4620      	mov	r0, r4
 8004690:	f7ff fcc5 	bl	800401e <HAL_PCD_EP_Abort>
      for (epnum = 1U; epnum < hpcd->Init.dev_endpoints; epnum++)
 8004694:	3701      	adds	r7, #1
 8004696:	e7ef      	b.n	8004678 <HAL_PCD_IRQHandler+0x638>
        if ((hpcd->IN_ep[epnum].type == EP_TYPE_ISOC) &&
 8004698:	f898 303c 	ldrb.w	r3, [r8, #60]	@ 0x3c
        RegVal = USBx_INEP(epnum)->DIEPCTL;
 800469c:	f8d9 2000 	ldr.w	r2, [r9]
        if ((hpcd->IN_ep[epnum].type == EP_TYPE_ISOC) &&
 80046a0:	2b01      	cmp	r3, #1
 80046a2:	d109      	bne.n	80046b8 <HAL_PCD_IRQHandler+0x678>
 80046a4:	2a00      	cmp	r2, #0
 80046a6:	da07      	bge.n	80046b8 <HAL_PCD_IRQHandler+0x678>
          (void)HAL_PCD_EP_Abort(hpcd, (uint8_t)(epnum | 0x80U));
 80046a8:	f067 017f 	orn	r1, r7, #127	@ 0x7f
          hpcd->IN_ep[epnum].is_iso_incomplete = 1U;
 80046ac:	f888 303b 	strb.w	r3, [r8, #59]	@ 0x3b
          (void)HAL_PCD_EP_Abort(hpcd, (uint8_t)(epnum | 0x80U));
 80046b0:	b2c9      	uxtb	r1, r1
 80046b2:	4620      	mov	r0, r4
 80046b4:	f7ff fcb3 	bl	800401e <HAL_PCD_EP_Abort>
      for (epnum = 1U; epnum < hpcd->Init.dev_endpoints; epnum++)
 80046b8:	3701      	adds	r7, #1
 80046ba:	f108 0824 	add.w	r8, r8, #36	@ 0x24
 80046be:	f109 0920 	add.w	r9, r9, #32
 80046c2:	e5c8      	b.n	8004256 <HAL_PCD_IRQHandler+0x216>
      for (epnum = 1U; epnum < hpcd->Init.dev_endpoints; epnum++)
 80046c4:	f10c 0c01 	add.w	ip, ip, #1
 80046c8:	3324      	adds	r3, #36	@ 0x24
 80046ca:	3120      	adds	r1, #32
 80046cc:	e5d8      	b.n	8004280 <HAL_PCD_IRQHandler+0x240>
 80046ce:	bf00      	nop

080046d0 <HAL_PCDEx_SetTxFiFo>:
         --> Txn should be configured with the minimum space of 16 words
     The FIFO is used optimally when used TxFIFOs are allocated in the top
         of the FIFO.Ex: use EP1 and EP2 as IN instead of EP1 and EP3 as IN ones.
     When DMA is used 3n * FIFO locations should be reserved for internal DMA registers */

  Tx_Offset = hpcd->Instance->GRXFSIZ;
 80046d0:	6800      	ldr	r0, [r0, #0]
{
 80046d2:	b570      	push	{r4, r5, r6, lr}
  Tx_Offset = hpcd->Instance->GRXFSIZ;
 80046d4:	6a43      	ldr	r3, [r0, #36]	@ 0x24

  if (fifo == 0U)
  {
    hpcd->Instance->DIEPTXF0_HNPTXFSIZ = ((uint32_t)size << 16) | Tx_Offset;
 80046d6:	0412      	lsls	r2, r2, #16
  if (fifo == 0U)
 80046d8:	b919      	cbnz	r1, 80046e2 <HAL_PCDEx_SetTxFiFo+0x12>
    hpcd->Instance->DIEPTXF0_HNPTXFSIZ = ((uint32_t)size << 16) | Tx_Offset;
 80046da:	4313      	orrs	r3, r2
 80046dc:	6283      	str	r3, [r0, #40]	@ 0x28
    /* Multiply Tx_Size by 2 to get higher performance */
    hpcd->Instance->DIEPTXF[fifo - 1U] = ((uint32_t)size << 16) | Tx_Offset;
  }

  return HAL_OK;
}
 80046de:	2000      	movs	r0, #0
 80046e0:	bd70      	pop	{r4, r5, r6, pc}
    Tx_Offset += (hpcd->Instance->DIEPTXF0_HNPTXFSIZ) >> 16;
 80046e2:	6a84      	ldr	r4, [r0, #40]	@ 0x28
    for (i = 0U; i < (fifo - 1U); i++)
 80046e4:	1e4e      	subs	r6, r1, #1
    Tx_Offset += (hpcd->Instance->DIEPTXF0_HNPTXFSIZ) >> 16;
 80046e6:	eb03 4314 	add.w	r3, r3, r4, lsr #16
    for (i = 0U; i < (fifo - 1U); i++)
 80046ea:	2400      	movs	r4, #0
 80046ec:	42b4      	cmp	r4, r6
 80046ee:	d305      	bcc.n	80046fc <HAL_PCDEx_SetTxFiFo+0x2c>
    hpcd->Instance->DIEPTXF[fifo - 1U] = ((uint32_t)size << 16) | Tx_Offset;
 80046f0:	313f      	adds	r1, #63	@ 0x3f
 80046f2:	eb00 0081 	add.w	r0, r0, r1, lsl #2
 80046f6:	4313      	orrs	r3, r2
 80046f8:	6043      	str	r3, [r0, #4]
 80046fa:	e7f0      	b.n	80046de <HAL_PCDEx_SetTxFiFo+0xe>
      Tx_Offset += (hpcd->Instance->DIEPTXF[i] >> 16);
 80046fc:	f104 0540 	add.w	r5, r4, #64	@ 0x40
 8004700:	eb00 0585 	add.w	r5, r0, r5, lsl #2
 8004704:	3401      	adds	r4, #1
 8004706:	686d      	ldr	r5, [r5, #4]
 8004708:	eb03 4315 	add.w	r3, r3, r5, lsr #16
    for (i = 0U; i < (fifo - 1U); i++)
 800470c:	e7ee      	b.n	80046ec <HAL_PCDEx_SetTxFiFo+0x1c>

0800470e <HAL_PCDEx_SetRxFiFo>:
  * @param  size Size of Rx fifo
  * @retval HAL status
  */
HAL_StatusTypeDef HAL_PCDEx_SetRxFiFo(PCD_HandleTypeDef *hpcd, uint16_t size)
{
  hpcd->Instance->GRXFSIZ = size;
 800470e:	6803      	ldr	r3, [r0, #0]

  return HAL_OK;
}
 8004710:	2000      	movs	r0, #0
  hpcd->Instance->GRXFSIZ = size;
 8004712:	6259      	str	r1, [r3, #36]	@ 0x24
}
 8004714:	4770      	bx	lr

08004716 <HAL_PCDEx_LPM_Callback>:
  UNUSED(msg);

  /* NOTE : This function should not be modified, when the callback is needed,
            the HAL_PCDEx_LPM_Callback could be implemented in the user file
   */
}
 8004716:	4770      	bx	lr

08004718 <HAL_RCC_OscConfig>:
 8004718:	e92d 41f3 	stmdb	sp!, {r0, r1, r4, r5, r6, r7, r8, lr}
 800471c:	4604      	mov	r4, r0
 800471e:	b340      	cbz	r0, 8004772 <HAL_RCC_OscConfig+0x5a>
 8004720:	6803      	ldr	r3, [r0, #0]
 8004722:	07de      	lsls	r6, r3, #31
 8004724:	d410      	bmi.n	8004748 <HAL_RCC_OscConfig+0x30>
 8004726:	6823      	ldr	r3, [r4, #0]
 8004728:	079d      	lsls	r5, r3, #30
 800472a:	d45b      	bmi.n	80047e4 <HAL_RCC_OscConfig+0xcc>
 800472c:	6823      	ldr	r3, [r4, #0]
 800472e:	0719      	lsls	r1, r3, #28
 8004730:	f100 809d 	bmi.w	800486e <HAL_RCC_OscConfig+0x156>
 8004734:	6823      	ldr	r3, [r4, #0]
 8004736:	075a      	lsls	r2, r3, #29
 8004738:	f100 80bd 	bmi.w	80048b6 <HAL_RCC_OscConfig+0x19e>
 800473c:	69a3      	ldr	r3, [r4, #24]
 800473e:	2b00      	cmp	r3, #0
 8004740:	f040 8124 	bne.w	800498c <HAL_RCC_OscConfig+0x274>
 8004744:	2000      	movs	r0, #0
 8004746:	e02c      	b.n	80047a2 <HAL_RCC_OscConfig+0x8a>
 8004748:	4b8d      	ldr	r3, [pc, #564]	@ (8004980 <HAL_RCC_OscConfig+0x268>)
 800474a:	689a      	ldr	r2, [r3, #8]
 800474c:	f002 020c 	and.w	r2, r2, #12
 8004750:	2a04      	cmp	r2, #4
 8004752:	d007      	beq.n	8004764 <HAL_RCC_OscConfig+0x4c>
 8004754:	689a      	ldr	r2, [r3, #8]
 8004756:	f002 020c 	and.w	r2, r2, #12
 800475a:	2a08      	cmp	r2, #8
 800475c:	d10b      	bne.n	8004776 <HAL_RCC_OscConfig+0x5e>
 800475e:	685b      	ldr	r3, [r3, #4]
 8004760:	0259      	lsls	r1, r3, #9
 8004762:	d508      	bpl.n	8004776 <HAL_RCC_OscConfig+0x5e>
 8004764:	4b86      	ldr	r3, [pc, #536]	@ (8004980 <HAL_RCC_OscConfig+0x268>)
 8004766:	681b      	ldr	r3, [r3, #0]
 8004768:	039a      	lsls	r2, r3, #14
 800476a:	d5dc      	bpl.n	8004726 <HAL_RCC_OscConfig+0xe>
 800476c:	6863      	ldr	r3, [r4, #4]
 800476e:	2b00      	cmp	r3, #0
 8004770:	d1d9      	bne.n	8004726 <HAL_RCC_OscConfig+0xe>
 8004772:	2001      	movs	r0, #1
 8004774:	e015      	b.n	80047a2 <HAL_RCC_OscConfig+0x8a>
 8004776:	6863      	ldr	r3, [r4, #4]
 8004778:	4d81      	ldr	r5, [pc, #516]	@ (8004980 <HAL_RCC_OscConfig+0x268>)
 800477a:	f5b3 3f80 	cmp.w	r3, #65536	@ 0x10000
 800477e:	d113      	bne.n	80047a8 <HAL_RCC_OscConfig+0x90>
 8004780:	682b      	ldr	r3, [r5, #0]
 8004782:	f443 3380 	orr.w	r3, r3, #65536	@ 0x10000
 8004786:	602b      	str	r3, [r5, #0]
 8004788:	f7fe fa86 	bl	8002c98 <HAL_GetTick>
 800478c:	4e7c      	ldr	r6, [pc, #496]	@ (8004980 <HAL_RCC_OscConfig+0x268>)
 800478e:	4605      	mov	r5, r0
 8004790:	6833      	ldr	r3, [r6, #0]
 8004792:	039b      	lsls	r3, r3, #14
 8004794:	d4c7      	bmi.n	8004726 <HAL_RCC_OscConfig+0xe>
 8004796:	f7fe fa7f 	bl	8002c98 <HAL_GetTick>
 800479a:	1b40      	subs	r0, r0, r5
 800479c:	2864      	cmp	r0, #100	@ 0x64
 800479e:	d9f7      	bls.n	8004790 <HAL_RCC_OscConfig+0x78>
 80047a0:	2003      	movs	r0, #3
 80047a2:	b002      	add	sp, #8
 80047a4:	e8bd 81f0 	ldmia.w	sp!, {r4, r5, r6, r7, r8, pc}
 80047a8:	f5b3 2fa0 	cmp.w	r3, #327680	@ 0x50000
 80047ac:	d104      	bne.n	80047b8 <HAL_RCC_OscConfig+0xa0>
 80047ae:	682b      	ldr	r3, [r5, #0]
 80047b0:	f443 2380 	orr.w	r3, r3, #262144	@ 0x40000
 80047b4:	602b      	str	r3, [r5, #0]
 80047b6:	e7e3      	b.n	8004780 <HAL_RCC_OscConfig+0x68>
 80047b8:	682a      	ldr	r2, [r5, #0]
 80047ba:	f422 3280 	bic.w	r2, r2, #65536	@ 0x10000
 80047be:	602a      	str	r2, [r5, #0]
 80047c0:	682a      	ldr	r2, [r5, #0]
 80047c2:	f422 2280 	bic.w	r2, r2, #262144	@ 0x40000
 80047c6:	602a      	str	r2, [r5, #0]
 80047c8:	2b00      	cmp	r3, #0
 80047ca:	d1dd      	bne.n	8004788 <HAL_RCC_OscConfig+0x70>
 80047cc:	f7fe fa64 	bl	8002c98 <HAL_GetTick>
 80047d0:	4606      	mov	r6, r0
 80047d2:	682b      	ldr	r3, [r5, #0]
 80047d4:	039f      	lsls	r7, r3, #14
 80047d6:	d5a6      	bpl.n	8004726 <HAL_RCC_OscConfig+0xe>
 80047d8:	f7fe fa5e 	bl	8002c98 <HAL_GetTick>
 80047dc:	1b80      	subs	r0, r0, r6
 80047de:	2864      	cmp	r0, #100	@ 0x64
 80047e0:	d9f7      	bls.n	80047d2 <HAL_RCC_OscConfig+0xba>
 80047e2:	e7dd      	b.n	80047a0 <HAL_RCC_OscConfig+0x88>
 80047e4:	4b66      	ldr	r3, [pc, #408]	@ (8004980 <HAL_RCC_OscConfig+0x268>)
 80047e6:	689a      	ldr	r2, [r3, #8]
 80047e8:	f012 0f0c 	tst.w	r2, #12
 80047ec:	d007      	beq.n	80047fe <HAL_RCC_OscConfig+0xe6>
 80047ee:	689a      	ldr	r2, [r3, #8]
 80047f0:	f002 020c 	and.w	r2, r2, #12
 80047f4:	2a08      	cmp	r2, #8
 80047f6:	d111      	bne.n	800481c <HAL_RCC_OscConfig+0x104>
 80047f8:	685b      	ldr	r3, [r3, #4]
 80047fa:	025d      	lsls	r5, r3, #9
 80047fc:	d40e      	bmi.n	800481c <HAL_RCC_OscConfig+0x104>
 80047fe:	4a60      	ldr	r2, [pc, #384]	@ (8004980 <HAL_RCC_OscConfig+0x268>)
 8004800:	6813      	ldr	r3, [r2, #0]
 8004802:	0799      	lsls	r1, r3, #30
 8004804:	d502      	bpl.n	800480c <HAL_RCC_OscConfig+0xf4>
 8004806:	68e3      	ldr	r3, [r4, #12]
 8004808:	2b01      	cmp	r3, #1
 800480a:	d1b2      	bne.n	8004772 <HAL_RCC_OscConfig+0x5a>
 800480c:	6813      	ldr	r3, [r2, #0]
 800480e:	6921      	ldr	r1, [r4, #16]
 8004810:	f023 03f8 	bic.w	r3, r3, #248	@ 0xf8
 8004814:	ea43 03c1 	orr.w	r3, r3, r1, lsl #3
 8004818:	6013      	str	r3, [r2, #0]
 800481a:	e787      	b.n	800472c <HAL_RCC_OscConfig+0x14>
 800481c:	68e2      	ldr	r2, [r4, #12]
 800481e:	4b59      	ldr	r3, [pc, #356]	@ (8004984 <HAL_RCC_OscConfig+0x26c>)
 8004820:	b1b2      	cbz	r2, 8004850 <HAL_RCC_OscConfig+0x138>
 8004822:	2201      	movs	r2, #1
 8004824:	601a      	str	r2, [r3, #0]
 8004826:	f7fe fa37 	bl	8002c98 <HAL_GetTick>
 800482a:	4d55      	ldr	r5, [pc, #340]	@ (8004980 <HAL_RCC_OscConfig+0x268>)
 800482c:	4606      	mov	r6, r0
 800482e:	682b      	ldr	r3, [r5, #0]
 8004830:	079b      	lsls	r3, r3, #30
 8004832:	d507      	bpl.n	8004844 <HAL_RCC_OscConfig+0x12c>
 8004834:	682b      	ldr	r3, [r5, #0]
 8004836:	6922      	ldr	r2, [r4, #16]
 8004838:	f023 03f8 	bic.w	r3, r3, #248	@ 0xf8
 800483c:	ea43 03c2 	orr.w	r3, r3, r2, lsl #3
 8004840:	602b      	str	r3, [r5, #0]
 8004842:	e773      	b.n	800472c <HAL_RCC_OscConfig+0x14>
 8004844:	f7fe fa28 	bl	8002c98 <HAL_GetTick>
 8004848:	1b80      	subs	r0, r0, r6
 800484a:	2802      	cmp	r0, #2
 800484c:	d9ef      	bls.n	800482e <HAL_RCC_OscConfig+0x116>
 800484e:	e7a7      	b.n	80047a0 <HAL_RCC_OscConfig+0x88>
 8004850:	601a      	str	r2, [r3, #0]
 8004852:	f7fe fa21 	bl	8002c98 <HAL_GetTick>
 8004856:	4e4a      	ldr	r6, [pc, #296]	@ (8004980 <HAL_RCC_OscConfig+0x268>)
 8004858:	4605      	mov	r5, r0
 800485a:	6833      	ldr	r3, [r6, #0]
 800485c:	079f      	lsls	r7, r3, #30
 800485e:	f57f af65 	bpl.w	800472c <HAL_RCC_OscConfig+0x14>
 8004862:	f7fe fa19 	bl	8002c98 <HAL_GetTick>
 8004866:	1b40      	subs	r0, r0, r5
 8004868:	2802      	cmp	r0, #2
 800486a:	d9f6      	bls.n	800485a <HAL_RCC_OscConfig+0x142>
 800486c:	e798      	b.n	80047a0 <HAL_RCC_OscConfig+0x88>
 800486e:	6962      	ldr	r2, [r4, #20]
 8004870:	4b44      	ldr	r3, [pc, #272]	@ (8004984 <HAL_RCC_OscConfig+0x26c>)
 8004872:	b182      	cbz	r2, 8004896 <HAL_RCC_OscConfig+0x17e>
 8004874:	2201      	movs	r2, #1
 8004876:	f8c3 2e80 	str.w	r2, [r3, #3712]	@ 0xe80
 800487a:	f7fe fa0d 	bl	8002c98 <HAL_GetTick>
 800487e:	4e40      	ldr	r6, [pc, #256]	@ (8004980 <HAL_RCC_OscConfig+0x268>)
 8004880:	4605      	mov	r5, r0
 8004882:	6f73      	ldr	r3, [r6, #116]	@ 0x74
 8004884:	079b      	lsls	r3, r3, #30
 8004886:	f53f af55 	bmi.w	8004734 <HAL_RCC_OscConfig+0x1c>
 800488a:	f7fe fa05 	bl	8002c98 <HAL_GetTick>
 800488e:	1b40      	subs	r0, r0, r5
 8004890:	2802      	cmp	r0, #2
 8004892:	d9f6      	bls.n	8004882 <HAL_RCC_OscConfig+0x16a>
 8004894:	e784      	b.n	80047a0 <HAL_RCC_OscConfig+0x88>
 8004896:	f8c3 2e80 	str.w	r2, [r3, #3712]	@ 0xe80
 800489a:	f7fe f9fd 	bl	8002c98 <HAL_GetTick>
 800489e:	4e38      	ldr	r6, [pc, #224]	@ (8004980 <HAL_RCC_OscConfig+0x268>)
 80048a0:	4605      	mov	r5, r0
 80048a2:	6f73      	ldr	r3, [r6, #116]	@ 0x74
 80048a4:	079f      	lsls	r7, r3, #30
 80048a6:	f57f af45 	bpl.w	8004734 <HAL_RCC_OscConfig+0x1c>
 80048aa:	f7fe f9f5 	bl	8002c98 <HAL_GetTick>
 80048ae:	1b40      	subs	r0, r0, r5
 80048b0:	2802      	cmp	r0, #2
 80048b2:	d9f6      	bls.n	80048a2 <HAL_RCC_OscConfig+0x18a>
 80048b4:	e774      	b.n	80047a0 <HAL_RCC_OscConfig+0x88>
 80048b6:	4b32      	ldr	r3, [pc, #200]	@ (8004980 <HAL_RCC_OscConfig+0x268>)
 80048b8:	6c1a      	ldr	r2, [r3, #64]	@ 0x40
 80048ba:	f012 5280 	ands.w	r2, r2, #268435456	@ 0x10000000
 80048be:	d128      	bne.n	8004912 <HAL_RCC_OscConfig+0x1fa>
 80048c0:	9201      	str	r2, [sp, #4]
 80048c2:	6c1a      	ldr	r2, [r3, #64]	@ 0x40
 80048c4:	f042 5280 	orr.w	r2, r2, #268435456	@ 0x10000000
 80048c8:	641a      	str	r2, [r3, #64]	@ 0x40
 80048ca:	6c1b      	ldr	r3, [r3, #64]	@ 0x40
 80048cc:	f003 5380 	and.w	r3, r3, #268435456	@ 0x10000000
 80048d0:	9301      	str	r3, [sp, #4]
 80048d2:	9b01      	ldr	r3, [sp, #4]
 80048d4:	2701      	movs	r7, #1
 80048d6:	4d2c      	ldr	r5, [pc, #176]	@ (8004988 <HAL_RCC_OscConfig+0x270>)
 80048d8:	682b      	ldr	r3, [r5, #0]
 80048da:	05d8      	lsls	r0, r3, #23
 80048dc:	d51b      	bpl.n	8004916 <HAL_RCC_OscConfig+0x1fe>
 80048de:	68a3      	ldr	r3, [r4, #8]
 80048e0:	4d27      	ldr	r5, [pc, #156]	@ (8004980 <HAL_RCC_OscConfig+0x268>)
 80048e2:	2b01      	cmp	r3, #1
 80048e4:	d127      	bne.n	8004936 <HAL_RCC_OscConfig+0x21e>
 80048e6:	6f2b      	ldr	r3, [r5, #112]	@ 0x70
 80048e8:	f043 0301 	orr.w	r3, r3, #1
 80048ec:	672b      	str	r3, [r5, #112]	@ 0x70
 80048ee:	f7fe f9d3 	bl	8002c98 <HAL_GetTick>
 80048f2:	4e23      	ldr	r6, [pc, #140]	@ (8004980 <HAL_RCC_OscConfig+0x268>)
 80048f4:	4605      	mov	r5, r0
 80048f6:	f241 3888 	movw	r8, #5000	@ 0x1388
 80048fa:	6f33      	ldr	r3, [r6, #112]	@ 0x70
 80048fc:	079a      	lsls	r2, r3, #30
 80048fe:	d539      	bpl.n	8004974 <HAL_RCC_OscConfig+0x25c>
 8004900:	2f00      	cmp	r7, #0
 8004902:	f43f af1b 	beq.w	800473c <HAL_RCC_OscConfig+0x24>
 8004906:	4a1e      	ldr	r2, [pc, #120]	@ (8004980 <HAL_RCC_OscConfig+0x268>)
 8004908:	6c13      	ldr	r3, [r2, #64]	@ 0x40
 800490a:	f023 5380 	bic.w	r3, r3, #268435456	@ 0x10000000
 800490e:	6413      	str	r3, [r2, #64]	@ 0x40
 8004910:	e714      	b.n	800473c <HAL_RCC_OscConfig+0x24>
 8004912:	2700      	movs	r7, #0
 8004914:	e7df      	b.n	80048d6 <HAL_RCC_OscConfig+0x1be>
 8004916:	682b      	ldr	r3, [r5, #0]
 8004918:	f443 7380 	orr.w	r3, r3, #256	@ 0x100
 800491c:	602b      	str	r3, [r5, #0]
 800491e:	f7fe f9bb 	bl	8002c98 <HAL_GetTick>
 8004922:	4606      	mov	r6, r0
 8004924:	682b      	ldr	r3, [r5, #0]
 8004926:	05d9      	lsls	r1, r3, #23
 8004928:	d4d9      	bmi.n	80048de <HAL_RCC_OscConfig+0x1c6>
 800492a:	f7fe f9b5 	bl	8002c98 <HAL_GetTick>
 800492e:	1b80      	subs	r0, r0, r6
 8004930:	2802      	cmp	r0, #2
 8004932:	d9f7      	bls.n	8004924 <HAL_RCC_OscConfig+0x20c>
 8004934:	e734      	b.n	80047a0 <HAL_RCC_OscConfig+0x88>
 8004936:	2b05      	cmp	r3, #5
 8004938:	d104      	bne.n	8004944 <HAL_RCC_OscConfig+0x22c>
 800493a:	6f2b      	ldr	r3, [r5, #112]	@ 0x70
 800493c:	f043 0304 	orr.w	r3, r3, #4
 8004940:	672b      	str	r3, [r5, #112]	@ 0x70
 8004942:	e7d0      	b.n	80048e6 <HAL_RCC_OscConfig+0x1ce>
 8004944:	6f2a      	ldr	r2, [r5, #112]	@ 0x70
 8004946:	f022 0201 	bic.w	r2, r2, #1
 800494a:	672a      	str	r2, [r5, #112]	@ 0x70
 800494c:	6f2a      	ldr	r2, [r5, #112]	@ 0x70
 800494e:	f022 0204 	bic.w	r2, r2, #4
 8004952:	672a      	str	r2, [r5, #112]	@ 0x70
 8004954:	2b00      	cmp	r3, #0
 8004956:	d1ca      	bne.n	80048ee <HAL_RCC_OscConfig+0x1d6>
 8004958:	f7fe f99e 	bl	8002c98 <HAL_GetTick>
 800495c:	f241 3888 	movw	r8, #5000	@ 0x1388
 8004960:	4606      	mov	r6, r0
 8004962:	6f2b      	ldr	r3, [r5, #112]	@ 0x70
 8004964:	079b      	lsls	r3, r3, #30
 8004966:	d5cb      	bpl.n	8004900 <HAL_RCC_OscConfig+0x1e8>
 8004968:	f7fe f996 	bl	8002c98 <HAL_GetTick>
 800496c:	1b80      	subs	r0, r0, r6
 800496e:	4540      	cmp	r0, r8
 8004970:	d9f7      	bls.n	8004962 <HAL_RCC_OscConfig+0x24a>
 8004972:	e715      	b.n	80047a0 <HAL_RCC_OscConfig+0x88>
 8004974:	f7fe f990 	bl	8002c98 <HAL_GetTick>
 8004978:	1b40      	subs	r0, r0, r5
 800497a:	4540      	cmp	r0, r8
 800497c:	d9bd      	bls.n	80048fa <HAL_RCC_OscConfig+0x1e2>
 800497e:	e70f      	b.n	80047a0 <HAL_RCC_OscConfig+0x88>
 8004980:	40023800 	.word	0x40023800
 8004984:	42470000 	.word	0x42470000
 8004988:	40007000 	.word	0x40007000
 800498c:	4d37      	ldr	r5, [pc, #220]	@ (8004a6c <HAL_RCC_OscConfig+0x354>)
 800498e:	68aa      	ldr	r2, [r5, #8]
 8004990:	f002 020c 	and.w	r2, r2, #12
 8004994:	2a08      	cmp	r2, #8
 8004996:	d03e      	beq.n	8004a16 <HAL_RCC_OscConfig+0x2fe>
 8004998:	2b02      	cmp	r3, #2
 800499a:	4b35      	ldr	r3, [pc, #212]	@ (8004a70 <HAL_RCC_OscConfig+0x358>)
 800499c:	f04f 0200 	mov.w	r2, #0
 80049a0:	661a      	str	r2, [r3, #96]	@ 0x60
 80049a2:	d12b      	bne.n	80049fc <HAL_RCC_OscConfig+0x2e4>
 80049a4:	f7fe f978 	bl	8002c98 <HAL_GetTick>
 80049a8:	4606      	mov	r6, r0
 80049aa:	682b      	ldr	r3, [r5, #0]
 80049ac:	0199      	lsls	r1, r3, #6
 80049ae:	d41f      	bmi.n	80049f0 <HAL_RCC_OscConfig+0x2d8>
 80049b0:	e9d4 3207 	ldrd	r3, r2, [r4, #28]
 80049b4:	4313      	orrs	r3, r2
 80049b6:	6a62      	ldr	r2, [r4, #36]	@ 0x24
 80049b8:	ea43 1382 	orr.w	r3, r3, r2, lsl #6
 80049bc:	6ae2      	ldr	r2, [r4, #44]	@ 0x2c
 80049be:	ea43 6302 	orr.w	r3, r3, r2, lsl #24
 80049c2:	6aa2      	ldr	r2, [r4, #40]	@ 0x28
 80049c4:	0852      	lsrs	r2, r2, #1
 80049c6:	3a01      	subs	r2, #1
 80049c8:	ea43 4302 	orr.w	r3, r3, r2, lsl #16
 80049cc:	606b      	str	r3, [r5, #4]
 80049ce:	4b28      	ldr	r3, [pc, #160]	@ (8004a70 <HAL_RCC_OscConfig+0x358>)
 80049d0:	4d26      	ldr	r5, [pc, #152]	@ (8004a6c <HAL_RCC_OscConfig+0x354>)
 80049d2:	2201      	movs	r2, #1
 80049d4:	661a      	str	r2, [r3, #96]	@ 0x60
 80049d6:	f7fe f95f 	bl	8002c98 <HAL_GetTick>
 80049da:	4604      	mov	r4, r0
 80049dc:	682b      	ldr	r3, [r5, #0]
 80049de:	019a      	lsls	r2, r3, #6
 80049e0:	f53f aeb0 	bmi.w	8004744 <HAL_RCC_OscConfig+0x2c>
 80049e4:	f7fe f958 	bl	8002c98 <HAL_GetTick>
 80049e8:	1b00      	subs	r0, r0, r4
 80049ea:	2802      	cmp	r0, #2
 80049ec:	d9f6      	bls.n	80049dc <HAL_RCC_OscConfig+0x2c4>
 80049ee:	e6d7      	b.n	80047a0 <HAL_RCC_OscConfig+0x88>
 80049f0:	f7fe f952 	bl	8002c98 <HAL_GetTick>
 80049f4:	1b80      	subs	r0, r0, r6
 80049f6:	2802      	cmp	r0, #2
 80049f8:	d9d7      	bls.n	80049aa <HAL_RCC_OscConfig+0x292>
 80049fa:	e6d1      	b.n	80047a0 <HAL_RCC_OscConfig+0x88>
 80049fc:	f7fe f94c 	bl	8002c98 <HAL_GetTick>
 8004a00:	4604      	mov	r4, r0
 8004a02:	682b      	ldr	r3, [r5, #0]
 8004a04:	019b      	lsls	r3, r3, #6
 8004a06:	f57f ae9d 	bpl.w	8004744 <HAL_RCC_OscConfig+0x2c>
 8004a0a:	f7fe f945 	bl	8002c98 <HAL_GetTick>
 8004a0e:	1b00      	subs	r0, r0, r4
 8004a10:	2802      	cmp	r0, #2
 8004a12:	d9f6      	bls.n	8004a02 <HAL_RCC_OscConfig+0x2ea>
 8004a14:	e6c4      	b.n	80047a0 <HAL_RCC_OscConfig+0x88>
 8004a16:	2b01      	cmp	r3, #1
 8004a18:	f43f aeab 	beq.w	8004772 <HAL_RCC_OscConfig+0x5a>
 8004a1c:	686b      	ldr	r3, [r5, #4]
 8004a1e:	69e2      	ldr	r2, [r4, #28]
 8004a20:	f403 0180 	and.w	r1, r3, #4194304	@ 0x400000
 8004a24:	4291      	cmp	r1, r2
 8004a26:	f47f aea4 	bne.w	8004772 <HAL_RCC_OscConfig+0x5a>
 8004a2a:	6a21      	ldr	r1, [r4, #32]
 8004a2c:	f003 023f 	and.w	r2, r3, #63	@ 0x3f
 8004a30:	428a      	cmp	r2, r1
 8004a32:	f47f ae9e 	bne.w	8004772 <HAL_RCC_OscConfig+0x5a>
 8004a36:	6a61      	ldr	r1, [r4, #36]	@ 0x24
 8004a38:	f647 72c0 	movw	r2, #32704	@ 0x7fc0
 8004a3c:	401a      	ands	r2, r3
 8004a3e:	ebb2 1f81 	cmp.w	r2, r1, lsl #6
 8004a42:	f47f ae96 	bne.w	8004772 <HAL_RCC_OscConfig+0x5a>
 8004a46:	6aa2      	ldr	r2, [r4, #40]	@ 0x28
 8004a48:	0852      	lsrs	r2, r2, #1
 8004a4a:	f403 3140 	and.w	r1, r3, #196608	@ 0x30000
 8004a4e:	3a01      	subs	r2, #1
 8004a50:	ebb1 4f02 	cmp.w	r1, r2, lsl #16
 8004a54:	f47f ae8d 	bne.w	8004772 <HAL_RCC_OscConfig+0x5a>
 8004a58:	6ae2      	ldr	r2, [r4, #44]	@ 0x2c
 8004a5a:	f003 6370 	and.w	r3, r3, #251658240	@ 0xf000000
 8004a5e:	ebb3 6f02 	cmp.w	r3, r2, lsl #24
 8004a62:	bf14      	ite	ne
 8004a64:	2001      	movne	r0, #1
 8004a66:	2000      	moveq	r0, #0
 8004a68:	e69b      	b.n	80047a2 <HAL_RCC_OscConfig+0x8a>
 8004a6a:	bf00      	nop
 8004a6c:	40023800 	.word	0x40023800
 8004a70:	42470000 	.word	0x42470000

08004a74 <HAL_RCC_GetSysClockFreq>:
 8004a74:	4913      	ldr	r1, [pc, #76]	@ (8004ac4 <HAL_RCC_GetSysClockFreq+0x50>)
 8004a76:	b508      	push	{r3, lr}
 8004a78:	688b      	ldr	r3, [r1, #8]
 8004a7a:	f003 030c 	and.w	r3, r3, #12
 8004a7e:	2b04      	cmp	r3, #4
 8004a80:	d01c      	beq.n	8004abc <HAL_RCC_GetSysClockFreq+0x48>
 8004a82:	2b08      	cmp	r3, #8
 8004a84:	d11c      	bne.n	8004ac0 <HAL_RCC_GetSysClockFreq+0x4c>
 8004a86:	684a      	ldr	r2, [r1, #4]
 8004a88:	684b      	ldr	r3, [r1, #4]
 8004a8a:	6849      	ldr	r1, [r1, #4]
 8004a8c:	f413 0380 	ands.w	r3, r3, #4194304	@ 0x400000
 8004a90:	bf14      	ite	ne
 8004a92:	480d      	ldrne	r0, [pc, #52]	@ (8004ac8 <HAL_RCC_GetSysClockFreq+0x54>)
 8004a94:	480d      	ldreq	r0, [pc, #52]	@ (8004acc <HAL_RCC_GetSysClockFreq+0x58>)
 8004a96:	f3c1 1188 	ubfx	r1, r1, #6, #9
 8004a9a:	bf18      	it	ne
 8004a9c:	2300      	movne	r3, #0
 8004a9e:	f002 023f 	and.w	r2, r2, #63	@ 0x3f
 8004aa2:	fba1 0100 	umull	r0, r1, r1, r0
 8004aa6:	f7fc f8d7 	bl	8000c58 <__aeabi_uldivmod>
 8004aaa:	4b06      	ldr	r3, [pc, #24]	@ (8004ac4 <HAL_RCC_GetSysClockFreq+0x50>)
 8004aac:	685b      	ldr	r3, [r3, #4]
 8004aae:	f3c3 4301 	ubfx	r3, r3, #16, #2
 8004ab2:	3301      	adds	r3, #1
 8004ab4:	005b      	lsls	r3, r3, #1
 8004ab6:	fbb0 f0f3 	udiv	r0, r0, r3
 8004aba:	bd08      	pop	{r3, pc}
 8004abc:	4802      	ldr	r0, [pc, #8]	@ (8004ac8 <HAL_RCC_GetSysClockFreq+0x54>)
 8004abe:	e7fc      	b.n	8004aba <HAL_RCC_GetSysClockFreq+0x46>
 8004ac0:	4802      	ldr	r0, [pc, #8]	@ (8004acc <HAL_RCC_GetSysClockFreq+0x58>)
 8004ac2:	e7fa      	b.n	8004aba <HAL_RCC_GetSysClockFreq+0x46>
 8004ac4:	40023800 	.word	0x40023800
 8004ac8:	017d7840 	.word	0x017d7840
 8004acc:	00f42400 	.word	0x00f42400

08004ad0 <HAL_RCC_ClockConfig>:
 8004ad0:	e92d 41f0 	stmdb	sp!, {r4, r5, r6, r7, r8, lr}
 8004ad4:	460d      	mov	r5, r1
 8004ad6:	4604      	mov	r4, r0
 8004ad8:	b910      	cbnz	r0, 8004ae0 <HAL_RCC_ClockConfig+0x10>
 8004ada:	2001      	movs	r0, #1
 8004adc:	e8bd 81f0 	ldmia.w	sp!, {r4, r5, r6, r7, r8, pc}
 8004ae0:	4b43      	ldr	r3, [pc, #268]	@ (8004bf0 <HAL_RCC_ClockConfig+0x120>)
 8004ae2:	681a      	ldr	r2, [r3, #0]
 8004ae4:	f002 0207 	and.w	r2, r2, #7
 8004ae8:	428a      	cmp	r2, r1
 8004aea:	d328      	bcc.n	8004b3e <HAL_RCC_ClockConfig+0x6e>
 8004aec:	6821      	ldr	r1, [r4, #0]
 8004aee:	078f      	lsls	r7, r1, #30
 8004af0:	d42d      	bmi.n	8004b4e <HAL_RCC_ClockConfig+0x7e>
 8004af2:	07c8      	lsls	r0, r1, #31
 8004af4:	d440      	bmi.n	8004b78 <HAL_RCC_ClockConfig+0xa8>
 8004af6:	4b3e      	ldr	r3, [pc, #248]	@ (8004bf0 <HAL_RCC_ClockConfig+0x120>)
 8004af8:	681a      	ldr	r2, [r3, #0]
 8004afa:	f002 0207 	and.w	r2, r2, #7
 8004afe:	42aa      	cmp	r2, r5
 8004b00:	d865      	bhi.n	8004bce <HAL_RCC_ClockConfig+0xfe>
 8004b02:	6822      	ldr	r2, [r4, #0]
 8004b04:	0751      	lsls	r1, r2, #29
 8004b06:	d46b      	bmi.n	8004be0 <HAL_RCC_ClockConfig+0x110>
 8004b08:	0713      	lsls	r3, r2, #28
 8004b0a:	d507      	bpl.n	8004b1c <HAL_RCC_ClockConfig+0x4c>
 8004b0c:	4a39      	ldr	r2, [pc, #228]	@ (8004bf4 <HAL_RCC_ClockConfig+0x124>)
 8004b0e:	6921      	ldr	r1, [r4, #16]
 8004b10:	6893      	ldr	r3, [r2, #8]
 8004b12:	f423 4360 	bic.w	r3, r3, #57344	@ 0xe000
 8004b16:	ea43 03c1 	orr.w	r3, r3, r1, lsl #3
 8004b1a:	6093      	str	r3, [r2, #8]
 8004b1c:	f7ff ffaa 	bl	8004a74 <HAL_RCC_GetSysClockFreq>
 8004b20:	4b34      	ldr	r3, [pc, #208]	@ (8004bf4 <HAL_RCC_ClockConfig+0x124>)
 8004b22:	4a35      	ldr	r2, [pc, #212]	@ (8004bf8 <HAL_RCC_ClockConfig+0x128>)
 8004b24:	689b      	ldr	r3, [r3, #8]
 8004b26:	f3c3 1303 	ubfx	r3, r3, #4, #4
 8004b2a:	5cd3      	ldrb	r3, [r2, r3]
 8004b2c:	40d8      	lsrs	r0, r3
 8004b2e:	4b33      	ldr	r3, [pc, #204]	@ (8004bfc <HAL_RCC_ClockConfig+0x12c>)
 8004b30:	6018      	str	r0, [r3, #0]
 8004b32:	4b33      	ldr	r3, [pc, #204]	@ (8004c00 <HAL_RCC_ClockConfig+0x130>)
 8004b34:	6818      	ldr	r0, [r3, #0]
 8004b36:	f7fd ff87 	bl	8002a48 <HAL_InitTick>
 8004b3a:	2000      	movs	r0, #0
 8004b3c:	e7ce      	b.n	8004adc <HAL_RCC_ClockConfig+0xc>
 8004b3e:	b2ca      	uxtb	r2, r1
 8004b40:	701a      	strb	r2, [r3, #0]
 8004b42:	681b      	ldr	r3, [r3, #0]
 8004b44:	f003 0307 	and.w	r3, r3, #7
 8004b48:	428b      	cmp	r3, r1
 8004b4a:	d1c6      	bne.n	8004ada <HAL_RCC_ClockConfig+0xa>
 8004b4c:	e7ce      	b.n	8004aec <HAL_RCC_ClockConfig+0x1c>
 8004b4e:	4b29      	ldr	r3, [pc, #164]	@ (8004bf4 <HAL_RCC_ClockConfig+0x124>)
 8004b50:	f011 0f04 	tst.w	r1, #4
 8004b54:	bf1e      	ittt	ne
 8004b56:	689a      	ldrne	r2, [r3, #8]
 8004b58:	f442 52e0 	orrne.w	r2, r2, #7168	@ 0x1c00
 8004b5c:	609a      	strne	r2, [r3, #8]
 8004b5e:	070e      	lsls	r6, r1, #28
 8004b60:	bf42      	ittt	mi
 8004b62:	689a      	ldrmi	r2, [r3, #8]
 8004b64:	f442 4260 	orrmi.w	r2, r2, #57344	@ 0xe000
 8004b68:	609a      	strmi	r2, [r3, #8]
 8004b6a:	689a      	ldr	r2, [r3, #8]
 8004b6c:	68a0      	ldr	r0, [r4, #8]
 8004b6e:	f022 02f0 	bic.w	r2, r2, #240	@ 0xf0
 8004b72:	4302      	orrs	r2, r0
 8004b74:	609a      	str	r2, [r3, #8]
 8004b76:	e7bc      	b.n	8004af2 <HAL_RCC_ClockConfig+0x22>
 8004b78:	6862      	ldr	r2, [r4, #4]
 8004b7a:	4b1e      	ldr	r3, [pc, #120]	@ (8004bf4 <HAL_RCC_ClockConfig+0x124>)
 8004b7c:	2a01      	cmp	r2, #1
 8004b7e:	d11c      	bne.n	8004bba <HAL_RCC_ClockConfig+0xea>
 8004b80:	681b      	ldr	r3, [r3, #0]
 8004b82:	f413 3f00 	tst.w	r3, #131072	@ 0x20000
 8004b86:	d0a8      	beq.n	8004ada <HAL_RCC_ClockConfig+0xa>
 8004b88:	4e1a      	ldr	r6, [pc, #104]	@ (8004bf4 <HAL_RCC_ClockConfig+0x124>)
 8004b8a:	68b3      	ldr	r3, [r6, #8]
 8004b8c:	f023 0303 	bic.w	r3, r3, #3
 8004b90:	4313      	orrs	r3, r2
 8004b92:	60b3      	str	r3, [r6, #8]
 8004b94:	f7fe f880 	bl	8002c98 <HAL_GetTick>
 8004b98:	f241 3888 	movw	r8, #5000	@ 0x1388
 8004b9c:	4607      	mov	r7, r0
 8004b9e:	68b3      	ldr	r3, [r6, #8]
 8004ba0:	6862      	ldr	r2, [r4, #4]
 8004ba2:	f003 030c 	and.w	r3, r3, #12
 8004ba6:	ebb3 0f82 	cmp.w	r3, r2, lsl #2
 8004baa:	d0a4      	beq.n	8004af6 <HAL_RCC_ClockConfig+0x26>
 8004bac:	f7fe f874 	bl	8002c98 <HAL_GetTick>
 8004bb0:	1bc0      	subs	r0, r0, r7
 8004bb2:	4540      	cmp	r0, r8
 8004bb4:	d9f3      	bls.n	8004b9e <HAL_RCC_ClockConfig+0xce>
 8004bb6:	2003      	movs	r0, #3
 8004bb8:	e790      	b.n	8004adc <HAL_RCC_ClockConfig+0xc>
 8004bba:	1e91      	subs	r1, r2, #2
 8004bbc:	2901      	cmp	r1, #1
 8004bbe:	681b      	ldr	r3, [r3, #0]
 8004bc0:	d802      	bhi.n	8004bc8 <HAL_RCC_ClockConfig+0xf8>
 8004bc2:	f013 7f00 	tst.w	r3, #33554432	@ 0x2000000
 8004bc6:	e7de      	b.n	8004b86 <HAL_RCC_ClockConfig+0xb6>
 8004bc8:	f013 0f02 	tst.w	r3, #2
 8004bcc:	e7db      	b.n	8004b86 <HAL_RCC_ClockConfig+0xb6>
 8004bce:	b2ea      	uxtb	r2, r5
 8004bd0:	701a      	strb	r2, [r3, #0]
 8004bd2:	681b      	ldr	r3, [r3, #0]
 8004bd4:	f003 0307 	and.w	r3, r3, #7
 8004bd8:	42ab      	cmp	r3, r5
 8004bda:	f47f af7e 	bne.w	8004ada <HAL_RCC_ClockConfig+0xa>
 8004bde:	e790      	b.n	8004b02 <HAL_RCC_ClockConfig+0x32>
 8004be0:	4904      	ldr	r1, [pc, #16]	@ (8004bf4 <HAL_RCC_ClockConfig+0x124>)
 8004be2:	68e0      	ldr	r0, [r4, #12]
 8004be4:	688b      	ldr	r3, [r1, #8]
 8004be6:	f423 53e0 	bic.w	r3, r3, #7168	@ 0x1c00
 8004bea:	4303      	orrs	r3, r0
 8004bec:	608b      	str	r3, [r1, #8]
 8004bee:	e78b      	b.n	8004b08 <HAL_RCC_ClockConfig+0x38>
 8004bf0:	40023c00 	.word	0x40023c00
 8004bf4:	40023800 	.word	0x40023800
 8004bf8:	0800c411 	.word	0x0800c411
 8004bfc:	20000004 	.word	0x20000004
 8004c00:	2000000c 	.word	0x2000000c

08004c04 <HAL_RCC_GetHCLKFreq>:
 8004c04:	4b01      	ldr	r3, [pc, #4]	@ (8004c0c <HAL_RCC_GetHCLKFreq+0x8>)
 8004c06:	6818      	ldr	r0, [r3, #0]
 8004c08:	4770      	bx	lr
 8004c0a:	bf00      	nop
 8004c0c:	20000004 	.word	0x20000004

08004c10 <HAL_RCC_GetPCLK1Freq>:
 8004c10:	4b04      	ldr	r3, [pc, #16]	@ (8004c24 <HAL_RCC_GetPCLK1Freq+0x14>)
 8004c12:	4a05      	ldr	r2, [pc, #20]	@ (8004c28 <HAL_RCC_GetPCLK1Freq+0x18>)
 8004c14:	689b      	ldr	r3, [r3, #8]
 8004c16:	f3c3 2382 	ubfx	r3, r3, #10, #3
 8004c1a:	5cd3      	ldrb	r3, [r2, r3]
 8004c1c:	4a03      	ldr	r2, [pc, #12]	@ (8004c2c <HAL_RCC_GetPCLK1Freq+0x1c>)
 8004c1e:	6810      	ldr	r0, [r2, #0]
 8004c20:	40d8      	lsrs	r0, r3
 8004c22:	4770      	bx	lr
 8004c24:	40023800 	.word	0x40023800
 8004c28:	0800c409 	.word	0x0800c409
 8004c2c:	20000004 	.word	0x20000004

08004c30 <HAL_RCC_GetPCLK2Freq>:
 8004c30:	4b04      	ldr	r3, [pc, #16]	@ (8004c44 <HAL_RCC_GetPCLK2Freq+0x14>)
 8004c32:	4a05      	ldr	r2, [pc, #20]	@ (8004c48 <HAL_RCC_GetPCLK2Freq+0x18>)
 8004c34:	689b      	ldr	r3, [r3, #8]
 8004c36:	f3c3 3342 	ubfx	r3, r3, #13, #3
 8004c3a:	5cd3      	ldrb	r3, [r2, r3]
 8004c3c:	4a03      	ldr	r2, [pc, #12]	@ (8004c4c <HAL_RCC_GetPCLK2Freq+0x1c>)
 8004c3e:	6810      	ldr	r0, [r2, #0]
 8004c40:	40d8      	lsrs	r0, r3
 8004c42:	4770      	bx	lr
 8004c44:	40023800 	.word	0x40023800
 8004c48:	0800c409 	.word	0x0800c409
 8004c4c:	20000004 	.word	0x20000004

08004c50 <HAL_RCC_GetClockConfig>:
 8004c50:	230f      	movs	r3, #15
 8004c52:	6003      	str	r3, [r0, #0]
 8004c54:	4b0b      	ldr	r3, [pc, #44]	@ (8004c84 <HAL_RCC_GetClockConfig+0x34>)
 8004c56:	689a      	ldr	r2, [r3, #8]
 8004c58:	f002 0203 	and.w	r2, r2, #3
 8004c5c:	6042      	str	r2, [r0, #4]
 8004c5e:	689a      	ldr	r2, [r3, #8]
 8004c60:	f002 02f0 	and.w	r2, r2, #240	@ 0xf0
 8004c64:	6082      	str	r2, [r0, #8]
 8004c66:	689a      	ldr	r2, [r3, #8]
 8004c68:	f402 52e0 	and.w	r2, r2, #7168	@ 0x1c00
 8004c6c:	60c2      	str	r2, [r0, #12]
 8004c6e:	689b      	ldr	r3, [r3, #8]
 8004c70:	08db      	lsrs	r3, r3, #3
 8004c72:	f403 53e0 	and.w	r3, r3, #7168	@ 0x1c00
 8004c76:	6103      	str	r3, [r0, #16]
 8004c78:	4b03      	ldr	r3, [pc, #12]	@ (8004c88 <HAL_RCC_GetClockConfig+0x38>)
 8004c7a:	681b      	ldr	r3, [r3, #0]
 8004c7c:	f003 0307 	and.w	r3, r3, #7
 8004c80:	600b      	str	r3, [r1, #0]
 8004c82:	4770      	bx	lr
 8004c84:	40023800 	.word	0x40023800
 8004c88:	40023c00 	.word	0x40023c00

08004c8c <HAL_TIM_Base_Start_IT>:
 8004c8c:	f890 303d 	ldrb.w	r3, [r0, #61]	@ 0x3d
 8004c90:	2b01      	cmp	r3, #1
 8004c92:	d128      	bne.n	8004ce6 <HAL_TIM_Base_Start_IT+0x5a>
 8004c94:	2302      	movs	r3, #2
 8004c96:	f880 303d 	strb.w	r3, [r0, #61]	@ 0x3d
 8004c9a:	6803      	ldr	r3, [r0, #0]
 8004c9c:	68da      	ldr	r2, [r3, #12]
 8004c9e:	f042 0201 	orr.w	r2, r2, #1
 8004ca2:	60da      	str	r2, [r3, #12]
 8004ca4:	4a11      	ldr	r2, [pc, #68]	@ (8004cec <HAL_TIM_Base_Start_IT+0x60>)
 8004ca6:	4293      	cmp	r3, r2
 8004ca8:	d012      	beq.n	8004cd0 <HAL_TIM_Base_Start_IT+0x44>
 8004caa:	f1b3 4f80 	cmp.w	r3, #1073741824	@ 0x40000000
 8004cae:	d00f      	beq.n	8004cd0 <HAL_TIM_Base_Start_IT+0x44>
 8004cb0:	f5a2 427c 	sub.w	r2, r2, #64512	@ 0xfc00
 8004cb4:	4293      	cmp	r3, r2
 8004cb6:	d00b      	beq.n	8004cd0 <HAL_TIM_Base_Start_IT+0x44>
 8004cb8:	f502 6280 	add.w	r2, r2, #1024	@ 0x400
 8004cbc:	4293      	cmp	r3, r2
 8004cbe:	d007      	beq.n	8004cd0 <HAL_TIM_Base_Start_IT+0x44>
 8004cc0:	f502 6280 	add.w	r2, r2, #1024	@ 0x400
 8004cc4:	4293      	cmp	r3, r2
 8004cc6:	d003      	beq.n	8004cd0 <HAL_TIM_Base_Start_IT+0x44>
 8004cc8:	f502 329a 	add.w	r2, r2, #78848	@ 0x13400
 8004ccc:	4293      	cmp	r3, r2
 8004cce:	d104      	bne.n	8004cda <HAL_TIM_Base_Start_IT+0x4e>
 8004cd0:	689a      	ldr	r2, [r3, #8]
 8004cd2:	f002 0207 	and.w	r2, r2, #7
 8004cd6:	2a06      	cmp	r2, #6
 8004cd8:	d003      	beq.n	8004ce2 <HAL_TIM_Base_Start_IT+0x56>
 8004cda:	681a      	ldr	r2, [r3, #0]
 8004cdc:	f042 0201 	orr.w	r2, r2, #1
 8004ce0:	601a      	str	r2, [r3, #0]
 8004ce2:	2000      	movs	r0, #0
 8004ce4:	4770      	bx	lr
 8004ce6:	2001      	movs	r0, #1
 8004ce8:	4770      	bx	lr
 8004cea:	bf00      	nop
 8004cec:	40010000 	.word	0x40010000

08004cf0 <HAL_TIM_Encoder_Start>:
 8004cf0:	b530      	push	{r4, r5, lr}
 8004cf2:	4603      	mov	r3, r0
 8004cf4:	f890 003e 	ldrb.w	r0, [r0, #62]	@ 0x3e
 8004cf8:	f893 203f 	ldrb.w	r2, [r3, #63]	@ 0x3f
 8004cfc:	f893 5042 	ldrb.w	r5, [r3, #66]	@ 0x42
 8004d00:	f893 4043 	ldrb.w	r4, [r3, #67]	@ 0x43
 8004d04:	b2c0      	uxtb	r0, r0
 8004d06:	b2d2      	uxtb	r2, r2
 8004d08:	b2ed      	uxtb	r5, r5
 8004d0a:	b2e4      	uxtb	r4, r4
 8004d0c:	b9c1      	cbnz	r1, 8004d40 <HAL_TIM_Encoder_Start+0x50>
 8004d0e:	2801      	cmp	r0, #1
 8004d10:	d145      	bne.n	8004d9e <HAL_TIM_Encoder_Start+0xae>
 8004d12:	2d01      	cmp	r5, #1
 8004d14:	d113      	bne.n	8004d3e <HAL_TIM_Encoder_Start+0x4e>
 8004d16:	2202      	movs	r2, #2
 8004d18:	f883 203e 	strb.w	r2, [r3, #62]	@ 0x3e
 8004d1c:	f883 2042 	strb.w	r2, [r3, #66]	@ 0x42
 8004d20:	681a      	ldr	r2, [r3, #0]
 8004d22:	6a11      	ldr	r1, [r2, #32]
 8004d24:	f021 0101 	bic.w	r1, r1, #1
 8004d28:	6211      	str	r1, [r2, #32]
 8004d2a:	6a11      	ldr	r1, [r2, #32]
 8004d2c:	f041 0101 	orr.w	r1, r1, #1
 8004d30:	6211      	str	r1, [r2, #32]
 8004d32:	681a      	ldr	r2, [r3, #0]
 8004d34:	6813      	ldr	r3, [r2, #0]
 8004d36:	f043 0301 	orr.w	r3, r3, #1
 8004d3a:	6013      	str	r3, [r2, #0]
 8004d3c:	2000      	movs	r0, #0
 8004d3e:	bd30      	pop	{r4, r5, pc}
 8004d40:	2904      	cmp	r1, #4
 8004d42:	d111      	bne.n	8004d68 <HAL_TIM_Encoder_Start+0x78>
 8004d44:	2a01      	cmp	r2, #1
 8004d46:	d12a      	bne.n	8004d9e <HAL_TIM_Encoder_Start+0xae>
 8004d48:	2c01      	cmp	r4, #1
 8004d4a:	d128      	bne.n	8004d9e <HAL_TIM_Encoder_Start+0xae>
 8004d4c:	2202      	movs	r2, #2
 8004d4e:	f883 203f 	strb.w	r2, [r3, #63]	@ 0x3f
 8004d52:	f883 2043 	strb.w	r2, [r3, #67]	@ 0x43
 8004d56:	681a      	ldr	r2, [r3, #0]
 8004d58:	6a11      	ldr	r1, [r2, #32]
 8004d5a:	f021 0110 	bic.w	r1, r1, #16
 8004d5e:	6211      	str	r1, [r2, #32]
 8004d60:	6a11      	ldr	r1, [r2, #32]
 8004d62:	f041 0110 	orr.w	r1, r1, #16
 8004d66:	e7e3      	b.n	8004d30 <HAL_TIM_Encoder_Start+0x40>
 8004d68:	2801      	cmp	r0, #1
 8004d6a:	d118      	bne.n	8004d9e <HAL_TIM_Encoder_Start+0xae>
 8004d6c:	2a01      	cmp	r2, #1
 8004d6e:	d1e6      	bne.n	8004d3e <HAL_TIM_Encoder_Start+0x4e>
 8004d70:	2d01      	cmp	r5, #1
 8004d72:	d1e4      	bne.n	8004d3e <HAL_TIM_Encoder_Start+0x4e>
 8004d74:	2c01      	cmp	r4, #1
 8004d76:	d1e2      	bne.n	8004d3e <HAL_TIM_Encoder_Start+0x4e>
 8004d78:	2202      	movs	r2, #2
 8004d7a:	f883 203e 	strb.w	r2, [r3, #62]	@ 0x3e
 8004d7e:	f883 203f 	strb.w	r2, [r3, #63]	@ 0x3f
 8004d82:	f883 2042 	strb.w	r2, [r3, #66]	@ 0x42
 8004d86:	f883 2043 	strb.w	r2, [r3, #67]	@ 0x43
 8004d8a:	681a      	ldr	r2, [r3, #0]
 8004d8c:	6a11      	ldr	r1, [r2, #32]
 8004d8e:	f021 0101 	bic.w	r1, r1, #1
 8004d92:	6211      	str	r1, [r2, #32]
 8004d94:	6a11      	ldr	r1, [r2, #32]
 8004d96:	f041 0101 	orr.w	r1, r1, #1
 8004d9a:	6211      	str	r1, [r2, #32]
 8004d9c:	e7dc      	b.n	8004d58 <HAL_TIM_Encoder_Start+0x68>
 8004d9e:	2001      	movs	r0, #1
 8004da0:	e7cd      	b.n	8004d3e <HAL_TIM_Encoder_Start+0x4e>

08004da2 <HAL_TIM_OC_DelayElapsedCallback>:
 8004da2:	4770      	bx	lr

08004da4 <HAL_TIM_IC_CaptureCallback>:
 8004da4:	4770      	bx	lr

08004da6 <HAL_TIM_PWM_PulseFinishedCallback>:
 8004da6:	4770      	bx	lr

08004da8 <HAL_TIM_TriggerCallback>:
 8004da8:	4770      	bx	lr

08004daa <HAL_TIM_IRQHandler>:
 8004daa:	6803      	ldr	r3, [r0, #0]
 8004dac:	b570      	push	{r4, r5, r6, lr}
 8004dae:	68dd      	ldr	r5, [r3, #12]
 8004db0:	691e      	ldr	r6, [r3, #16]
 8004db2:	07b1      	lsls	r1, r6, #30
 8004db4:	4604      	mov	r4, r0
 8004db6:	d50d      	bpl.n	8004dd4 <HAL_TIM_IRQHandler+0x2a>
 8004db8:	07aa      	lsls	r2, r5, #30
 8004dba:	d50b      	bpl.n	8004dd4 <HAL_TIM_IRQHandler+0x2a>
 8004dbc:	f06f 0202 	mvn.w	r2, #2
 8004dc0:	611a      	str	r2, [r3, #16]
 8004dc2:	2201      	movs	r2, #1
 8004dc4:	7702      	strb	r2, [r0, #28]
 8004dc6:	699b      	ldr	r3, [r3, #24]
 8004dc8:	079b      	lsls	r3, r3, #30
 8004dca:	d069      	beq.n	8004ea0 <HAL_TIM_IRQHandler+0xf6>
 8004dcc:	f7ff ffea 	bl	8004da4 <HAL_TIM_IC_CaptureCallback>
 8004dd0:	2300      	movs	r3, #0
 8004dd2:	7723      	strb	r3, [r4, #28]
 8004dd4:	0771      	lsls	r1, r6, #29
 8004dd6:	d510      	bpl.n	8004dfa <HAL_TIM_IRQHandler+0x50>
 8004dd8:	076a      	lsls	r2, r5, #29
 8004dda:	d50e      	bpl.n	8004dfa <HAL_TIM_IRQHandler+0x50>
 8004ddc:	6823      	ldr	r3, [r4, #0]
 8004dde:	f06f 0204 	mvn.w	r2, #4
 8004de2:	611a      	str	r2, [r3, #16]
 8004de4:	2202      	movs	r2, #2
 8004de6:	7722      	strb	r2, [r4, #28]
 8004de8:	699b      	ldr	r3, [r3, #24]
 8004dea:	f413 7f40 	tst.w	r3, #768	@ 0x300
 8004dee:	4620      	mov	r0, r4
 8004df0:	d05c      	beq.n	8004eac <HAL_TIM_IRQHandler+0x102>
 8004df2:	f7ff ffd7 	bl	8004da4 <HAL_TIM_IC_CaptureCallback>
 8004df6:	2300      	movs	r3, #0
 8004df8:	7723      	strb	r3, [r4, #28]
 8004dfa:	0733      	lsls	r3, r6, #28
 8004dfc:	d50f      	bpl.n	8004e1e <HAL_TIM_IRQHandler+0x74>
 8004dfe:	0728      	lsls	r0, r5, #28
 8004e00:	d50d      	bpl.n	8004e1e <HAL_TIM_IRQHandler+0x74>
 8004e02:	6823      	ldr	r3, [r4, #0]
 8004e04:	f06f 0208 	mvn.w	r2, #8
 8004e08:	611a      	str	r2, [r3, #16]
 8004e0a:	2204      	movs	r2, #4
 8004e0c:	7722      	strb	r2, [r4, #28]
 8004e0e:	69db      	ldr	r3, [r3, #28]
 8004e10:	0799      	lsls	r1, r3, #30
 8004e12:	4620      	mov	r0, r4
 8004e14:	d050      	beq.n	8004eb8 <HAL_TIM_IRQHandler+0x10e>
 8004e16:	f7ff ffc5 	bl	8004da4 <HAL_TIM_IC_CaptureCallback>
 8004e1a:	2300      	movs	r3, #0
 8004e1c:	7723      	strb	r3, [r4, #28]
 8004e1e:	06f2      	lsls	r2, r6, #27
 8004e20:	d510      	bpl.n	8004e44 <HAL_TIM_IRQHandler+0x9a>
 8004e22:	06eb      	lsls	r3, r5, #27
 8004e24:	d50e      	bpl.n	8004e44 <HAL_TIM_IRQHandler+0x9a>
 8004e26:	6823      	ldr	r3, [r4, #0]
 8004e28:	f06f 0210 	mvn.w	r2, #16
 8004e2c:	611a      	str	r2, [r3, #16]
 8004e2e:	2208      	movs	r2, #8
 8004e30:	7722      	strb	r2, [r4, #28]
 8004e32:	69db      	ldr	r3, [r3, #28]
 8004e34:	f413 7f40 	tst.w	r3, #768	@ 0x300
 8004e38:	4620      	mov	r0, r4
 8004e3a:	d043      	beq.n	8004ec4 <HAL_TIM_IRQHandler+0x11a>
 8004e3c:	f7ff ffb2 	bl	8004da4 <HAL_TIM_IC_CaptureCallback>
 8004e40:	2300      	movs	r3, #0
 8004e42:	7723      	strb	r3, [r4, #28]
 8004e44:	07f0      	lsls	r0, r6, #31
 8004e46:	d508      	bpl.n	8004e5a <HAL_TIM_IRQHandler+0xb0>
 8004e48:	07e9      	lsls	r1, r5, #31
 8004e4a:	d506      	bpl.n	8004e5a <HAL_TIM_IRQHandler+0xb0>
 8004e4c:	6823      	ldr	r3, [r4, #0]
 8004e4e:	f06f 0201 	mvn.w	r2, #1
 8004e52:	611a      	str	r2, [r3, #16]
 8004e54:	4620      	mov	r0, r4
 8004e56:	f7fd fa93 	bl	8002380 <HAL_TIM_PeriodElapsedCallback>
 8004e5a:	0632      	lsls	r2, r6, #24
 8004e5c:	d508      	bpl.n	8004e70 <HAL_TIM_IRQHandler+0xc6>
 8004e5e:	062b      	lsls	r3, r5, #24
 8004e60:	d506      	bpl.n	8004e70 <HAL_TIM_IRQHandler+0xc6>
 8004e62:	6823      	ldr	r3, [r4, #0]
 8004e64:	f06f 0280 	mvn.w	r2, #128	@ 0x80
 8004e68:	611a      	str	r2, [r3, #16]
 8004e6a:	4620      	mov	r0, r4
 8004e6c:	f000 f929 	bl	80050c2 <HAL_TIMEx_BreakCallback>
 8004e70:	0670      	lsls	r0, r6, #25
 8004e72:	d508      	bpl.n	8004e86 <HAL_TIM_IRQHandler+0xdc>
 8004e74:	0669      	lsls	r1, r5, #25
 8004e76:	d506      	bpl.n	8004e86 <HAL_TIM_IRQHandler+0xdc>
 8004e78:	6823      	ldr	r3, [r4, #0]
 8004e7a:	f06f 0240 	mvn.w	r2, #64	@ 0x40
 8004e7e:	611a      	str	r2, [r3, #16]
 8004e80:	4620      	mov	r0, r4
 8004e82:	f7ff ff91 	bl	8004da8 <HAL_TIM_TriggerCallback>
 8004e86:	06b2      	lsls	r2, r6, #26
 8004e88:	d522      	bpl.n	8004ed0 <HAL_TIM_IRQHandler+0x126>
 8004e8a:	06ab      	lsls	r3, r5, #26
 8004e8c:	d520      	bpl.n	8004ed0 <HAL_TIM_IRQHandler+0x126>
 8004e8e:	6823      	ldr	r3, [r4, #0]
 8004e90:	f06f 0220 	mvn.w	r2, #32
 8004e94:	4620      	mov	r0, r4
 8004e96:	611a      	str	r2, [r3, #16]
 8004e98:	e8bd 4070 	ldmia.w	sp!, {r4, r5, r6, lr}
 8004e9c:	f000 b910 	b.w	80050c0 <HAL_TIMEx_CommutCallback>
 8004ea0:	f7ff ff7f 	bl	8004da2 <HAL_TIM_OC_DelayElapsedCallback>
 8004ea4:	4620      	mov	r0, r4
 8004ea6:	f7ff ff7e 	bl	8004da6 <HAL_TIM_PWM_PulseFinishedCallback>
 8004eaa:	e791      	b.n	8004dd0 <HAL_TIM_IRQHandler+0x26>
 8004eac:	f7ff ff79 	bl	8004da2 <HAL_TIM_OC_DelayElapsedCallback>
 8004eb0:	4620      	mov	r0, r4
 8004eb2:	f7ff ff78 	bl	8004da6 <HAL_TIM_PWM_PulseFinishedCallback>
 8004eb6:	e79e      	b.n	8004df6 <HAL_TIM_IRQHandler+0x4c>
 8004eb8:	f7ff ff73 	bl	8004da2 <HAL_TIM_OC_DelayElapsedCallback>
 8004ebc:	4620      	mov	r0, r4
 8004ebe:	f7ff ff72 	bl	8004da6 <HAL_TIM_PWM_PulseFinishedCallback>
 8004ec2:	e7aa      	b.n	8004e1a <HAL_TIM_IRQHandler+0x70>
 8004ec4:	f7ff ff6d 	bl	8004da2 <HAL_TIM_OC_DelayElapsedCallback>
 8004ec8:	4620      	mov	r0, r4
 8004eca:	f7ff ff6c 	bl	8004da6 <HAL_TIM_PWM_PulseFinishedCallback>
 8004ece:	e7b7      	b.n	8004e40 <HAL_TIM_IRQHandler+0x96>
 8004ed0:	bd70      	pop	{r4, r5, r6, pc}
	...

08004ed4 <TIM_Base_SetConfig>:
 8004ed4:	4a1d      	ldr	r2, [pc, #116]	@ (8004f4c <TIM_Base_SetConfig+0x78>)
 8004ed6:	6803      	ldr	r3, [r0, #0]
 8004ed8:	4290      	cmp	r0, r2
 8004eda:	d00e      	beq.n	8004efa <TIM_Base_SetConfig+0x26>
 8004edc:	f1b0 4f80 	cmp.w	r0, #1073741824	@ 0x40000000
 8004ee0:	d00b      	beq.n	8004efa <TIM_Base_SetConfig+0x26>
 8004ee2:	f5a2 427c 	sub.w	r2, r2, #64512	@ 0xfc00
 8004ee6:	4290      	cmp	r0, r2
 8004ee8:	d007      	beq.n	8004efa <TIM_Base_SetConfig+0x26>
 8004eea:	f502 6280 	add.w	r2, r2, #1024	@ 0x400
 8004eee:	4290      	cmp	r0, r2
 8004ef0:	d003      	beq.n	8004efa <TIM_Base_SetConfig+0x26>
 8004ef2:	f502 6280 	add.w	r2, r2, #1024	@ 0x400
 8004ef6:	4290      	cmp	r0, r2
 8004ef8:	d108      	bne.n	8004f0c <TIM_Base_SetConfig+0x38>
 8004efa:	684a      	ldr	r2, [r1, #4]
 8004efc:	f023 0370 	bic.w	r3, r3, #112	@ 0x70
 8004f00:	4313      	orrs	r3, r2
 8004f02:	68ca      	ldr	r2, [r1, #12]
 8004f04:	f423 7340 	bic.w	r3, r3, #768	@ 0x300
 8004f08:	4313      	orrs	r3, r2
 8004f0a:	e00a      	b.n	8004f22 <TIM_Base_SetConfig+0x4e>
 8004f0c:	4a10      	ldr	r2, [pc, #64]	@ (8004f50 <TIM_Base_SetConfig+0x7c>)
 8004f0e:	4290      	cmp	r0, r2
 8004f10:	d0f7      	beq.n	8004f02 <TIM_Base_SetConfig+0x2e>
 8004f12:	f502 6280 	add.w	r2, r2, #1024	@ 0x400
 8004f16:	4290      	cmp	r0, r2
 8004f18:	d0f3      	beq.n	8004f02 <TIM_Base_SetConfig+0x2e>
 8004f1a:	f502 6280 	add.w	r2, r2, #1024	@ 0x400
 8004f1e:	4290      	cmp	r0, r2
 8004f20:	d0ef      	beq.n	8004f02 <TIM_Base_SetConfig+0x2e>
 8004f22:	694a      	ldr	r2, [r1, #20]
 8004f24:	f023 0380 	bic.w	r3, r3, #128	@ 0x80
 8004f28:	4313      	orrs	r3, r2
 8004f2a:	688a      	ldr	r2, [r1, #8]
 8004f2c:	62c2      	str	r2, [r0, #44]	@ 0x2c
 8004f2e:	680a      	ldr	r2, [r1, #0]
 8004f30:	6282      	str	r2, [r0, #40]	@ 0x28
 8004f32:	4a06      	ldr	r2, [pc, #24]	@ (8004f4c <TIM_Base_SetConfig+0x78>)
 8004f34:	4290      	cmp	r0, r2
 8004f36:	bf04      	itt	eq
 8004f38:	690a      	ldreq	r2, [r1, #16]
 8004f3a:	6302      	streq	r2, [r0, #48]	@ 0x30
 8004f3c:	6802      	ldr	r2, [r0, #0]
 8004f3e:	f042 0204 	orr.w	r2, r2, #4
 8004f42:	6002      	str	r2, [r0, #0]
 8004f44:	2201      	movs	r2, #1
 8004f46:	6142      	str	r2, [r0, #20]
 8004f48:	6003      	str	r3, [r0, #0]
 8004f4a:	4770      	bx	lr
 8004f4c:	40010000 	.word	0x40010000
 8004f50:	40014000 	.word	0x40014000

08004f54 <HAL_TIM_Base_Init>:
 8004f54:	b510      	push	{r4, lr}
 8004f56:	4604      	mov	r4, r0
 8004f58:	b330      	cbz	r0, 8004fa8 <HAL_TIM_Base_Init+0x54>
 8004f5a:	f890 303d 	ldrb.w	r3, [r0, #61]	@ 0x3d
 8004f5e:	f003 02ff 	and.w	r2, r3, #255	@ 0xff
 8004f62:	b91b      	cbnz	r3, 8004f6c <HAL_TIM_Base_Init+0x18>
 8004f64:	f880 203c 	strb.w	r2, [r0, #60]	@ 0x3c
 8004f68:	f7fd fcd2 	bl	8002910 <HAL_TIM_Base_MspInit>
 8004f6c:	2302      	movs	r3, #2
 8004f6e:	6820      	ldr	r0, [r4, #0]
 8004f70:	f884 303d 	strb.w	r3, [r4, #61]	@ 0x3d
 8004f74:	1d21      	adds	r1, r4, #4
 8004f76:	f7ff ffad 	bl	8004ed4 <TIM_Base_SetConfig>
 8004f7a:	2301      	movs	r3, #1
 8004f7c:	f884 3046 	strb.w	r3, [r4, #70]	@ 0x46
 8004f80:	2000      	movs	r0, #0
 8004f82:	f884 303e 	strb.w	r3, [r4, #62]	@ 0x3e
 8004f86:	f884 303f 	strb.w	r3, [r4, #63]	@ 0x3f
 8004f8a:	f884 3040 	strb.w	r3, [r4, #64]	@ 0x40
 8004f8e:	f884 3041 	strb.w	r3, [r4, #65]	@ 0x41
 8004f92:	f884 3042 	strb.w	r3, [r4, #66]	@ 0x42
 8004f96:	f884 3043 	strb.w	r3, [r4, #67]	@ 0x43
 8004f9a:	f884 3044 	strb.w	r3, [r4, #68]	@ 0x44
 8004f9e:	f884 3045 	strb.w	r3, [r4, #69]	@ 0x45
 8004fa2:	f884 303d 	strb.w	r3, [r4, #61]	@ 0x3d
 8004fa6:	bd10      	pop	{r4, pc}
 8004fa8:	2001      	movs	r0, #1
 8004faa:	e7fc      	b.n	8004fa6 <HAL_TIM_Base_Init+0x52>

08004fac <HAL_TIM_Encoder_Init>:
 8004fac:	b5f8      	push	{r3, r4, r5, r6, r7, lr}
 8004fae:	460d      	mov	r5, r1
 8004fb0:	4604      	mov	r4, r0
 8004fb2:	2800      	cmp	r0, #0
 8004fb4:	d04c      	beq.n	8005050 <HAL_TIM_Encoder_Init+0xa4>
 8004fb6:	f890 303d 	ldrb.w	r3, [r0, #61]	@ 0x3d
 8004fba:	f003 02ff 	and.w	r2, r3, #255	@ 0xff
 8004fbe:	b91b      	cbnz	r3, 8004fc8 <HAL_TIM_Encoder_Init+0x1c>
 8004fc0:	f880 203c 	strb.w	r2, [r0, #60]	@ 0x3c
 8004fc4:	f7fd fc24 	bl	8002810 <HAL_TIM_Encoder_MspInit>
 8004fc8:	4621      	mov	r1, r4
 8004fca:	2302      	movs	r3, #2
 8004fcc:	f884 303d 	strb.w	r3, [r4, #61]	@ 0x3d
 8004fd0:	f851 0b04 	ldr.w	r0, [r1], #4
 8004fd4:	6883      	ldr	r3, [r0, #8]
 8004fd6:	f423 4380 	bic.w	r3, r3, #16384	@ 0x4000
 8004fda:	f023 0307 	bic.w	r3, r3, #7
 8004fde:	6083      	str	r3, [r0, #8]
 8004fe0:	f7ff ff78 	bl	8004ed4 <TIM_Base_SetConfig>
 8004fe4:	6881      	ldr	r1, [r0, #8]
 8004fe6:	682a      	ldr	r2, [r5, #0]
 8004fe8:	6983      	ldr	r3, [r0, #24]
 8004fea:	69ae      	ldr	r6, [r5, #24]
 8004fec:	6a07      	ldr	r7, [r0, #32]
 8004fee:	4311      	orrs	r1, r2
 8004ff0:	68aa      	ldr	r2, [r5, #8]
 8004ff2:	f423 7340 	bic.w	r3, r3, #768	@ 0x300
 8004ff6:	f023 0303 	bic.w	r3, r3, #3
 8004ffa:	ea42 2206 	orr.w	r2, r2, r6, lsl #8
 8004ffe:	431a      	orrs	r2, r3
 8005000:	692b      	ldr	r3, [r5, #16]
 8005002:	69ee      	ldr	r6, [r5, #28]
 8005004:	011b      	lsls	r3, r3, #4
 8005006:	ea43 2306 	orr.w	r3, r3, r6, lsl #8
 800500a:	68ee      	ldr	r6, [r5, #12]
 800500c:	4333      	orrs	r3, r6
 800500e:	6a2e      	ldr	r6, [r5, #32]
 8005010:	f422 427c 	bic.w	r2, r2, #64512	@ 0xfc00
 8005014:	f022 02fc 	bic.w	r2, r2, #252	@ 0xfc
 8005018:	ea43 3306 	orr.w	r3, r3, r6, lsl #12
 800501c:	4313      	orrs	r3, r2
 800501e:	696e      	ldr	r6, [r5, #20]
 8005020:	686a      	ldr	r2, [r5, #4]
 8005022:	6081      	str	r1, [r0, #8]
 8005024:	f027 07aa 	bic.w	r7, r7, #170	@ 0xaa
 8005028:	ea42 1206 	orr.w	r2, r2, r6, lsl #4
 800502c:	6183      	str	r3, [r0, #24]
 800502e:	4317      	orrs	r7, r2
 8005030:	2301      	movs	r3, #1
 8005032:	6207      	str	r7, [r0, #32]
 8005034:	f884 3046 	strb.w	r3, [r4, #70]	@ 0x46
 8005038:	2000      	movs	r0, #0
 800503a:	f884 303e 	strb.w	r3, [r4, #62]	@ 0x3e
 800503e:	f884 303f 	strb.w	r3, [r4, #63]	@ 0x3f
 8005042:	f884 3042 	strb.w	r3, [r4, #66]	@ 0x42
 8005046:	f884 3043 	strb.w	r3, [r4, #67]	@ 0x43
 800504a:	f884 303d 	strb.w	r3, [r4, #61]	@ 0x3d
 800504e:	bdf8      	pop	{r3, r4, r5, r6, r7, pc}
 8005050:	2001      	movs	r0, #1
 8005052:	e7fc      	b.n	800504e <HAL_TIM_Encoder_Init+0xa2>

08005054 <HAL_TIMEx_MasterConfigSynchronization>:
 8005054:	b530      	push	{r4, r5, lr}
 8005056:	f890 303c 	ldrb.w	r3, [r0, #60]	@ 0x3c
 800505a:	2b01      	cmp	r3, #1
 800505c:	4602      	mov	r2, r0
 800505e:	f04f 0002 	mov.w	r0, #2
 8005062:	d02a      	beq.n	80050ba <HAL_TIMEx_MasterConfigSynchronization+0x66>
 8005064:	6813      	ldr	r3, [r2, #0]
 8005066:	f882 003d 	strb.w	r0, [r2, #61]	@ 0x3d
 800506a:	685c      	ldr	r4, [r3, #4]
 800506c:	680d      	ldr	r5, [r1, #0]
 800506e:	6898      	ldr	r0, [r3, #8]
 8005070:	f024 0470 	bic.w	r4, r4, #112	@ 0x70
 8005074:	432c      	orrs	r4, r5
 8005076:	605c      	str	r4, [r3, #4]
 8005078:	4c10      	ldr	r4, [pc, #64]	@ (80050bc <HAL_TIMEx_MasterConfigSynchronization+0x68>)
 800507a:	42a3      	cmp	r3, r4
 800507c:	d012      	beq.n	80050a4 <HAL_TIMEx_MasterConfigSynchronization+0x50>
 800507e:	f1b3 4f80 	cmp.w	r3, #1073741824	@ 0x40000000
 8005082:	d00f      	beq.n	80050a4 <HAL_TIMEx_MasterConfigSynchronization+0x50>
 8005084:	f5a4 447c 	sub.w	r4, r4, #64512	@ 0xfc00
 8005088:	42a3      	cmp	r3, r4
 800508a:	d00b      	beq.n	80050a4 <HAL_TIMEx_MasterConfigSynchronization+0x50>
 800508c:	f504 6480 	add.w	r4, r4, #1024	@ 0x400
 8005090:	42a3      	cmp	r3, r4
 8005092:	d007      	beq.n	80050a4 <HAL_TIMEx_MasterConfigSynchronization+0x50>
 8005094:	f504 6480 	add.w	r4, r4, #1024	@ 0x400
 8005098:	42a3      	cmp	r3, r4
 800509a:	d003      	beq.n	80050a4 <HAL_TIMEx_MasterConfigSynchronization+0x50>
 800509c:	f504 349a 	add.w	r4, r4, #78848	@ 0x13400
 80050a0:	42a3      	cmp	r3, r4
 80050a2:	d104      	bne.n	80050ae <HAL_TIMEx_MasterConfigSynchronization+0x5a>
 80050a4:	6849      	ldr	r1, [r1, #4]
 80050a6:	f020 0080 	bic.w	r0, r0, #128	@ 0x80
 80050aa:	4301      	orrs	r1, r0
 80050ac:	6099      	str	r1, [r3, #8]
 80050ae:	2301      	movs	r3, #1
 80050b0:	2000      	movs	r0, #0
 80050b2:	f882 303d 	strb.w	r3, [r2, #61]	@ 0x3d
 80050b6:	f882 003c 	strb.w	r0, [r2, #60]	@ 0x3c
 80050ba:	bd30      	pop	{r4, r5, pc}
 80050bc:	40010000 	.word	0x40010000

080050c0 <HAL_TIMEx_CommutCallback>:
 80050c0:	4770      	bx	lr

080050c2 <HAL_TIMEx_BreakCallback>:
 80050c2:	4770      	bx	lr

080050c4 <UART_EndRxTransfer>:
 80050c4:	6802      	ldr	r2, [r0, #0]
 80050c6:	f102 030c 	add.w	r3, r2, #12
 80050ca:	e853 3f00 	ldrex	r3, [r3]
 80050ce:	f423 7390 	bic.w	r3, r3, #288	@ 0x120
 80050d2:	320c      	adds	r2, #12
 80050d4:	e842 3100 	strex	r1, r3, [r2]
 80050d8:	6802      	ldr	r2, [r0, #0]
 80050da:	2900      	cmp	r1, #0
 80050dc:	d1f2      	bne.n	80050c4 <UART_EndRxTransfer>
 80050de:	f102 0314 	add.w	r3, r2, #20
 80050e2:	e853 3f00 	ldrex	r3, [r3]
 80050e6:	f023 0301 	bic.w	r3, r3, #1
 80050ea:	f102 0c14 	add.w	ip, r2, #20
 80050ee:	e84c 3100 	strex	r1, r3, [ip]
 80050f2:	2900      	cmp	r1, #0
 80050f4:	d1f3      	bne.n	80050de <UART_EndRxTransfer+0x1a>
 80050f6:	6b03      	ldr	r3, [r0, #48]	@ 0x30
 80050f8:	2b01      	cmp	r3, #1
 80050fa:	d10b      	bne.n	8005114 <UART_EndRxTransfer+0x50>
 80050fc:	f102 030c 	add.w	r3, r2, #12
 8005100:	e853 3f00 	ldrex	r3, [r3]
 8005104:	f023 0310 	bic.w	r3, r3, #16
 8005108:	f102 0c0c 	add.w	ip, r2, #12
 800510c:	e84c 3100 	strex	r1, r3, [ip]
 8005110:	2900      	cmp	r1, #0
 8005112:	d1f3      	bne.n	80050fc <UART_EndRxTransfer+0x38>
 8005114:	2320      	movs	r3, #32
 8005116:	f880 3042 	strb.w	r3, [r0, #66]	@ 0x42
 800511a:	2300      	movs	r3, #0
 800511c:	6303      	str	r3, [r0, #48]	@ 0x30
 800511e:	4770      	bx	lr

08005120 <UART_SetConfig>:
 8005120:	6802      	ldr	r2, [r0, #0]
 8005122:	68c1      	ldr	r1, [r0, #12]
 8005124:	b538      	push	{r3, r4, r5, lr}
 8005126:	6913      	ldr	r3, [r2, #16]
 8005128:	f423 5340 	bic.w	r3, r3, #12288	@ 0x3000
 800512c:	430b      	orrs	r3, r1
 800512e:	6113      	str	r3, [r2, #16]
 8005130:	4605      	mov	r5, r0
 8005132:	6883      	ldr	r3, [r0, #8]
 8005134:	6900      	ldr	r0, [r0, #16]
 8005136:	68d1      	ldr	r1, [r2, #12]
 8005138:	4303      	orrs	r3, r0
 800513a:	6968      	ldr	r0, [r5, #20]
 800513c:	4303      	orrs	r3, r0
 800513e:	69e8      	ldr	r0, [r5, #28]
 8005140:	f421 4116 	bic.w	r1, r1, #38400	@ 0x9600
 8005144:	f021 010c 	bic.w	r1, r1, #12
 8005148:	4303      	orrs	r3, r0
 800514a:	430b      	orrs	r3, r1
 800514c:	60d3      	str	r3, [r2, #12]
 800514e:	6953      	ldr	r3, [r2, #20]
 8005150:	69a9      	ldr	r1, [r5, #24]
 8005152:	f423 7340 	bic.w	r3, r3, #768	@ 0x300
 8005156:	430b      	orrs	r3, r1
 8005158:	6153      	str	r3, [r2, #20]
 800515a:	4b1f      	ldr	r3, [pc, #124]	@ (80051d8 <UART_SetConfig+0xb8>)
 800515c:	429a      	cmp	r2, r3
 800515e:	d003      	beq.n	8005168 <UART_SetConfig+0x48>
 8005160:	f503 6380 	add.w	r3, r3, #1024	@ 0x400
 8005164:	429a      	cmp	r2, r3
 8005166:	d124      	bne.n	80051b2 <UART_SetConfig+0x92>
 8005168:	f7ff fd62 	bl	8004c30 <HAL_RCC_GetPCLK2Freq>
 800516c:	69ea      	ldr	r2, [r5, #28]
 800516e:	2119      	movs	r1, #25
 8005170:	f5b2 4f00 	cmp.w	r2, #32768	@ 0x8000
 8005174:	e9d5 4300 	ldrd	r4, r3, [r5]
 8005178:	fba0 0101 	umull	r0, r1, r0, r1
 800517c:	d11c      	bne.n	80051b8 <UART_SetConfig+0x98>
 800517e:	18da      	adds	r2, r3, r3
 8005180:	f04f 0500 	mov.w	r5, #0
 8005184:	eb45 0305 	adc.w	r3, r5, r5
 8005188:	f7fb fd66 	bl	8000c58 <__aeabi_uldivmod>
 800518c:	2264      	movs	r2, #100	@ 0x64
 800518e:	fbb0 f1f2 	udiv	r1, r0, r2
 8005192:	fb02 0311 	mls	r3, r2, r1, r0
 8005196:	00db      	lsls	r3, r3, #3
 8005198:	3332      	adds	r3, #50	@ 0x32
 800519a:	fbb3 f3f2 	udiv	r3, r3, r2
 800519e:	f003 0207 	and.w	r2, r3, #7
 80051a2:	005b      	lsls	r3, r3, #1
 80051a4:	eb02 1201 	add.w	r2, r2, r1, lsl #4
 80051a8:	f403 73f8 	and.w	r3, r3, #496	@ 0x1f0
 80051ac:	4413      	add	r3, r2
 80051ae:	60a3      	str	r3, [r4, #8]
 80051b0:	bd38      	pop	{r3, r4, r5, pc}
 80051b2:	f7ff fd2d 	bl	8004c10 <HAL_RCC_GetPCLK1Freq>
 80051b6:	e7d9      	b.n	800516c <UART_SetConfig+0x4c>
 80051b8:	009a      	lsls	r2, r3, #2
 80051ba:	0f9b      	lsrs	r3, r3, #30
 80051bc:	f7fb fd4c 	bl	8000c58 <__aeabi_uldivmod>
 80051c0:	2264      	movs	r2, #100	@ 0x64
 80051c2:	fbb0 f1f2 	udiv	r1, r0, r2
 80051c6:	fb02 0311 	mls	r3, r2, r1, r0
 80051ca:	011b      	lsls	r3, r3, #4
 80051cc:	3332      	adds	r3, #50	@ 0x32
 80051ce:	fbb3 f3f2 	udiv	r3, r3, r2
 80051d2:	eb03 1301 	add.w	r3, r3, r1, lsl #4
 80051d6:	e7ea      	b.n	80051ae <UART_SetConfig+0x8e>
 80051d8:	40011000 	.word	0x40011000

080051dc <HAL_UART_Init>:
 80051dc:	b510      	push	{r4, lr}
 80051de:	4604      	mov	r4, r0
 80051e0:	b348      	cbz	r0, 8005236 <HAL_UART_Init+0x5a>
 80051e2:	f890 3041 	ldrb.w	r3, [r0, #65]	@ 0x41
 80051e6:	f003 02ff 	and.w	r2, r3, #255	@ 0xff
 80051ea:	b91b      	cbnz	r3, 80051f4 <HAL_UART_Init+0x18>
 80051ec:	f880 2040 	strb.w	r2, [r0, #64]	@ 0x40
 80051f0:	f7fd fbb0 	bl	8002954 <HAL_UART_MspInit>
 80051f4:	6822      	ldr	r2, [r4, #0]
 80051f6:	2324      	movs	r3, #36	@ 0x24
 80051f8:	f884 3041 	strb.w	r3, [r4, #65]	@ 0x41
 80051fc:	68d3      	ldr	r3, [r2, #12]
 80051fe:	f423 5300 	bic.w	r3, r3, #8192	@ 0x2000
 8005202:	60d3      	str	r3, [r2, #12]
 8005204:	4620      	mov	r0, r4
 8005206:	f7ff ff8b 	bl	8005120 <UART_SetConfig>
 800520a:	6823      	ldr	r3, [r4, #0]
 800520c:	691a      	ldr	r2, [r3, #16]
 800520e:	f422 4290 	bic.w	r2, r2, #18432	@ 0x4800
 8005212:	611a      	str	r2, [r3, #16]
 8005214:	695a      	ldr	r2, [r3, #20]
 8005216:	f022 022a 	bic.w	r2, r2, #42	@ 0x2a
 800521a:	615a      	str	r2, [r3, #20]
 800521c:	68da      	ldr	r2, [r3, #12]
 800521e:	f442 5200 	orr.w	r2, r2, #8192	@ 0x2000
 8005222:	60da      	str	r2, [r3, #12]
 8005224:	2000      	movs	r0, #0
 8005226:	2320      	movs	r3, #32
 8005228:	6460      	str	r0, [r4, #68]	@ 0x44
 800522a:	f884 3041 	strb.w	r3, [r4, #65]	@ 0x41
 800522e:	f884 3042 	strb.w	r3, [r4, #66]	@ 0x42
 8005232:	6360      	str	r0, [r4, #52]	@ 0x34
 8005234:	bd10      	pop	{r4, pc}
 8005236:	2001      	movs	r0, #1
 8005238:	e7fc      	b.n	8005234 <HAL_UART_Init+0x58>
	...

0800523c <HAL_UART_Transmit_DMA>:
 800523c:	b570      	push	{r4, r5, r6, lr}
 800523e:	4604      	mov	r4, r0
 8005240:	4613      	mov	r3, r2
 8005242:	f894 2041 	ldrb.w	r2, [r4, #65]	@ 0x41
 8005246:	2a20      	cmp	r2, #32
 8005248:	b2d5      	uxtb	r5, r2
 800524a:	d12e      	bne.n	80052aa <HAL_UART_Transmit_DMA+0x6e>
 800524c:	b1c9      	cbz	r1, 8005282 <HAL_UART_Transmit_DMA+0x46>
 800524e:	b1c3      	cbz	r3, 8005282 <HAL_UART_Transmit_DMA+0x46>
 8005250:	2200      	movs	r2, #0
 8005252:	2021      	movs	r0, #33	@ 0x21
 8005254:	84e3      	strh	r3, [r4, #38]	@ 0x26
 8005256:	6462      	str	r2, [r4, #68]	@ 0x44
 8005258:	f884 0041 	strb.w	r0, [r4, #65]	@ 0x41
 800525c:	6ba0      	ldr	r0, [r4, #56]	@ 0x38
 800525e:	4e14      	ldr	r6, [pc, #80]	@ (80052b0 <HAL_UART_Transmit_DMA+0x74>)
 8005260:	6221      	str	r1, [r4, #32]
 8005262:	84a3      	strh	r3, [r4, #36]	@ 0x24
 8005264:	63c6      	str	r6, [r0, #60]	@ 0x3c
 8005266:	4e13      	ldr	r6, [pc, #76]	@ (80052b4 <HAL_UART_Transmit_DMA+0x78>)
 8005268:	6406      	str	r6, [r0, #64]	@ 0x40
 800526a:	4e13      	ldr	r6, [pc, #76]	@ (80052b8 <HAL_UART_Transmit_DMA+0x7c>)
 800526c:	e9c0 6213 	strd	r6, r2, [r0, #76]	@ 0x4c
 8005270:	6822      	ldr	r2, [r4, #0]
 8005272:	3204      	adds	r2, #4
 8005274:	f7fd fe10 	bl	8002e98 <HAL_DMA_Start_IT>
 8005278:	b128      	cbz	r0, 8005286 <HAL_UART_Transmit_DMA+0x4a>
 800527a:	2310      	movs	r3, #16
 800527c:	6463      	str	r3, [r4, #68]	@ 0x44
 800527e:	f884 5041 	strb.w	r5, [r4, #65]	@ 0x41
 8005282:	2001      	movs	r0, #1
 8005284:	bd70      	pop	{r4, r5, r6, pc}
 8005286:	6823      	ldr	r3, [r4, #0]
 8005288:	f06f 0240 	mvn.w	r2, #64	@ 0x40
 800528c:	601a      	str	r2, [r3, #0]
 800528e:	6822      	ldr	r2, [r4, #0]
 8005290:	f102 0314 	add.w	r3, r2, #20
 8005294:	e853 3f00 	ldrex	r3, [r3]
 8005298:	f043 0380 	orr.w	r3, r3, #128	@ 0x80
 800529c:	f102 0414 	add.w	r4, r2, #20
 80052a0:	e844 3100 	strex	r1, r3, [r4]
 80052a4:	2900      	cmp	r1, #0
 80052a6:	d1f3      	bne.n	8005290 <HAL_UART_Transmit_DMA+0x54>
 80052a8:	e7ec      	b.n	8005284 <HAL_UART_Transmit_DMA+0x48>
 80052aa:	2002      	movs	r0, #2
 80052ac:	e7ea      	b.n	8005284 <HAL_UART_Transmit_DMA+0x48>
 80052ae:	bf00      	nop
 80052b0:	0800534b 	.word	0x0800534b
 80052b4:	08005399 	.word	0x08005399
 80052b8:	080053a9 	.word	0x080053a9

080052bc <HAL_UART_DMAStop>:
 80052bc:	b510      	push	{r4, lr}
 80052be:	6802      	ldr	r2, [r0, #0]
 80052c0:	6953      	ldr	r3, [r2, #20]
 80052c2:	f890 1041 	ldrb.w	r1, [r0, #65]	@ 0x41
 80052c6:	2921      	cmp	r1, #33	@ 0x21
 80052c8:	4604      	mov	r4, r0
 80052ca:	d120      	bne.n	800530e <HAL_UART_DMAStop+0x52>
 80052cc:	0619      	lsls	r1, r3, #24
 80052ce:	d51e      	bpl.n	800530e <HAL_UART_DMAStop+0x52>
 80052d0:	f102 0314 	add.w	r3, r2, #20
 80052d4:	e853 3f00 	ldrex	r3, [r3]
 80052d8:	f023 0380 	bic.w	r3, r3, #128	@ 0x80
 80052dc:	f102 0014 	add.w	r0, r2, #20
 80052e0:	e840 3100 	strex	r1, r3, [r0]
 80052e4:	2900      	cmp	r1, #0
 80052e6:	d1f3      	bne.n	80052d0 <HAL_UART_DMAStop+0x14>
 80052e8:	6ba0      	ldr	r0, [r4, #56]	@ 0x38
 80052ea:	b108      	cbz	r0, 80052f0 <HAL_UART_DMAStop+0x34>
 80052ec:	f7fd fe0d 	bl	8002f0a <HAL_DMA_Abort>
 80052f0:	6822      	ldr	r2, [r4, #0]
 80052f2:	f102 030c 	add.w	r3, r2, #12
 80052f6:	e853 3f00 	ldrex	r3, [r3]
 80052fa:	f023 03c0 	bic.w	r3, r3, #192	@ 0xc0
 80052fe:	320c      	adds	r2, #12
 8005300:	e842 3100 	strex	r1, r3, [r2]
 8005304:	2900      	cmp	r1, #0
 8005306:	d1f3      	bne.n	80052f0 <HAL_UART_DMAStop+0x34>
 8005308:	2320      	movs	r3, #32
 800530a:	f884 3041 	strb.w	r3, [r4, #65]	@ 0x41
 800530e:	6822      	ldr	r2, [r4, #0]
 8005310:	6953      	ldr	r3, [r2, #20]
 8005312:	f894 1042 	ldrb.w	r1, [r4, #66]	@ 0x42
 8005316:	2922      	cmp	r1, #34	@ 0x22
 8005318:	d114      	bne.n	8005344 <HAL_UART_DMAStop+0x88>
 800531a:	065b      	lsls	r3, r3, #25
 800531c:	d512      	bpl.n	8005344 <HAL_UART_DMAStop+0x88>
 800531e:	f102 0314 	add.w	r3, r2, #20
 8005322:	e853 3f00 	ldrex	r3, [r3]
 8005326:	f023 0340 	bic.w	r3, r3, #64	@ 0x40
 800532a:	f102 0014 	add.w	r0, r2, #20
 800532e:	e840 3100 	strex	r1, r3, [r0]
 8005332:	2900      	cmp	r1, #0
 8005334:	d1f3      	bne.n	800531e <HAL_UART_DMAStop+0x62>
 8005336:	6be0      	ldr	r0, [r4, #60]	@ 0x3c
 8005338:	b108      	cbz	r0, 800533e <HAL_UART_DMAStop+0x82>
 800533a:	f7fd fde6 	bl	8002f0a <HAL_DMA_Abort>
 800533e:	4620      	mov	r0, r4
 8005340:	f7ff fec0 	bl	80050c4 <UART_EndRxTransfer>
 8005344:	2000      	movs	r0, #0
 8005346:	bd10      	pop	{r4, pc}

08005348 <HAL_UART_TxCpltCallback>:
 8005348:	4770      	bx	lr

0800534a <UART_DMATransmitCplt>:
 800534a:	b508      	push	{r3, lr}
 800534c:	4603      	mov	r3, r0
 800534e:	6b80      	ldr	r0, [r0, #56]	@ 0x38
 8005350:	681b      	ldr	r3, [r3, #0]
 8005352:	681b      	ldr	r3, [r3, #0]
 8005354:	f413 7380 	ands.w	r3, r3, #256	@ 0x100
 8005358:	d11a      	bne.n	8005390 <UART_DMATransmitCplt+0x46>
 800535a:	84c3      	strh	r3, [r0, #38]	@ 0x26
 800535c:	6802      	ldr	r2, [r0, #0]
 800535e:	f102 0314 	add.w	r3, r2, #20
 8005362:	e853 3f00 	ldrex	r3, [r3]
 8005366:	f023 0380 	bic.w	r3, r3, #128	@ 0x80
 800536a:	3214      	adds	r2, #20
 800536c:	e842 3100 	strex	r1, r3, [r2]
 8005370:	6802      	ldr	r2, [r0, #0]
 8005372:	2900      	cmp	r1, #0
 8005374:	d1f2      	bne.n	800535c <UART_DMATransmitCplt+0x12>
 8005376:	f102 030c 	add.w	r3, r2, #12
 800537a:	e853 3f00 	ldrex	r3, [r3]
 800537e:	f043 0340 	orr.w	r3, r3, #64	@ 0x40
 8005382:	f102 000c 	add.w	r0, r2, #12
 8005386:	e840 3100 	strex	r1, r3, [r0]
 800538a:	2900      	cmp	r1, #0
 800538c:	d1f3      	bne.n	8005376 <UART_DMATransmitCplt+0x2c>
 800538e:	bd08      	pop	{r3, pc}
 8005390:	f7ff ffda 	bl	8005348 <HAL_UART_TxCpltCallback>
 8005394:	e7fb      	b.n	800538e <UART_DMATransmitCplt+0x44>

08005396 <HAL_UART_TxHalfCpltCallback>:
 8005396:	4770      	bx	lr

08005398 <UART_DMATxHalfCplt>:
 8005398:	b508      	push	{r3, lr}
 800539a:	6b80      	ldr	r0, [r0, #56]	@ 0x38
 800539c:	f7ff fffb 	bl	8005396 <HAL_UART_TxHalfCpltCallback>
 80053a0:	bd08      	pop	{r3, pc}

080053a2 <HAL_UART_RxCpltCallback>:
 80053a2:	4770      	bx	lr

080053a4 <HAL_UART_RxHalfCpltCallback>:
 80053a4:	4770      	bx	lr

080053a6 <HAL_UART_ErrorCallback>:
 80053a6:	4770      	bx	lr

080053a8 <UART_DMAError>:
 80053a8:	b508      	push	{r3, lr}
 80053aa:	6b80      	ldr	r0, [r0, #56]	@ 0x38
 80053ac:	6803      	ldr	r3, [r0, #0]
 80053ae:	695a      	ldr	r2, [r3, #20]
 80053b0:	f890 1041 	ldrb.w	r1, [r0, #65]	@ 0x41
 80053b4:	2921      	cmp	r1, #33	@ 0x21
 80053b6:	d112      	bne.n	80053de <UART_DMAError+0x36>
 80053b8:	0612      	lsls	r2, r2, #24
 80053ba:	d510      	bpl.n	80053de <UART_DMAError+0x36>
 80053bc:	2200      	movs	r2, #0
 80053be:	84c2      	strh	r2, [r0, #38]	@ 0x26
 80053c0:	f103 020c 	add.w	r2, r3, #12
 80053c4:	e852 2f00 	ldrex	r2, [r2]
 80053c8:	f022 02c0 	bic.w	r2, r2, #192	@ 0xc0
 80053cc:	f103 0c0c 	add.w	ip, r3, #12
 80053d0:	e84c 2100 	strex	r1, r2, [ip]
 80053d4:	2900      	cmp	r1, #0
 80053d6:	d1f3      	bne.n	80053c0 <UART_DMAError+0x18>
 80053d8:	2220      	movs	r2, #32
 80053da:	f880 2041 	strb.w	r2, [r0, #65]	@ 0x41
 80053de:	695b      	ldr	r3, [r3, #20]
 80053e0:	f890 2042 	ldrb.w	r2, [r0, #66]	@ 0x42
 80053e4:	2a22      	cmp	r2, #34	@ 0x22
 80053e6:	d105      	bne.n	80053f4 <UART_DMAError+0x4c>
 80053e8:	065b      	lsls	r3, r3, #25
 80053ea:	d503      	bpl.n	80053f4 <UART_DMAError+0x4c>
 80053ec:	2300      	movs	r3, #0
 80053ee:	85c3      	strh	r3, [r0, #46]	@ 0x2e
 80053f0:	f7ff fe68 	bl	80050c4 <UART_EndRxTransfer>
 80053f4:	6c43      	ldr	r3, [r0, #68]	@ 0x44
 80053f6:	f043 0310 	orr.w	r3, r3, #16
 80053fa:	6443      	str	r3, [r0, #68]	@ 0x44
 80053fc:	f7ff ffd3 	bl	80053a6 <HAL_UART_ErrorCallback>
 8005400:	bd08      	pop	{r3, pc}

08005402 <UART_DMAAbortOnError>:
 8005402:	b508      	push	{r3, lr}
 8005404:	6b80      	ldr	r0, [r0, #56]	@ 0x38
 8005406:	2300      	movs	r3, #0
 8005408:	85c3      	strh	r3, [r0, #46]	@ 0x2e
 800540a:	f7ff ffcc 	bl	80053a6 <HAL_UART_ErrorCallback>
 800540e:	bd08      	pop	{r3, pc}

08005410 <HAL_UARTEx_RxEventCallback>:
 8005410:	4770      	bx	lr

08005412 <UART_DMARxHalfCplt>:
 8005412:	6b80      	ldr	r0, [r0, #56]	@ 0x38
 8005414:	b508      	push	{r3, lr}
 8005416:	2301      	movs	r3, #1
 8005418:	6343      	str	r3, [r0, #52]	@ 0x34
 800541a:	6b03      	ldr	r3, [r0, #48]	@ 0x30
 800541c:	2b01      	cmp	r3, #1
 800541e:	d104      	bne.n	800542a <UART_DMARxHalfCplt+0x18>
 8005420:	8d81      	ldrh	r1, [r0, #44]	@ 0x2c
 8005422:	0849      	lsrs	r1, r1, #1
 8005424:	f7ff fff4 	bl	8005410 <HAL_UARTEx_RxEventCallback>
 8005428:	bd08      	pop	{r3, pc}
 800542a:	f7ff ffbb 	bl	80053a4 <HAL_UART_RxHalfCpltCallback>
 800542e:	e7fb      	b.n	8005428 <UART_DMARxHalfCplt+0x16>

08005430 <UART_DMAReceiveCplt>:
 8005430:	b508      	push	{r3, lr}
 8005432:	4603      	mov	r3, r0
 8005434:	6b80      	ldr	r0, [r0, #56]	@ 0x38
 8005436:	681b      	ldr	r3, [r3, #0]
 8005438:	681b      	ldr	r3, [r3, #0]
 800543a:	f413 7380 	ands.w	r3, r3, #256	@ 0x100
 800543e:	d137      	bne.n	80054b0 <UART_DMAReceiveCplt+0x80>
 8005440:	85c3      	strh	r3, [r0, #46]	@ 0x2e
 8005442:	6802      	ldr	r2, [r0, #0]
 8005444:	f102 030c 	add.w	r3, r2, #12
 8005448:	e853 3f00 	ldrex	r3, [r3]
 800544c:	f423 7380 	bic.w	r3, r3, #256	@ 0x100
 8005450:	320c      	adds	r2, #12
 8005452:	e842 3100 	strex	r1, r3, [r2]
 8005456:	6803      	ldr	r3, [r0, #0]
 8005458:	2900      	cmp	r1, #0
 800545a:	d1f2      	bne.n	8005442 <UART_DMAReceiveCplt+0x12>
 800545c:	f103 0214 	add.w	r2, r3, #20
 8005460:	e852 2f00 	ldrex	r2, [r2]
 8005464:	f022 0201 	bic.w	r2, r2, #1
 8005468:	f103 0c14 	add.w	ip, r3, #20
 800546c:	e84c 2100 	strex	r1, r2, [ip]
 8005470:	2900      	cmp	r1, #0
 8005472:	d1f3      	bne.n	800545c <UART_DMAReceiveCplt+0x2c>
 8005474:	f103 0214 	add.w	r2, r3, #20
 8005478:	e852 2f00 	ldrex	r2, [r2]
 800547c:	f022 0240 	bic.w	r2, r2, #64	@ 0x40
 8005480:	f103 0c14 	add.w	ip, r3, #20
 8005484:	e84c 2100 	strex	r1, r2, [ip]
 8005488:	2900      	cmp	r1, #0
 800548a:	d1f3      	bne.n	8005474 <UART_DMAReceiveCplt+0x44>
 800548c:	2220      	movs	r2, #32
 800548e:	f880 2042 	strb.w	r2, [r0, #66]	@ 0x42
 8005492:	6b02      	ldr	r2, [r0, #48]	@ 0x30
 8005494:	2a01      	cmp	r2, #1
 8005496:	d10b      	bne.n	80054b0 <UART_DMAReceiveCplt+0x80>
 8005498:	f103 020c 	add.w	r2, r3, #12
 800549c:	e852 2f00 	ldrex	r2, [r2]
 80054a0:	f022 0210 	bic.w	r2, r2, #16
 80054a4:	f103 0c0c 	add.w	ip, r3, #12
 80054a8:	e84c 2100 	strex	r1, r2, [ip]
 80054ac:	2900      	cmp	r1, #0
 80054ae:	d1f3      	bne.n	8005498 <UART_DMAReceiveCplt+0x68>
 80054b0:	2300      	movs	r3, #0
 80054b2:	6343      	str	r3, [r0, #52]	@ 0x34
 80054b4:	6b03      	ldr	r3, [r0, #48]	@ 0x30
 80054b6:	2b01      	cmp	r3, #1
 80054b8:	d103      	bne.n	80054c2 <UART_DMAReceiveCplt+0x92>
 80054ba:	8d81      	ldrh	r1, [r0, #44]	@ 0x2c
 80054bc:	f7ff ffa8 	bl	8005410 <HAL_UARTEx_RxEventCallback>
 80054c0:	bd08      	pop	{r3, pc}
 80054c2:	f7ff ff6e 	bl	80053a2 <HAL_UART_RxCpltCallback>
 80054c6:	e7fb      	b.n	80054c0 <UART_DMAReceiveCplt+0x90>

080054c8 <UART_Receive_IT.isra.0>:
 80054c8:	f890 3042 	ldrb.w	r3, [r0, #66]	@ 0x42
 80054cc:	2b22      	cmp	r3, #34	@ 0x22
 80054ce:	b507      	push	{r0, r1, r2, lr}
 80054d0:	d142      	bne.n	8005558 <UART_Receive_IT.isra.0+0x90>
 80054d2:	6881      	ldr	r1, [r0, #8]
 80054d4:	6802      	ldr	r2, [r0, #0]
 80054d6:	6a83      	ldr	r3, [r0, #40]	@ 0x28
 80054d8:	f5b1 5f80 	cmp.w	r1, #4096	@ 0x1000
 80054dc:	d13f      	bne.n	800555e <UART_Receive_IT.isra.0+0x96>
 80054de:	6901      	ldr	r1, [r0, #16]
 80054e0:	2900      	cmp	r1, #0
 80054e2:	d13f      	bne.n	8005564 <UART_Receive_IT.isra.0+0x9c>
 80054e4:	6852      	ldr	r2, [r2, #4]
 80054e6:	f3c2 0208 	ubfx	r2, r2, #0, #9
 80054ea:	f823 2b02 	strh.w	r2, [r3], #2
 80054ee:	6283      	str	r3, [r0, #40]	@ 0x28
 80054f0:	8dc3      	ldrh	r3, [r0, #46]	@ 0x2e
 80054f2:	3b01      	subs	r3, #1
 80054f4:	b29b      	uxth	r3, r3
 80054f6:	85c3      	strh	r3, [r0, #46]	@ 0x2e
 80054f8:	2b00      	cmp	r3, #0
 80054fa:	d12d      	bne.n	8005558 <UART_Receive_IT.isra.0+0x90>
 80054fc:	6802      	ldr	r2, [r0, #0]
 80054fe:	68d1      	ldr	r1, [r2, #12]
 8005500:	f021 0120 	bic.w	r1, r1, #32
 8005504:	60d1      	str	r1, [r2, #12]
 8005506:	68d1      	ldr	r1, [r2, #12]
 8005508:	f421 7180 	bic.w	r1, r1, #256	@ 0x100
 800550c:	60d1      	str	r1, [r2, #12]
 800550e:	6951      	ldr	r1, [r2, #20]
 8005510:	f021 0101 	bic.w	r1, r1, #1
 8005514:	6151      	str	r1, [r2, #20]
 8005516:	2220      	movs	r2, #32
 8005518:	f880 2042 	strb.w	r2, [r0, #66]	@ 0x42
 800551c:	6343      	str	r3, [r0, #52]	@ 0x34
 800551e:	6b02      	ldr	r2, [r0, #48]	@ 0x30
 8005520:	2a01      	cmp	r2, #1
 8005522:	6802      	ldr	r2, [r0, #0]
 8005524:	d128      	bne.n	8005578 <UART_Receive_IT.isra.0+0xb0>
 8005526:	6303      	str	r3, [r0, #48]	@ 0x30
 8005528:	f102 030c 	add.w	r3, r2, #12
 800552c:	e853 3f00 	ldrex	r3, [r3]
 8005530:	f023 0310 	bic.w	r3, r3, #16
 8005534:	f102 0c0c 	add.w	ip, r2, #12
 8005538:	e84c 3100 	strex	r1, r3, [ip]
 800553c:	2900      	cmp	r1, #0
 800553e:	d1f3      	bne.n	8005528 <UART_Receive_IT.isra.0+0x60>
 8005540:	6813      	ldr	r3, [r2, #0]
 8005542:	06db      	lsls	r3, r3, #27
 8005544:	d505      	bpl.n	8005552 <UART_Receive_IT.isra.0+0x8a>
 8005546:	9101      	str	r1, [sp, #4]
 8005548:	6813      	ldr	r3, [r2, #0]
 800554a:	9301      	str	r3, [sp, #4]
 800554c:	6853      	ldr	r3, [r2, #4]
 800554e:	9301      	str	r3, [sp, #4]
 8005550:	9b01      	ldr	r3, [sp, #4]
 8005552:	8d81      	ldrh	r1, [r0, #44]	@ 0x2c
 8005554:	f7ff ff5c 	bl	8005410 <HAL_UARTEx_RxEventCallback>
 8005558:	b003      	add	sp, #12
 800555a:	f85d fb04 	ldr.w	pc, [sp], #4
 800555e:	b939      	cbnz	r1, 8005570 <UART_Receive_IT.isra.0+0xa8>
 8005560:	6901      	ldr	r1, [r0, #16]
 8005562:	b929      	cbnz	r1, 8005570 <UART_Receive_IT.isra.0+0xa8>
 8005564:	6852      	ldr	r2, [r2, #4]
 8005566:	b2d2      	uxtb	r2, r2
 8005568:	701a      	strb	r2, [r3, #0]
 800556a:	6a83      	ldr	r3, [r0, #40]	@ 0x28
 800556c:	3301      	adds	r3, #1
 800556e:	e7be      	b.n	80054ee <UART_Receive_IT.isra.0+0x26>
 8005570:	6852      	ldr	r2, [r2, #4]
 8005572:	f002 027f 	and.w	r2, r2, #127	@ 0x7f
 8005576:	e7f7      	b.n	8005568 <UART_Receive_IT.isra.0+0xa0>
 8005578:	f7ff ff13 	bl	80053a2 <HAL_UART_RxCpltCallback>
 800557c:	e7ec      	b.n	8005558 <UART_Receive_IT.isra.0+0x90>
	...

08005580 <HAL_UART_IRQHandler>:
 8005580:	6803      	ldr	r3, [r0, #0]
 8005582:	681a      	ldr	r2, [r3, #0]
 8005584:	b573      	push	{r0, r1, r4, r5, r6, lr}
 8005586:	0716      	lsls	r6, r2, #28
 8005588:	68d9      	ldr	r1, [r3, #12]
 800558a:	695d      	ldr	r5, [r3, #20]
 800558c:	4604      	mov	r4, r0
 800558e:	d108      	bne.n	80055a2 <HAL_UART_IRQHandler+0x22>
 8005590:	0696      	lsls	r6, r2, #26
 8005592:	d568      	bpl.n	8005666 <HAL_UART_IRQHandler+0xe6>
 8005594:	068d      	lsls	r5, r1, #26
 8005596:	d566      	bpl.n	8005666 <HAL_UART_IRQHandler+0xe6>
 8005598:	b002      	add	sp, #8
 800559a:	e8bd 4070 	ldmia.w	sp!, {r4, r5, r6, lr}
 800559e:	f7ff bf93 	b.w	80054c8 <UART_Receive_IT.isra.0>
 80055a2:	f005 0001 	and.w	r0, r5, #1
 80055a6:	f401 7590 	and.w	r5, r1, #288	@ 0x120
 80055aa:	4305      	orrs	r5, r0
 80055ac:	d05b      	beq.n	8005666 <HAL_UART_IRQHandler+0xe6>
 80055ae:	07d6      	lsls	r6, r2, #31
 80055b0:	d505      	bpl.n	80055be <HAL_UART_IRQHandler+0x3e>
 80055b2:	05cd      	lsls	r5, r1, #23
 80055b4:	bf42      	ittt	mi
 80055b6:	6c63      	ldrmi	r3, [r4, #68]	@ 0x44
 80055b8:	f043 0301 	orrmi.w	r3, r3, #1
 80055bc:	6463      	strmi	r3, [r4, #68]	@ 0x44
 80055be:	0753      	lsls	r3, r2, #29
 80055c0:	d504      	bpl.n	80055cc <HAL_UART_IRQHandler+0x4c>
 80055c2:	b118      	cbz	r0, 80055cc <HAL_UART_IRQHandler+0x4c>
 80055c4:	6c63      	ldr	r3, [r4, #68]	@ 0x44
 80055c6:	f043 0302 	orr.w	r3, r3, #2
 80055ca:	6463      	str	r3, [r4, #68]	@ 0x44
 80055cc:	0796      	lsls	r6, r2, #30
 80055ce:	d504      	bpl.n	80055da <HAL_UART_IRQHandler+0x5a>
 80055d0:	b118      	cbz	r0, 80055da <HAL_UART_IRQHandler+0x5a>
 80055d2:	6c63      	ldr	r3, [r4, #68]	@ 0x44
 80055d4:	f043 0304 	orr.w	r3, r3, #4
 80055d8:	6463      	str	r3, [r4, #68]	@ 0x44
 80055da:	0715      	lsls	r5, r2, #28
 80055dc:	d507      	bpl.n	80055ee <HAL_UART_IRQHandler+0x6e>
 80055de:	f001 0320 	and.w	r3, r1, #32
 80055e2:	4303      	orrs	r3, r0
 80055e4:	bf1e      	ittt	ne
 80055e6:	6c63      	ldrne	r3, [r4, #68]	@ 0x44
 80055e8:	f043 0308 	orrne.w	r3, r3, #8
 80055ec:	6463      	strne	r3, [r4, #68]	@ 0x44
 80055ee:	6c63      	ldr	r3, [r4, #68]	@ 0x44
 80055f0:	2b00      	cmp	r3, #0
 80055f2:	d032      	beq.n	800565a <HAL_UART_IRQHandler+0xda>
 80055f4:	0692      	lsls	r2, r2, #26
 80055f6:	d504      	bpl.n	8005602 <HAL_UART_IRQHandler+0x82>
 80055f8:	068b      	lsls	r3, r1, #26
 80055fa:	d502      	bpl.n	8005602 <HAL_UART_IRQHandler+0x82>
 80055fc:	4620      	mov	r0, r4
 80055fe:	f7ff ff63 	bl	80054c8 <UART_Receive_IT.isra.0>
 8005602:	6826      	ldr	r6, [r4, #0]
 8005604:	6973      	ldr	r3, [r6, #20]
 8005606:	6c62      	ldr	r2, [r4, #68]	@ 0x44
 8005608:	f003 0340 	and.w	r3, r3, #64	@ 0x40
 800560c:	f002 0208 	and.w	r2, r2, #8
 8005610:	ea53 0502 	orrs.w	r5, r3, r2
 8005614:	4620      	mov	r0, r4
 8005616:	d022      	beq.n	800565e <HAL_UART_IRQHandler+0xde>
 8005618:	f7ff fd54 	bl	80050c4 <UART_EndRxTransfer>
 800561c:	6973      	ldr	r3, [r6, #20]
 800561e:	065e      	lsls	r6, r3, #25
 8005620:	d518      	bpl.n	8005654 <HAL_UART_IRQHandler+0xd4>
 8005622:	6822      	ldr	r2, [r4, #0]
 8005624:	f102 0314 	add.w	r3, r2, #20
 8005628:	e853 3f00 	ldrex	r3, [r3]
 800562c:	f023 0340 	bic.w	r3, r3, #64	@ 0x40
 8005630:	3214      	adds	r2, #20
 8005632:	e842 3100 	strex	r1, r3, [r2]
 8005636:	2900      	cmp	r1, #0
 8005638:	d1f3      	bne.n	8005622 <HAL_UART_IRQHandler+0xa2>
 800563a:	6be0      	ldr	r0, [r4, #60]	@ 0x3c
 800563c:	b150      	cbz	r0, 8005654 <HAL_UART_IRQHandler+0xd4>
 800563e:	4b77      	ldr	r3, [pc, #476]	@ (800581c <HAL_UART_IRQHandler+0x29c>)
 8005640:	6503      	str	r3, [r0, #80]	@ 0x50
 8005642:	f7fd fca0 	bl	8002f86 <HAL_DMA_Abort_IT>
 8005646:	b140      	cbz	r0, 800565a <HAL_UART_IRQHandler+0xda>
 8005648:	6be0      	ldr	r0, [r4, #60]	@ 0x3c
 800564a:	6d03      	ldr	r3, [r0, #80]	@ 0x50
 800564c:	b002      	add	sp, #8
 800564e:	e8bd 4070 	ldmia.w	sp!, {r4, r5, r6, lr}
 8005652:	4718      	bx	r3
 8005654:	4620      	mov	r0, r4
 8005656:	f7ff fea6 	bl	80053a6 <HAL_UART_ErrorCallback>
 800565a:	b002      	add	sp, #8
 800565c:	bd70      	pop	{r4, r5, r6, pc}
 800565e:	f7ff fea2 	bl	80053a6 <HAL_UART_ErrorCallback>
 8005662:	6465      	str	r5, [r4, #68]	@ 0x44
 8005664:	e7f9      	b.n	800565a <HAL_UART_IRQHandler+0xda>
 8005666:	6b20      	ldr	r0, [r4, #48]	@ 0x30
 8005668:	2801      	cmp	r0, #1
 800566a:	f040 809b 	bne.w	80057a4 <HAL_UART_IRQHandler+0x224>
 800566e:	06d5      	lsls	r5, r2, #27
 8005670:	f140 8098 	bpl.w	80057a4 <HAL_UART_IRQHandler+0x224>
 8005674:	06c8      	lsls	r0, r1, #27
 8005676:	f140 8095 	bpl.w	80057a4 <HAL_UART_IRQHandler+0x224>
 800567a:	2200      	movs	r2, #0
 800567c:	9201      	str	r2, [sp, #4]
 800567e:	681a      	ldr	r2, [r3, #0]
 8005680:	9201      	str	r2, [sp, #4]
 8005682:	685a      	ldr	r2, [r3, #4]
 8005684:	9201      	str	r2, [sp, #4]
 8005686:	9a01      	ldr	r2, [sp, #4]
 8005688:	6959      	ldr	r1, [r3, #20]
 800568a:	8da2      	ldrh	r2, [r4, #44]	@ 0x2c
 800568c:	0649      	lsls	r1, r1, #25
 800568e:	d556      	bpl.n	800573e <HAL_UART_IRQHandler+0x1be>
 8005690:	6be0      	ldr	r0, [r4, #60]	@ 0x3c
 8005692:	6801      	ldr	r1, [r0, #0]
 8005694:	6849      	ldr	r1, [r1, #4]
 8005696:	b289      	uxth	r1, r1
 8005698:	2900      	cmp	r1, #0
 800569a:	d047      	beq.n	800572c <HAL_UART_IRQHandler+0x1ac>
 800569c:	4291      	cmp	r1, r2
 800569e:	d245      	bcs.n	800572c <HAL_UART_IRQHandler+0x1ac>
 80056a0:	69c2      	ldr	r2, [r0, #28]
 80056a2:	85e1      	strh	r1, [r4, #46]	@ 0x2e
 80056a4:	f5b2 7f80 	cmp.w	r2, #256	@ 0x100
 80056a8:	d036      	beq.n	8005718 <HAL_UART_IRQHandler+0x198>
 80056aa:	f103 020c 	add.w	r2, r3, #12
 80056ae:	e852 2f00 	ldrex	r2, [r2]
 80056b2:	f422 7280 	bic.w	r2, r2, #256	@ 0x100
 80056b6:	f103 000c 	add.w	r0, r3, #12
 80056ba:	e840 2100 	strex	r1, r2, [r0]
 80056be:	2900      	cmp	r1, #0
 80056c0:	d1f3      	bne.n	80056aa <HAL_UART_IRQHandler+0x12a>
 80056c2:	f103 0214 	add.w	r2, r3, #20
 80056c6:	e852 2f00 	ldrex	r2, [r2]
 80056ca:	f022 0201 	bic.w	r2, r2, #1
 80056ce:	f103 0014 	add.w	r0, r3, #20
 80056d2:	e840 2100 	strex	r1, r2, [r0]
 80056d6:	2900      	cmp	r1, #0
 80056d8:	d1f3      	bne.n	80056c2 <HAL_UART_IRQHandler+0x142>
 80056da:	f103 0214 	add.w	r2, r3, #20
 80056de:	e852 2f00 	ldrex	r2, [r2]
 80056e2:	f022 0240 	bic.w	r2, r2, #64	@ 0x40
 80056e6:	f103 0014 	add.w	r0, r3, #20
 80056ea:	e840 2100 	strex	r1, r2, [r0]
 80056ee:	2900      	cmp	r1, #0
 80056f0:	d1f3      	bne.n	80056da <HAL_UART_IRQHandler+0x15a>
 80056f2:	2220      	movs	r2, #32
 80056f4:	f884 2042 	strb.w	r2, [r4, #66]	@ 0x42
 80056f8:	6321      	str	r1, [r4, #48]	@ 0x30
 80056fa:	f103 020c 	add.w	r2, r3, #12
 80056fe:	e852 2f00 	ldrex	r2, [r2]
 8005702:	f022 0210 	bic.w	r2, r2, #16
 8005706:	f103 000c 	add.w	r0, r3, #12
 800570a:	e840 2100 	strex	r1, r2, [r0]
 800570e:	2900      	cmp	r1, #0
 8005710:	d1f3      	bne.n	80056fa <HAL_UART_IRQHandler+0x17a>
 8005712:	6be0      	ldr	r0, [r4, #60]	@ 0x3c
 8005714:	f7fd fbf9 	bl	8002f0a <HAL_DMA_Abort>
 8005718:	2302      	movs	r3, #2
 800571a:	6363      	str	r3, [r4, #52]	@ 0x34
 800571c:	8de3      	ldrh	r3, [r4, #46]	@ 0x2e
 800571e:	8da1      	ldrh	r1, [r4, #44]	@ 0x2c
 8005720:	1ac9      	subs	r1, r1, r3
 8005722:	b289      	uxth	r1, r1
 8005724:	4620      	mov	r0, r4
 8005726:	f7ff fe73 	bl	8005410 <HAL_UARTEx_RxEventCallback>
 800572a:	e796      	b.n	800565a <HAL_UART_IRQHandler+0xda>
 800572c:	4291      	cmp	r1, r2
 800572e:	d194      	bne.n	800565a <HAL_UART_IRQHandler+0xda>
 8005730:	69c3      	ldr	r3, [r0, #28]
 8005732:	f5b3 7f80 	cmp.w	r3, #256	@ 0x100
 8005736:	d190      	bne.n	800565a <HAL_UART_IRQHandler+0xda>
 8005738:	2302      	movs	r3, #2
 800573a:	6363      	str	r3, [r4, #52]	@ 0x34
 800573c:	e7f2      	b.n	8005724 <HAL_UART_IRQHandler+0x1a4>
 800573e:	8de1      	ldrh	r1, [r4, #46]	@ 0x2e
 8005740:	8de0      	ldrh	r0, [r4, #46]	@ 0x2e
 8005742:	b280      	uxth	r0, r0
 8005744:	b289      	uxth	r1, r1
 8005746:	2800      	cmp	r0, #0
 8005748:	d087      	beq.n	800565a <HAL_UART_IRQHandler+0xda>
 800574a:	1a51      	subs	r1, r2, r1
 800574c:	b289      	uxth	r1, r1
 800574e:	2900      	cmp	r1, #0
 8005750:	d083      	beq.n	800565a <HAL_UART_IRQHandler+0xda>
 8005752:	f103 020c 	add.w	r2, r3, #12
 8005756:	e852 2f00 	ldrex	r2, [r2]
 800575a:	f422 7290 	bic.w	r2, r2, #288	@ 0x120
 800575e:	f103 050c 	add.w	r5, r3, #12
 8005762:	e845 2000 	strex	r0, r2, [r5]
 8005766:	2800      	cmp	r0, #0
 8005768:	d1f3      	bne.n	8005752 <HAL_UART_IRQHandler+0x1d2>
 800576a:	f103 0214 	add.w	r2, r3, #20
 800576e:	e852 2f00 	ldrex	r2, [r2]
 8005772:	f022 0201 	bic.w	r2, r2, #1
 8005776:	f103 0514 	add.w	r5, r3, #20
 800577a:	e845 2000 	strex	r0, r2, [r5]
 800577e:	2800      	cmp	r0, #0
 8005780:	d1f3      	bne.n	800576a <HAL_UART_IRQHandler+0x1ea>
 8005782:	2220      	movs	r2, #32
 8005784:	f884 2042 	strb.w	r2, [r4, #66]	@ 0x42
 8005788:	6320      	str	r0, [r4, #48]	@ 0x30
 800578a:	f103 020c 	add.w	r2, r3, #12
 800578e:	e852 2f00 	ldrex	r2, [r2]
 8005792:	f022 0210 	bic.w	r2, r2, #16
 8005796:	f103 050c 	add.w	r5, r3, #12
 800579a:	e845 2000 	strex	r0, r2, [r5]
 800579e:	2800      	cmp	r0, #0
 80057a0:	d1f3      	bne.n	800578a <HAL_UART_IRQHandler+0x20a>
 80057a2:	e7c9      	b.n	8005738 <HAL_UART_IRQHandler+0x1b8>
 80057a4:	0616      	lsls	r6, r2, #24
 80057a6:	d528      	bpl.n	80057fa <HAL_UART_IRQHandler+0x27a>
 80057a8:	060d      	lsls	r5, r1, #24
 80057aa:	d526      	bpl.n	80057fa <HAL_UART_IRQHandler+0x27a>
 80057ac:	f894 2041 	ldrb.w	r2, [r4, #65]	@ 0x41
 80057b0:	2a21      	cmp	r2, #33	@ 0x21
 80057b2:	f47f af52 	bne.w	800565a <HAL_UART_IRQHandler+0xda>
 80057b6:	68a1      	ldr	r1, [r4, #8]
 80057b8:	6a22      	ldr	r2, [r4, #32]
 80057ba:	f5b1 5f80 	cmp.w	r1, #4096	@ 0x1000
 80057be:	d117      	bne.n	80057f0 <HAL_UART_IRQHandler+0x270>
 80057c0:	6921      	ldr	r1, [r4, #16]
 80057c2:	b9a9      	cbnz	r1, 80057f0 <HAL_UART_IRQHandler+0x270>
 80057c4:	f832 1b02 	ldrh.w	r1, [r2], #2
 80057c8:	f3c1 0108 	ubfx	r1, r1, #0, #9
 80057cc:	6059      	str	r1, [r3, #4]
 80057ce:	6222      	str	r2, [r4, #32]
 80057d0:	8ce2      	ldrh	r2, [r4, #38]	@ 0x26
 80057d2:	3a01      	subs	r2, #1
 80057d4:	b292      	uxth	r2, r2
 80057d6:	84e2      	strh	r2, [r4, #38]	@ 0x26
 80057d8:	2a00      	cmp	r2, #0
 80057da:	f47f af3e 	bne.w	800565a <HAL_UART_IRQHandler+0xda>
 80057de:	68da      	ldr	r2, [r3, #12]
 80057e0:	f022 0280 	bic.w	r2, r2, #128	@ 0x80
 80057e4:	60da      	str	r2, [r3, #12]
 80057e6:	68da      	ldr	r2, [r3, #12]
 80057e8:	f042 0240 	orr.w	r2, r2, #64	@ 0x40
 80057ec:	60da      	str	r2, [r3, #12]
 80057ee:	e734      	b.n	800565a <HAL_UART_IRQHandler+0xda>
 80057f0:	1c51      	adds	r1, r2, #1
 80057f2:	6221      	str	r1, [r4, #32]
 80057f4:	7812      	ldrb	r2, [r2, #0]
 80057f6:	605a      	str	r2, [r3, #4]
 80057f8:	e7ea      	b.n	80057d0 <HAL_UART_IRQHandler+0x250>
 80057fa:	0650      	lsls	r0, r2, #25
 80057fc:	f57f af2d 	bpl.w	800565a <HAL_UART_IRQHandler+0xda>
 8005800:	064a      	lsls	r2, r1, #25
 8005802:	f57f af2a 	bpl.w	800565a <HAL_UART_IRQHandler+0xda>
 8005806:	68da      	ldr	r2, [r3, #12]
 8005808:	f022 0240 	bic.w	r2, r2, #64	@ 0x40
 800580c:	60da      	str	r2, [r3, #12]
 800580e:	2320      	movs	r3, #32
 8005810:	f884 3041 	strb.w	r3, [r4, #65]	@ 0x41
 8005814:	4620      	mov	r0, r4
 8005816:	f7ff fd97 	bl	8005348 <HAL_UART_TxCpltCallback>
 800581a:	e71e      	b.n	800565a <HAL_UART_IRQHandler+0xda>
 800581c:	08005403 	.word	0x08005403

08005820 <UART_Start_Receive_DMA>:
 8005820:	b537      	push	{r0, r1, r2, r4, r5, lr}
 8005822:	4613      	mov	r3, r2
 8005824:	4604      	mov	r4, r0
 8005826:	8582      	strh	r2, [r0, #44]	@ 0x2c
 8005828:	2200      	movs	r2, #0
 800582a:	6281      	str	r1, [r0, #40]	@ 0x28
 800582c:	6442      	str	r2, [r0, #68]	@ 0x44
 800582e:	2022      	movs	r0, #34	@ 0x22
 8005830:	f884 0042 	strb.w	r0, [r4, #66]	@ 0x42
 8005834:	6be0      	ldr	r0, [r4, #60]	@ 0x3c
 8005836:	4d21      	ldr	r5, [pc, #132]	@ (80058bc <UART_Start_Receive_DMA+0x9c>)
 8005838:	63c5      	str	r5, [r0, #60]	@ 0x3c
 800583a:	4d21      	ldr	r5, [pc, #132]	@ (80058c0 <UART_Start_Receive_DMA+0xa0>)
 800583c:	6405      	str	r5, [r0, #64]	@ 0x40
 800583e:	4d21      	ldr	r5, [pc, #132]	@ (80058c4 <UART_Start_Receive_DMA+0xa4>)
 8005840:	e9c0 5213 	strd	r5, r2, [r0, #76]	@ 0x4c
 8005844:	6825      	ldr	r5, [r4, #0]
 8005846:	460a      	mov	r2, r1
 8005848:	1d29      	adds	r1, r5, #4
 800584a:	f7fd fb25 	bl	8002e98 <HAL_DMA_Start_IT>
 800584e:	b138      	cbz	r0, 8005860 <UART_Start_Receive_DMA+0x40>
 8005850:	2310      	movs	r3, #16
 8005852:	6463      	str	r3, [r4, #68]	@ 0x44
 8005854:	2320      	movs	r3, #32
 8005856:	f884 3042 	strb.w	r3, [r4, #66]	@ 0x42
 800585a:	2001      	movs	r0, #1
 800585c:	b003      	add	sp, #12
 800585e:	bd30      	pop	{r4, r5, pc}
 8005860:	6823      	ldr	r3, [r4, #0]
 8005862:	9001      	str	r0, [sp, #4]
 8005864:	681a      	ldr	r2, [r3, #0]
 8005866:	9201      	str	r2, [sp, #4]
 8005868:	685a      	ldr	r2, [r3, #4]
 800586a:	9201      	str	r2, [sp, #4]
 800586c:	9a01      	ldr	r2, [sp, #4]
 800586e:	6922      	ldr	r2, [r4, #16]
 8005870:	b15a      	cbz	r2, 800588a <UART_Start_Receive_DMA+0x6a>
 8005872:	f103 020c 	add.w	r2, r3, #12
 8005876:	e852 2f00 	ldrex	r2, [r2]
 800587a:	f442 7280 	orr.w	r2, r2, #256	@ 0x100
 800587e:	f103 040c 	add.w	r4, r3, #12
 8005882:	e844 2100 	strex	r1, r2, [r4]
 8005886:	2900      	cmp	r1, #0
 8005888:	d1f3      	bne.n	8005872 <UART_Start_Receive_DMA+0x52>
 800588a:	f103 0214 	add.w	r2, r3, #20
 800588e:	e852 2f00 	ldrex	r2, [r2]
 8005892:	f042 0201 	orr.w	r2, r2, #1
 8005896:	f103 0414 	add.w	r4, r3, #20
 800589a:	e844 2100 	strex	r1, r2, [r4]
 800589e:	2900      	cmp	r1, #0
 80058a0:	d1f3      	bne.n	800588a <UART_Start_Receive_DMA+0x6a>
 80058a2:	f103 0214 	add.w	r2, r3, #20
 80058a6:	e852 2f00 	ldrex	r2, [r2]
 80058aa:	f042 0240 	orr.w	r2, r2, #64	@ 0x40
 80058ae:	f103 0414 	add.w	r4, r3, #20
 80058b2:	e844 2100 	strex	r1, r2, [r4]
 80058b6:	2900      	cmp	r1, #0
 80058b8:	d1f3      	bne.n	80058a2 <UART_Start_Receive_DMA+0x82>
 80058ba:	e7cf      	b.n	800585c <UART_Start_Receive_DMA+0x3c>
 80058bc:	08005431 	.word	0x08005431
 80058c0:	08005413 	.word	0x08005413
 80058c4:	080053a9 	.word	0x080053a9

080058c8 <HAL_UART_Receive_DMA>:
 80058c8:	b470      	push	{r4, r5, r6}
 80058ca:	f890 6042 	ldrb.w	r6, [r0, #66]	@ 0x42
 80058ce:	2e20      	cmp	r6, #32
 80058d0:	d106      	bne.n	80058e0 <HAL_UART_Receive_DMA+0x18>
 80058d2:	b141      	cbz	r1, 80058e6 <HAL_UART_Receive_DMA+0x1e>
 80058d4:	b13a      	cbz	r2, 80058e6 <HAL_UART_Receive_DMA+0x1e>
 80058d6:	2400      	movs	r4, #0
 80058d8:	6304      	str	r4, [r0, #48]	@ 0x30
 80058da:	bc70      	pop	{r4, r5, r6}
 80058dc:	f7ff bfa0 	b.w	8005820 <UART_Start_Receive_DMA>
 80058e0:	2002      	movs	r0, #2
 80058e2:	bc70      	pop	{r4, r5, r6}
 80058e4:	4770      	bx	lr
 80058e6:	2001      	movs	r0, #1
 80058e8:	e7fb      	b.n	80058e2 <HAL_UART_Receive_DMA+0x1a>

080058ea <USB_CoreReset>:
 80058ea:	b082      	sub	sp, #8
 80058ec:	2300      	movs	r3, #0
 80058ee:	4602      	mov	r2, r0
 80058f0:	9301      	str	r3, [sp, #4]
 80058f2:	9b01      	ldr	r3, [sp, #4]
 80058f4:	3301      	adds	r3, #1
 80058f6:	9301      	str	r3, [sp, #4]
 80058f8:	9b01      	ldr	r3, [sp, #4]
 80058fa:	f1b3 6f70 	cmp.w	r3, #251658240	@ 0xf000000
 80058fe:	d81a      	bhi.n	8005936 <USB_CoreReset+0x4c>
 8005900:	6913      	ldr	r3, [r2, #16]
 8005902:	2b00      	cmp	r3, #0
 8005904:	daf5      	bge.n	80058f2 <USB_CoreReset+0x8>
 8005906:	230a      	movs	r3, #10
 8005908:	9301      	str	r3, [sp, #4]
 800590a:	9b01      	ldr	r3, [sp, #4]
 800590c:	b983      	cbnz	r3, 8005930 <USB_CoreReset+0x46>
 800590e:	6913      	ldr	r3, [r2, #16]
 8005910:	f043 0301 	orr.w	r3, r3, #1
 8005914:	6113      	str	r3, [r2, #16]
 8005916:	9b01      	ldr	r3, [sp, #4]
 8005918:	3301      	adds	r3, #1
 800591a:	9301      	str	r3, [sp, #4]
 800591c:	9b01      	ldr	r3, [sp, #4]
 800591e:	f1b3 6f70 	cmp.w	r3, #251658240	@ 0xf000000
 8005922:	d808      	bhi.n	8005936 <USB_CoreReset+0x4c>
 8005924:	6910      	ldr	r0, [r2, #16]
 8005926:	f010 0001 	ands.w	r0, r0, #1
 800592a:	d1f4      	bne.n	8005916 <USB_CoreReset+0x2c>
 800592c:	b002      	add	sp, #8
 800592e:	4770      	bx	lr
 8005930:	9b01      	ldr	r3, [sp, #4]
 8005932:	3b01      	subs	r3, #1
 8005934:	e7e8      	b.n	8005908 <USB_CoreReset+0x1e>
 8005936:	2003      	movs	r0, #3
 8005938:	e7f8      	b.n	800592c <USB_CoreReset+0x42>

0800593a <USB_CoreInit>:
 800593a:	b084      	sub	sp, #16
 800593c:	b538      	push	{r3, r4, r5, lr}
 800593e:	ad05      	add	r5, sp, #20
 8005940:	e885 000e 	stmia.w	r5, {r1, r2, r3}
 8005944:	f89d 3019 	ldrb.w	r3, [sp, #25]
 8005948:	2b01      	cmp	r3, #1
 800594a:	4604      	mov	r4, r0
 800594c:	d127      	bne.n	800599e <USB_CoreInit+0x64>
 800594e:	6b83      	ldr	r3, [r0, #56]	@ 0x38
 8005950:	f423 3380 	bic.w	r3, r3, #65536	@ 0x10000
 8005954:	6383      	str	r3, [r0, #56]	@ 0x38
 8005956:	68c3      	ldr	r3, [r0, #12]
 8005958:	f423 0384 	bic.w	r3, r3, #4325376	@ 0x420000
 800595c:	f023 0340 	bic.w	r3, r3, #64	@ 0x40
 8005960:	60c3      	str	r3, [r0, #12]
 8005962:	68c3      	ldr	r3, [r0, #12]
 8005964:	f423 1340 	bic.w	r3, r3, #3145728	@ 0x300000
 8005968:	60c3      	str	r3, [r0, #12]
 800596a:	f89d 3020 	ldrb.w	r3, [sp, #32]
 800596e:	2b01      	cmp	r3, #1
 8005970:	bf02      	ittt	eq
 8005972:	68c3      	ldreq	r3, [r0, #12]
 8005974:	f443 1380 	orreq.w	r3, r3, #1048576	@ 0x100000
 8005978:	60c3      	streq	r3, [r0, #12]
 800597a:	f7ff ffb6 	bl	80058ea <USB_CoreReset>
 800597e:	f89d 3016 	ldrb.w	r3, [sp, #22]
 8005982:	2b01      	cmp	r3, #1
 8005984:	d107      	bne.n	8005996 <USB_CoreInit+0x5c>
 8005986:	68a3      	ldr	r3, [r4, #8]
 8005988:	f043 0306 	orr.w	r3, r3, #6
 800598c:	60a3      	str	r3, [r4, #8]
 800598e:	68a3      	ldr	r3, [r4, #8]
 8005990:	f043 0320 	orr.w	r3, r3, #32
 8005994:	60a3      	str	r3, [r4, #8]
 8005996:	e8bd 4038 	ldmia.w	sp!, {r3, r4, r5, lr}
 800599a:	b004      	add	sp, #16
 800599c:	4770      	bx	lr
 800599e:	68c3      	ldr	r3, [r0, #12]
 80059a0:	f043 0340 	orr.w	r3, r3, #64	@ 0x40
 80059a4:	60c3      	str	r3, [r0, #12]
 80059a6:	f7ff ffa0 	bl	80058ea <USB_CoreReset>
 80059aa:	f89d 301d 	ldrb.w	r3, [sp, #29]
 80059ae:	b923      	cbnz	r3, 80059ba <USB_CoreInit+0x80>
 80059b0:	6ba3      	ldr	r3, [r4, #56]	@ 0x38
 80059b2:	f443 3380 	orr.w	r3, r3, #65536	@ 0x10000
 80059b6:	63a3      	str	r3, [r4, #56]	@ 0x38
 80059b8:	e7e1      	b.n	800597e <USB_CoreInit+0x44>
 80059ba:	6ba3      	ldr	r3, [r4, #56]	@ 0x38
 80059bc:	f423 3380 	bic.w	r3, r3, #65536	@ 0x10000
 80059c0:	e7f9      	b.n	80059b6 <USB_CoreInit+0x7c>
	...

080059c4 <USB_SetTurnaroundTime>:
 80059c4:	2a02      	cmp	r2, #2
 80059c6:	d14a      	bne.n	8005a5e <USB_SetTurnaroundTime+0x9a>
 80059c8:	4b27      	ldr	r3, [pc, #156]	@ (8005a68 <USB_SetTurnaroundTime+0xa4>)
 80059ca:	4a28      	ldr	r2, [pc, #160]	@ (8005a6c <USB_SetTurnaroundTime+0xa8>)
 80059cc:	440b      	add	r3, r1
 80059ce:	4293      	cmp	r3, r2
 80059d0:	d939      	bls.n	8005a46 <USB_SetTurnaroundTime+0x82>
 80059d2:	4b27      	ldr	r3, [pc, #156]	@ (8005a70 <USB_SetTurnaroundTime+0xac>)
 80059d4:	4a27      	ldr	r2, [pc, #156]	@ (8005a74 <USB_SetTurnaroundTime+0xb0>)
 80059d6:	440b      	add	r3, r1
 80059d8:	4293      	cmp	r3, r2
 80059da:	d936      	bls.n	8005a4a <USB_SetTurnaroundTime+0x86>
 80059dc:	4a26      	ldr	r2, [pc, #152]	@ (8005a78 <USB_SetTurnaroundTime+0xb4>)
 80059de:	f5a1 0374 	sub.w	r3, r1, #15990784	@ 0xf40000
 80059e2:	f5a3 5310 	sub.w	r3, r3, #9216	@ 0x2400
 80059e6:	4293      	cmp	r3, r2
 80059e8:	d931      	bls.n	8005a4e <USB_SetTurnaroundTime+0x8a>
 80059ea:	4a24      	ldr	r2, [pc, #144]	@ (8005a7c <USB_SetTurnaroundTime+0xb8>)
 80059ec:	f1a1 7383 	sub.w	r3, r1, #17170432	@ 0x1060000
 80059f0:	f5a3 43e7 	sub.w	r3, r3, #29568	@ 0x7380
 80059f4:	4293      	cmp	r3, r2
 80059f6:	d32c      	bcc.n	8005a52 <USB_SetTurnaroundTime+0x8e>
 80059f8:	4b21      	ldr	r3, [pc, #132]	@ (8005a80 <USB_SetTurnaroundTime+0xbc>)
 80059fa:	4a22      	ldr	r2, [pc, #136]	@ (8005a84 <USB_SetTurnaroundTime+0xc0>)
 80059fc:	440b      	add	r3, r1
 80059fe:	4293      	cmp	r3, r2
 8005a00:	d929      	bls.n	8005a56 <USB_SetTurnaroundTime+0x92>
 8005a02:	4b21      	ldr	r3, [pc, #132]	@ (8005a88 <USB_SetTurnaroundTime+0xc4>)
 8005a04:	4a21      	ldr	r2, [pc, #132]	@ (8005a8c <USB_SetTurnaroundTime+0xc8>)
 8005a06:	440b      	add	r3, r1
 8005a08:	4293      	cmp	r3, r2
 8005a0a:	d326      	bcc.n	8005a5a <USB_SetTurnaroundTime+0x96>
 8005a0c:	4b20      	ldr	r3, [pc, #128]	@ (8005a90 <USB_SetTurnaroundTime+0xcc>)
 8005a0e:	4a21      	ldr	r2, [pc, #132]	@ (8005a94 <USB_SetTurnaroundTime+0xd0>)
 8005a10:	440b      	add	r3, r1
 8005a12:	4293      	cmp	r3, r2
 8005a14:	d323      	bcc.n	8005a5e <USB_SetTurnaroundTime+0x9a>
 8005a16:	4a20      	ldr	r2, [pc, #128]	@ (8005a98 <USB_SetTurnaroundTime+0xd4>)
 8005a18:	f1a1 73b7 	sub.w	r3, r1, #23986176	@ 0x16e0000
 8005a1c:	f5a3 5358 	sub.w	r3, r3, #13824	@ 0x3600
 8005a20:	4293      	cmp	r3, r2
 8005a22:	d31e      	bcc.n	8005a62 <USB_SetTurnaroundTime+0x9e>
 8005a24:	4b1d      	ldr	r3, [pc, #116]	@ (8005a9c <USB_SetTurnaroundTime+0xd8>)
 8005a26:	4a1e      	ldr	r2, [pc, #120]	@ (8005aa0 <USB_SetTurnaroundTime+0xdc>)
 8005a28:	440b      	add	r3, r1
 8005a2a:	4293      	cmp	r3, r2
 8005a2c:	bf2c      	ite	cs
 8005a2e:	2306      	movcs	r3, #6
 8005a30:	2307      	movcc	r3, #7
 8005a32:	68c2      	ldr	r2, [r0, #12]
 8005a34:	f422 5270 	bic.w	r2, r2, #15360	@ 0x3c00
 8005a38:	60c2      	str	r2, [r0, #12]
 8005a3a:	68c2      	ldr	r2, [r0, #12]
 8005a3c:	ea42 2383 	orr.w	r3, r2, r3, lsl #10
 8005a40:	60c3      	str	r3, [r0, #12]
 8005a42:	2000      	movs	r0, #0
 8005a44:	4770      	bx	lr
 8005a46:	230f      	movs	r3, #15
 8005a48:	e7f3      	b.n	8005a32 <USB_SetTurnaroundTime+0x6e>
 8005a4a:	230e      	movs	r3, #14
 8005a4c:	e7f1      	b.n	8005a32 <USB_SetTurnaroundTime+0x6e>
 8005a4e:	230d      	movs	r3, #13
 8005a50:	e7ef      	b.n	8005a32 <USB_SetTurnaroundTime+0x6e>
 8005a52:	230c      	movs	r3, #12
 8005a54:	e7ed      	b.n	8005a32 <USB_SetTurnaroundTime+0x6e>
 8005a56:	230b      	movs	r3, #11
 8005a58:	e7eb      	b.n	8005a32 <USB_SetTurnaroundTime+0x6e>
 8005a5a:	230a      	movs	r3, #10
 8005a5c:	e7e9      	b.n	8005a32 <USB_SetTurnaroundTime+0x6e>
 8005a5e:	2309      	movs	r3, #9
 8005a60:	e7e7      	b.n	8005a32 <USB_SetTurnaroundTime+0x6e>
 8005a62:	2308      	movs	r3, #8
 8005a64:	e7e5      	b.n	8005a32 <USB_SetTurnaroundTime+0x6e>
 8005a66:	bf00      	nop
 8005a68:	ff275340 	.word	0xff275340
 8005a6c:	000c34ff 	.word	0x000c34ff
 8005a70:	ff1b1e40 	.word	0xff1b1e40
 8005a74:	000f423f 	.word	0x000f423f
 8005a78:	00124f7f 	.word	0x00124f7f
 8005a7c:	0013d620 	.word	0x0013d620
 8005a80:	fee5b660 	.word	0xfee5b660
 8005a84:	0016e35f 	.word	0x0016e35f
 8005a88:	feced300 	.word	0xfeced300
 8005a8c:	001b7740 	.word	0x001b7740
 8005a90:	feb35bc0 	.word	0xfeb35bc0
 8005a94:	002191c0 	.word	0x002191c0
 8005a98:	00387520 	.word	0x00387520
 8005a9c:	fe5954e0 	.word	0xfe5954e0
 8005aa0:	00419ce0 	.word	0x00419ce0

08005aa4 <USB_EnableGlobalInt>:
 8005aa4:	6883      	ldr	r3, [r0, #8]
 8005aa6:	f043 0301 	orr.w	r3, r3, #1
 8005aaa:	6083      	str	r3, [r0, #8]
 8005aac:	2000      	movs	r0, #0
 8005aae:	4770      	bx	lr

08005ab0 <USB_DisableGlobalInt>:
 8005ab0:	6883      	ldr	r3, [r0, #8]
 8005ab2:	f023 0301 	bic.w	r3, r3, #1
 8005ab6:	6083      	str	r3, [r0, #8]
 8005ab8:	2000      	movs	r0, #0
 8005aba:	4770      	bx	lr

08005abc <USB_SetCurrentMode>:
 8005abc:	b538      	push	{r3, r4, r5, lr}
 8005abe:	68c3      	ldr	r3, [r0, #12]
 8005ac0:	2901      	cmp	r1, #1
 8005ac2:	f023 43c0 	bic.w	r3, r3, #1610612736	@ 0x60000000
 8005ac6:	4605      	mov	r5, r0
 8005ac8:	460c      	mov	r4, r1
 8005aca:	60c3      	str	r3, [r0, #12]
 8005acc:	d114      	bne.n	8005af8 <USB_SetCurrentMode+0x3c>
 8005ace:	68c3      	ldr	r3, [r0, #12]
 8005ad0:	f043 5300 	orr.w	r3, r3, #536870912	@ 0x20000000
 8005ad4:	60c3      	str	r3, [r0, #12]
 8005ad6:	2400      	movs	r4, #0
 8005ad8:	200a      	movs	r0, #10
 8005ada:	f7fd f8e3 	bl	8002ca4 <HAL_Delay>
 8005ade:	696b      	ldr	r3, [r5, #20]
 8005ae0:	07d9      	lsls	r1, r3, #31
 8005ae2:	f104 040a 	add.w	r4, r4, #10
 8005ae6:	d402      	bmi.n	8005aee <USB_SetCurrentMode+0x32>
 8005ae8:	2cc8      	cmp	r4, #200	@ 0xc8
 8005aea:	d1f5      	bne.n	8005ad8 <USB_SetCurrentMode+0x1c>
 8005aec:	24c8      	movs	r4, #200	@ 0xc8
 8005aee:	f1a4 03c8 	sub.w	r3, r4, #200	@ 0xc8
 8005af2:	4258      	negs	r0, r3
 8005af4:	4158      	adcs	r0, r3
 8005af6:	bd38      	pop	{r3, r4, r5, pc}
 8005af8:	b971      	cbnz	r1, 8005b18 <USB_SetCurrentMode+0x5c>
 8005afa:	68c3      	ldr	r3, [r0, #12]
 8005afc:	f043 4380 	orr.w	r3, r3, #1073741824	@ 0x40000000
 8005b00:	60c3      	str	r3, [r0, #12]
 8005b02:	200a      	movs	r0, #10
 8005b04:	f7fd f8ce 	bl	8002ca4 <HAL_Delay>
 8005b08:	696b      	ldr	r3, [r5, #20]
 8005b0a:	07da      	lsls	r2, r3, #31
 8005b0c:	f104 040a 	add.w	r4, r4, #10
 8005b10:	d5ed      	bpl.n	8005aee <USB_SetCurrentMode+0x32>
 8005b12:	2cc8      	cmp	r4, #200	@ 0xc8
 8005b14:	d1f5      	bne.n	8005b02 <USB_SetCurrentMode+0x46>
 8005b16:	e7e9      	b.n	8005aec <USB_SetCurrentMode+0x30>
 8005b18:	2001      	movs	r0, #1
 8005b1a:	e7ec      	b.n	8005af6 <USB_SetCurrentMode+0x3a>

08005b1c <USB_FlushTxFifo>:
 8005b1c:	b082      	sub	sp, #8
 8005b1e:	2300      	movs	r3, #0
 8005b20:	4602      	mov	r2, r0
 8005b22:	9301      	str	r3, [sp, #4]
 8005b24:	9b01      	ldr	r3, [sp, #4]
 8005b26:	3301      	adds	r3, #1
 8005b28:	9301      	str	r3, [sp, #4]
 8005b2a:	9b01      	ldr	r3, [sp, #4]
 8005b2c:	f1b3 6f70 	cmp.w	r3, #251658240	@ 0xf000000
 8005b30:	d815      	bhi.n	8005b5e <USB_FlushTxFifo+0x42>
 8005b32:	6913      	ldr	r3, [r2, #16]
 8005b34:	2b00      	cmp	r3, #0
 8005b36:	daf5      	bge.n	8005b24 <USB_FlushTxFifo+0x8>
 8005b38:	0189      	lsls	r1, r1, #6
 8005b3a:	2300      	movs	r3, #0
 8005b3c:	f041 0120 	orr.w	r1, r1, #32
 8005b40:	9301      	str	r3, [sp, #4]
 8005b42:	6111      	str	r1, [r2, #16]
 8005b44:	9b01      	ldr	r3, [sp, #4]
 8005b46:	3301      	adds	r3, #1
 8005b48:	9301      	str	r3, [sp, #4]
 8005b4a:	9b01      	ldr	r3, [sp, #4]
 8005b4c:	f1b3 6f70 	cmp.w	r3, #251658240	@ 0xf000000
 8005b50:	d805      	bhi.n	8005b5e <USB_FlushTxFifo+0x42>
 8005b52:	6910      	ldr	r0, [r2, #16]
 8005b54:	f010 0020 	ands.w	r0, r0, #32
 8005b58:	d1f4      	bne.n	8005b44 <USB_FlushTxFifo+0x28>
 8005b5a:	b002      	add	sp, #8
 8005b5c:	4770      	bx	lr
 8005b5e:	2003      	movs	r0, #3
 8005b60:	e7fb      	b.n	8005b5a <USB_FlushTxFifo+0x3e>

08005b62 <USB_FlushRxFifo>:
 8005b62:	b082      	sub	sp, #8
 8005b64:	2300      	movs	r3, #0
 8005b66:	4602      	mov	r2, r0
 8005b68:	9301      	str	r3, [sp, #4]
 8005b6a:	9b01      	ldr	r3, [sp, #4]
 8005b6c:	3301      	adds	r3, #1
 8005b6e:	9301      	str	r3, [sp, #4]
 8005b70:	9b01      	ldr	r3, [sp, #4]
 8005b72:	f1b3 6f70 	cmp.w	r3, #251658240	@ 0xf000000
 8005b76:	d813      	bhi.n	8005ba0 <USB_FlushRxFifo+0x3e>
 8005b78:	6913      	ldr	r3, [r2, #16]
 8005b7a:	2b00      	cmp	r3, #0
 8005b7c:	daf5      	bge.n	8005b6a <USB_FlushRxFifo+0x8>
 8005b7e:	2300      	movs	r3, #0
 8005b80:	9301      	str	r3, [sp, #4]
 8005b82:	2310      	movs	r3, #16
 8005b84:	6113      	str	r3, [r2, #16]
 8005b86:	9b01      	ldr	r3, [sp, #4]
 8005b88:	3301      	adds	r3, #1
 8005b8a:	9301      	str	r3, [sp, #4]
 8005b8c:	9b01      	ldr	r3, [sp, #4]
 8005b8e:	f1b3 6f70 	cmp.w	r3, #251658240	@ 0xf000000
 8005b92:	d805      	bhi.n	8005ba0 <USB_FlushRxFifo+0x3e>
 8005b94:	6910      	ldr	r0, [r2, #16]
 8005b96:	f010 0010 	ands.w	r0, r0, #16
 8005b9a:	d1f4      	bne.n	8005b86 <USB_FlushRxFifo+0x24>
 8005b9c:	b002      	add	sp, #8
 8005b9e:	4770      	bx	lr
 8005ba0:	2003      	movs	r0, #3
 8005ba2:	e7fb      	b.n	8005b9c <USB_FlushRxFifo+0x3a>

08005ba4 <USB_SetDevSpeed>:
 8005ba4:	f8d0 3800 	ldr.w	r3, [r0, #2048]	@ 0x800
 8005ba8:	4319      	orrs	r1, r3
 8005baa:	f8c0 1800 	str.w	r1, [r0, #2048]	@ 0x800
 8005bae:	2000      	movs	r0, #0
 8005bb0:	4770      	bx	lr
	...

08005bb4 <USB_DevInit>:
 8005bb4:	b084      	sub	sp, #16
 8005bb6:	e92d 43f8 	stmdb	sp!, {r3, r4, r5, r6, r7, r8, r9, lr}
 8005bba:	4604      	mov	r4, r0
 8005bbc:	a809      	add	r0, sp, #36	@ 0x24
 8005bbe:	e880 000e 	stmia.w	r0, {r1, r2, r3}
 8005bc2:	2300      	movs	r3, #0
 8005bc4:	f89d 6024 	ldrb.w	r6, [sp, #36]	@ 0x24
 8005bc8:	f89d 502e 	ldrb.w	r5, [sp, #46]	@ 0x2e
 8005bcc:	4619      	mov	r1, r3
 8005bce:	f103 0240 	add.w	r2, r3, #64	@ 0x40
 8005bd2:	eb04 0282 	add.w	r2, r4, r2, lsl #2
 8005bd6:	3301      	adds	r3, #1
 8005bd8:	2b0f      	cmp	r3, #15
 8005bda:	6051      	str	r1, [r2, #4]
 8005bdc:	d1f7      	bne.n	8005bce <USB_DevInit+0x1a>
 8005bde:	f504 6700 	add.w	r7, r4, #2048	@ 0x800
 8005be2:	2d00      	cmp	r5, #0
 8005be4:	d16c      	bne.n	8005cc0 <USB_DevInit+0x10c>
 8005be6:	687b      	ldr	r3, [r7, #4]
 8005be8:	f043 0302 	orr.w	r3, r3, #2
 8005bec:	607b      	str	r3, [r7, #4]
 8005bee:	6ba3      	ldr	r3, [r4, #56]	@ 0x38
 8005bf0:	f443 1300 	orr.w	r3, r3, #2097152	@ 0x200000
 8005bf4:	63a3      	str	r3, [r4, #56]	@ 0x38
 8005bf6:	6ba3      	ldr	r3, [r4, #56]	@ 0x38
 8005bf8:	f423 2300 	bic.w	r3, r3, #524288	@ 0x80000
 8005bfc:	63a3      	str	r3, [r4, #56]	@ 0x38
 8005bfe:	6ba3      	ldr	r3, [r4, #56]	@ 0x38
 8005c00:	f423 2380 	bic.w	r3, r3, #262144	@ 0x40000
 8005c04:	63a3      	str	r3, [r4, #56]	@ 0x38
 8005c06:	2300      	movs	r3, #0
 8005c08:	f8c4 3e00 	str.w	r3, [r4, #3584]	@ 0xe00
 8005c0c:	f89d 3029 	ldrb.w	r3, [sp, #41]	@ 0x29
 8005c10:	2b01      	cmp	r3, #1
 8005c12:	d15f      	bne.n	8005cd4 <USB_DevInit+0x120>
 8005c14:	f89d 1027 	ldrb.w	r1, [sp, #39]	@ 0x27
 8005c18:	2900      	cmp	r1, #0
 8005c1a:	d159      	bne.n	8005cd0 <USB_DevInit+0x11c>
 8005c1c:	4620      	mov	r0, r4
 8005c1e:	f7ff ffc1 	bl	8005ba4 <USB_SetDevSpeed>
 8005c22:	2110      	movs	r1, #16
 8005c24:	4620      	mov	r0, r4
 8005c26:	f7ff ff79 	bl	8005b1c <USB_FlushTxFifo>
 8005c2a:	4601      	mov	r1, r0
 8005c2c:	4620      	mov	r0, r4
 8005c2e:	f7ff ff98 	bl	8005b62 <USB_FlushRxFifo>
 8005c32:	4308      	orrs	r0, r1
 8005c34:	b2c0      	uxtb	r0, r0
 8005c36:	2300      	movs	r3, #0
 8005c38:	3800      	subs	r0, #0
 8005c3a:	613b      	str	r3, [r7, #16]
 8005c3c:	bf18      	it	ne
 8005c3e:	2001      	movne	r0, #1
 8005c40:	617b      	str	r3, [r7, #20]
 8005c42:	f504 6210 	add.w	r2, r4, #2304	@ 0x900
 8005c46:	61fb      	str	r3, [r7, #28]
 8005c48:	4619      	mov	r1, r3
 8005c4a:	f04f 4c90 	mov.w	ip, #1207959552	@ 0x48000000
 8005c4e:	f04f 6e00 	mov.w	lr, #134217728	@ 0x8000000
 8005c52:	f64f 387f 	movw	r8, #64383	@ 0xfb7f
 8005c56:	429e      	cmp	r6, r3
 8005c58:	d83e      	bhi.n	8005cd8 <USB_DevInit+0x124>
 8005c5a:	2200      	movs	r2, #0
 8005c5c:	f504 6330 	add.w	r3, r4, #2816	@ 0xb00
 8005c60:	4611      	mov	r1, r2
 8005c62:	f04f 4c90 	mov.w	ip, #1207959552	@ 0x48000000
 8005c66:	f04f 6e00 	mov.w	lr, #134217728	@ 0x8000000
 8005c6a:	f64f 387f 	movw	r8, #64383	@ 0xfb7f
 8005c6e:	4296      	cmp	r6, r2
 8005c70:	d845      	bhi.n	8005cfe <USB_DevInit+0x14a>
 8005c72:	693b      	ldr	r3, [r7, #16]
 8005c74:	f423 7380 	bic.w	r3, r3, #256	@ 0x100
 8005c78:	613b      	str	r3, [r7, #16]
 8005c7a:	2300      	movs	r3, #0
 8005c7c:	61a3      	str	r3, [r4, #24]
 8005c7e:	f06f 4380 	mvn.w	r3, #1073741824	@ 0x40000000
 8005c82:	6163      	str	r3, [r4, #20]
 8005c84:	f89d 3026 	ldrb.w	r3, [sp, #38]	@ 0x26
 8005c88:	b91b      	cbnz	r3, 8005c92 <USB_DevInit+0xde>
 8005c8a:	69a3      	ldr	r3, [r4, #24]
 8005c8c:	f043 0310 	orr.w	r3, r3, #16
 8005c90:	61a3      	str	r3, [r4, #24]
 8005c92:	69a2      	ldr	r2, [r4, #24]
 8005c94:	4b23      	ldr	r3, [pc, #140]	@ (8005d24 <USB_DevInit+0x170>)
 8005c96:	4313      	orrs	r3, r2
 8005c98:	61a3      	str	r3, [r4, #24]
 8005c9a:	f89d 302a 	ldrb.w	r3, [sp, #42]	@ 0x2a
 8005c9e:	b11b      	cbz	r3, 8005ca8 <USB_DevInit+0xf4>
 8005ca0:	69a3      	ldr	r3, [r4, #24]
 8005ca2:	f043 0308 	orr.w	r3, r3, #8
 8005ca6:	61a3      	str	r3, [r4, #24]
 8005ca8:	2d01      	cmp	r5, #1
 8005caa:	bf01      	itttt	eq
 8005cac:	69a3      	ldreq	r3, [r4, #24]
 8005cae:	f043 4380 	orreq.w	r3, r3, #1073741824	@ 0x40000000
 8005cb2:	f043 0304 	orreq.w	r3, r3, #4
 8005cb6:	61a3      	streq	r3, [r4, #24]
 8005cb8:	e8bd 43f8 	ldmia.w	sp!, {r3, r4, r5, r6, r7, r8, r9, lr}
 8005cbc:	b004      	add	sp, #16
 8005cbe:	4770      	bx	lr
 8005cc0:	6ba3      	ldr	r3, [r4, #56]	@ 0x38
 8005cc2:	f423 1300 	bic.w	r3, r3, #2097152	@ 0x200000
 8005cc6:	63a3      	str	r3, [r4, #56]	@ 0x38
 8005cc8:	6ba3      	ldr	r3, [r4, #56]	@ 0x38
 8005cca:	f443 2300 	orr.w	r3, r3, #524288	@ 0x80000
 8005cce:	e799      	b.n	8005c04 <USB_DevInit+0x50>
 8005cd0:	4619      	mov	r1, r3
 8005cd2:	e7a3      	b.n	8005c1c <USB_DevInit+0x68>
 8005cd4:	2103      	movs	r1, #3
 8005cd6:	e7a1      	b.n	8005c1c <USB_DevInit+0x68>
 8005cd8:	f8d2 9000 	ldr.w	r9, [r2]
 8005cdc:	f1b9 0f00 	cmp.w	r9, #0
 8005ce0:	da0b      	bge.n	8005cfa <USB_DevInit+0x146>
 8005ce2:	b93b      	cbnz	r3, 8005cf4 <USB_DevInit+0x140>
 8005ce4:	f8c2 e000 	str.w	lr, [r2]
 8005ce8:	6111      	str	r1, [r2, #16]
 8005cea:	3301      	adds	r3, #1
 8005cec:	f8c2 8008 	str.w	r8, [r2, #8]
 8005cf0:	3220      	adds	r2, #32
 8005cf2:	e7b0      	b.n	8005c56 <USB_DevInit+0xa2>
 8005cf4:	f8c2 c000 	str.w	ip, [r2]
 8005cf8:	e7f6      	b.n	8005ce8 <USB_DevInit+0x134>
 8005cfa:	6011      	str	r1, [r2, #0]
 8005cfc:	e7f4      	b.n	8005ce8 <USB_DevInit+0x134>
 8005cfe:	f8d3 9000 	ldr.w	r9, [r3]
 8005d02:	f1b9 0f00 	cmp.w	r9, #0
 8005d06:	da0b      	bge.n	8005d20 <USB_DevInit+0x16c>
 8005d08:	b93a      	cbnz	r2, 8005d1a <USB_DevInit+0x166>
 8005d0a:	f8c3 e000 	str.w	lr, [r3]
 8005d0e:	6119      	str	r1, [r3, #16]
 8005d10:	3201      	adds	r2, #1
 8005d12:	f8c3 8008 	str.w	r8, [r3, #8]
 8005d16:	3320      	adds	r3, #32
 8005d18:	e7a9      	b.n	8005c6e <USB_DevInit+0xba>
 8005d1a:	f8c3 c000 	str.w	ip, [r3]
 8005d1e:	e7f6      	b.n	8005d0e <USB_DevInit+0x15a>
 8005d20:	6019      	str	r1, [r3, #0]
 8005d22:	e7f4      	b.n	8005d0e <USB_DevInit+0x15a>
 8005d24:	803c3800 	.word	0x803c3800

08005d28 <USB_GetDevSpeed>:
 8005d28:	f8d0 3808 	ldr.w	r3, [r0, #2056]	@ 0x808
 8005d2c:	f013 0006 	ands.w	r0, r3, #6
 8005d30:	d004      	beq.n	8005d3c <USB_GetDevSpeed+0x14>
 8005d32:	f013 0f02 	tst.w	r3, #2
 8005d36:	bf14      	ite	ne
 8005d38:	2002      	movne	r0, #2
 8005d3a:	200f      	moveq	r0, #15
 8005d3c:	4770      	bx	lr

08005d3e <USB_ActivateEndpoint>:
 8005d3e:	b530      	push	{r4, r5, lr}
 8005d40:	780c      	ldrb	r4, [r1, #0]
 8005d42:	2201      	movs	r2, #1
 8005d44:	f004 050f 	and.w	r5, r4, #15
 8005d48:	40aa      	lsls	r2, r5
 8005d4a:	784d      	ldrb	r5, [r1, #1]
 8005d4c:	2d01      	cmp	r5, #1
 8005d4e:	f500 6300 	add.w	r3, r0, #2048	@ 0x800
 8005d52:	eb00 1044 	add.w	r0, r0, r4, lsl #5
 8005d56:	d119      	bne.n	8005d8c <USB_ActivateEndpoint+0x4e>
 8005d58:	69dd      	ldr	r5, [r3, #28]
 8005d5a:	432a      	orrs	r2, r5
 8005d5c:	61da      	str	r2, [r3, #28]
 8005d5e:	f8d0 3900 	ldr.w	r3, [r0, #2304]	@ 0x900
 8005d62:	041a      	lsls	r2, r3, #16
 8005d64:	d410      	bmi.n	8005d88 <USB_ActivateEndpoint+0x4a>
 8005d66:	688a      	ldr	r2, [r1, #8]
 8005d68:	f8d0 5900 	ldr.w	r5, [r0, #2304]	@ 0x900
 8005d6c:	f3c2 030a 	ubfx	r3, r2, #0, #11
 8005d70:	790a      	ldrb	r2, [r1, #4]
 8005d72:	432b      	orrs	r3, r5
 8005d74:	ea43 4382 	orr.w	r3, r3, r2, lsl #18
 8005d78:	ea43 5384 	orr.w	r3, r3, r4, lsl #22
 8005d7c:	f043 5380 	orr.w	r3, r3, #268435456	@ 0x10000000
 8005d80:	f443 4300 	orr.w	r3, r3, #32768	@ 0x8000
 8005d84:	f8c0 3900 	str.w	r3, [r0, #2304]	@ 0x900
 8005d88:	2000      	movs	r0, #0
 8005d8a:	bd30      	pop	{r4, r5, pc}
 8005d8c:	69dc      	ldr	r4, [r3, #28]
 8005d8e:	ea44 4202 	orr.w	r2, r4, r2, lsl #16
 8005d92:	61da      	str	r2, [r3, #28]
 8005d94:	f8d0 3b00 	ldr.w	r3, [r0, #2816]	@ 0xb00
 8005d98:	041b      	lsls	r3, r3, #16
 8005d9a:	d4f5      	bmi.n	8005d88 <USB_ActivateEndpoint+0x4a>
 8005d9c:	688b      	ldr	r3, [r1, #8]
 8005d9e:	f8d0 2b00 	ldr.w	r2, [r0, #2816]	@ 0xb00
 8005da2:	f3c3 030a 	ubfx	r3, r3, #0, #11
 8005da6:	4313      	orrs	r3, r2
 8005da8:	790a      	ldrb	r2, [r1, #4]
 8005daa:	ea43 4382 	orr.w	r3, r3, r2, lsl #18
 8005dae:	f043 5380 	orr.w	r3, r3, #268435456	@ 0x10000000
 8005db2:	f443 4300 	orr.w	r3, r3, #32768	@ 0x8000
 8005db6:	f8c0 3b00 	str.w	r3, [r0, #2816]	@ 0xb00
 8005dba:	e7e5      	b.n	8005d88 <USB_ActivateEndpoint+0x4a>

08005dbc <USB_DeactivateEndpoint>:
 8005dbc:	b510      	push	{r4, lr}
 8005dbe:	780a      	ldrb	r2, [r1, #0]
 8005dc0:	7849      	ldrb	r1, [r1, #1]
 8005dc2:	2901      	cmp	r1, #1
 8005dc4:	eb00 1342 	add.w	r3, r0, r2, lsl #5
 8005dc8:	f500 6000 	add.w	r0, r0, #2048	@ 0x800
 8005dcc:	f002 020f 	and.w	r2, r2, #15
 8005dd0:	d122      	bne.n	8005e18 <USB_DeactivateEndpoint+0x5c>
 8005dd2:	f8d3 1900 	ldr.w	r1, [r3, #2304]	@ 0x900
 8005dd6:	2900      	cmp	r1, #0
 8005dd8:	da0b      	bge.n	8005df2 <USB_DeactivateEndpoint+0x36>
 8005dda:	f8d3 1900 	ldr.w	r1, [r3, #2304]	@ 0x900
 8005dde:	f041 6100 	orr.w	r1, r1, #134217728	@ 0x8000000
 8005de2:	f8c3 1900 	str.w	r1, [r3, #2304]	@ 0x900
 8005de6:	f8d3 1900 	ldr.w	r1, [r3, #2304]	@ 0x900
 8005dea:	f041 4180 	orr.w	r1, r1, #1073741824	@ 0x40000000
 8005dee:	f8c3 1900 	str.w	r1, [r3, #2304]	@ 0x900
 8005df2:	6bc4      	ldr	r4, [r0, #60]	@ 0x3c
 8005df4:	2101      	movs	r1, #1
 8005df6:	fa01 f202 	lsl.w	r2, r1, r2
 8005dfa:	ea24 0402 	bic.w	r4, r4, r2
 8005dfe:	63c4      	str	r4, [r0, #60]	@ 0x3c
 8005e00:	69c1      	ldr	r1, [r0, #28]
 8005e02:	ea21 0202 	bic.w	r2, r1, r2
 8005e06:	61c2      	str	r2, [r0, #28]
 8005e08:	f8d3 1900 	ldr.w	r1, [r3, #2304]	@ 0x900
 8005e0c:	4a14      	ldr	r2, [pc, #80]	@ (8005e60 <USB_DeactivateEndpoint+0xa4>)
 8005e0e:	400a      	ands	r2, r1
 8005e10:	f8c3 2900 	str.w	r2, [r3, #2304]	@ 0x900
 8005e14:	2000      	movs	r0, #0
 8005e16:	bd10      	pop	{r4, pc}
 8005e18:	f8d3 1b00 	ldr.w	r1, [r3, #2816]	@ 0xb00
 8005e1c:	2900      	cmp	r1, #0
 8005e1e:	da0b      	bge.n	8005e38 <USB_DeactivateEndpoint+0x7c>
 8005e20:	f8d3 1b00 	ldr.w	r1, [r3, #2816]	@ 0xb00
 8005e24:	f041 6100 	orr.w	r1, r1, #134217728	@ 0x8000000
 8005e28:	f8c3 1b00 	str.w	r1, [r3, #2816]	@ 0xb00
 8005e2c:	f8d3 1b00 	ldr.w	r1, [r3, #2816]	@ 0xb00
 8005e30:	f041 4180 	orr.w	r1, r1, #1073741824	@ 0x40000000
 8005e34:	f8c3 1b00 	str.w	r1, [r3, #2816]	@ 0xb00
 8005e38:	6bc4      	ldr	r4, [r0, #60]	@ 0x3c
 8005e3a:	f44f 3180 	mov.w	r1, #65536	@ 0x10000
 8005e3e:	fa01 f202 	lsl.w	r2, r1, r2
 8005e42:	ea24 0402 	bic.w	r4, r4, r2
 8005e46:	63c4      	str	r4, [r0, #60]	@ 0x3c
 8005e48:	69c1      	ldr	r1, [r0, #28]
 8005e4a:	ea21 0202 	bic.w	r2, r1, r2
 8005e4e:	61c2      	str	r2, [r0, #28]
 8005e50:	f8d3 1b00 	ldr.w	r1, [r3, #2816]	@ 0xb00
 8005e54:	4a03      	ldr	r2, [pc, #12]	@ (8005e64 <USB_DeactivateEndpoint+0xa8>)
 8005e56:	400a      	ands	r2, r1
 8005e58:	f8c3 2b00 	str.w	r2, [r3, #2816]	@ 0xb00
 8005e5c:	e7da      	b.n	8005e14 <USB_DeactivateEndpoint+0x58>
 8005e5e:	bf00      	nop
 8005e60:	ec337800 	.word	0xec337800
 8005e64:	eff37800 	.word	0xeff37800

08005e68 <USB_EPStopXfer>:
 8005e68:	b082      	sub	sp, #8
 8005e6a:	2300      	movs	r3, #0
 8005e6c:	784a      	ldrb	r2, [r1, #1]
 8005e6e:	9301      	str	r3, [sp, #4]
 8005e70:	780b      	ldrb	r3, [r1, #0]
 8005e72:	2a01      	cmp	r2, #1
 8005e74:	ea4f 1343 	mov.w	r3, r3, lsl #5
 8005e78:	d11e      	bne.n	8005eb8 <USB_EPStopXfer+0x50>
 8005e7a:	f500 6010 	add.w	r0, r0, #2304	@ 0x900
 8005e7e:	18c1      	adds	r1, r0, r3
 8005e80:	58c2      	ldr	r2, [r0, r3]
 8005e82:	2a00      	cmp	r2, #0
 8005e84:	db02      	blt.n	8005e8c <USB_EPStopXfer+0x24>
 8005e86:	2000      	movs	r0, #0
 8005e88:	b002      	add	sp, #8
 8005e8a:	4770      	bx	lr
 8005e8c:	58c2      	ldr	r2, [r0, r3]
 8005e8e:	f042 6200 	orr.w	r2, r2, #134217728	@ 0x8000000
 8005e92:	50c2      	str	r2, [r0, r3]
 8005e94:	58c2      	ldr	r2, [r0, r3]
 8005e96:	f042 4280 	orr.w	r2, r2, #1073741824	@ 0x40000000
 8005e9a:	50c2      	str	r2, [r0, r3]
 8005e9c:	f242 7210 	movw	r2, #10000	@ 0x2710
 8005ea0:	9b01      	ldr	r3, [sp, #4]
 8005ea2:	3301      	adds	r3, #1
 8005ea4:	9301      	str	r3, [sp, #4]
 8005ea6:	9b01      	ldr	r3, [sp, #4]
 8005ea8:	4293      	cmp	r3, r2
 8005eaa:	d901      	bls.n	8005eb0 <USB_EPStopXfer+0x48>
 8005eac:	2001      	movs	r0, #1
 8005eae:	e7eb      	b.n	8005e88 <USB_EPStopXfer+0x20>
 8005eb0:	680b      	ldr	r3, [r1, #0]
 8005eb2:	2b00      	cmp	r3, #0
 8005eb4:	dbf4      	blt.n	8005ea0 <USB_EPStopXfer+0x38>
 8005eb6:	e7e6      	b.n	8005e86 <USB_EPStopXfer+0x1e>
 8005eb8:	f500 6030 	add.w	r0, r0, #2816	@ 0xb00
 8005ebc:	18c1      	adds	r1, r0, r3
 8005ebe:	58c2      	ldr	r2, [r0, r3]
 8005ec0:	2a00      	cmp	r2, #0
 8005ec2:	dae0      	bge.n	8005e86 <USB_EPStopXfer+0x1e>
 8005ec4:	58c2      	ldr	r2, [r0, r3]
 8005ec6:	f042 6200 	orr.w	r2, r2, #134217728	@ 0x8000000
 8005eca:	50c2      	str	r2, [r0, r3]
 8005ecc:	58c2      	ldr	r2, [r0, r3]
 8005ece:	f042 4280 	orr.w	r2, r2, #1073741824	@ 0x40000000
 8005ed2:	50c2      	str	r2, [r0, r3]
 8005ed4:	f242 7210 	movw	r2, #10000	@ 0x2710
 8005ed8:	9b01      	ldr	r3, [sp, #4]
 8005eda:	3301      	adds	r3, #1
 8005edc:	9301      	str	r3, [sp, #4]
 8005ede:	9b01      	ldr	r3, [sp, #4]
 8005ee0:	4293      	cmp	r3, r2
 8005ee2:	d8e3      	bhi.n	8005eac <USB_EPStopXfer+0x44>
 8005ee4:	680b      	ldr	r3, [r1, #0]
 8005ee6:	2b00      	cmp	r3, #0
 8005ee8:	dbf6      	blt.n	8005ed8 <USB_EPStopXfer+0x70>
 8005eea:	e7cc      	b.n	8005e86 <USB_EPStopXfer+0x1e>

08005eec <USB_WritePacket>:
 8005eec:	b510      	push	{r4, lr}
 8005eee:	f89d 4008 	ldrb.w	r4, [sp, #8]
 8005ef2:	b944      	cbnz	r4, 8005f06 <USB_WritePacket+0x1a>
 8005ef4:	3303      	adds	r3, #3
 8005ef6:	3201      	adds	r2, #1
 8005ef8:	089b      	lsrs	r3, r3, #2
 8005efa:	eb00 3002 	add.w	r0, r0, r2, lsl #12
 8005efe:	eb01 0383 	add.w	r3, r1, r3, lsl #2
 8005f02:	4299      	cmp	r1, r3
 8005f04:	d101      	bne.n	8005f0a <USB_WritePacket+0x1e>
 8005f06:	2000      	movs	r0, #0
 8005f08:	bd10      	pop	{r4, pc}
 8005f0a:	f851 2b04 	ldr.w	r2, [r1], #4
 8005f0e:	6002      	str	r2, [r0, #0]
 8005f10:	e7f7      	b.n	8005f02 <USB_WritePacket+0x16>
	...

08005f14 <USB_EPStartXfer>:
 8005f14:	e92d 41f3 	stmdb	sp!, {r0, r1, r4, r5, r6, r7, r8, lr}
 8005f18:	784b      	ldrb	r3, [r1, #1]
 8005f1a:	690c      	ldr	r4, [r1, #16]
 8005f1c:	790f      	ldrb	r7, [r1, #4]
 8005f1e:	f8df e1f0 	ldr.w	lr, [pc, #496]	@ 8006110 <USB_EPStartXfer+0x1fc>
 8005f22:	f8df 81f0 	ldr.w	r8, [pc, #496]	@ 8006114 <USB_EPStartXfer+0x200>
 8005f26:	4616      	mov	r6, r2
 8005f28:	780a      	ldrb	r2, [r1, #0]
 8005f2a:	2b01      	cmp	r3, #1
 8005f2c:	eb00 1542 	add.w	r5, r0, r2, lsl #5
 8005f30:	f040 8097 	bne.w	8006062 <USB_EPStartXfer+0x14e>
 8005f34:	f505 6c10 	add.w	ip, r5, #2304	@ 0x900
 8005f38:	f8dc 3010 	ldr.w	r3, [ip, #16]
 8005f3c:	bb74      	cbnz	r4, 8005f9c <USB_EPStartXfer+0x88>
 8005f3e:	ea03 030e 	and.w	r3, r3, lr
 8005f42:	f8cc 3010 	str.w	r3, [ip, #16]
 8005f46:	f8dc 3010 	ldr.w	r3, [ip, #16]
 8005f4a:	f443 2300 	orr.w	r3, r3, #524288	@ 0x80000
 8005f4e:	f8cc 3010 	str.w	r3, [ip, #16]
 8005f52:	f8dc 3010 	ldr.w	r3, [ip, #16]
 8005f56:	ea03 0308 	and.w	r3, r3, r8
 8005f5a:	2e01      	cmp	r6, #1
 8005f5c:	f8cc 3010 	str.w	r3, [ip, #16]
 8005f60:	d157      	bne.n	8006012 <USB_EPStartXfer+0xfe>
 8005f62:	69cb      	ldr	r3, [r1, #28]
 8005f64:	b10b      	cbz	r3, 8005f6a <USB_EPStartXfer+0x56>
 8005f66:	f8cc 3014 	str.w	r3, [ip, #20]
 8005f6a:	2f01      	cmp	r7, #1
 8005f6c:	d10c      	bne.n	8005f88 <USB_EPStartXfer+0x74>
 8005f6e:	f8d0 3808 	ldr.w	r3, [r0, #2056]	@ 0x808
 8005f72:	f413 7f80 	tst.w	r3, #256	@ 0x100
 8005f76:	f8d5 3900 	ldr.w	r3, [r5, #2304]	@ 0x900
 8005f7a:	bf0c      	ite	eq
 8005f7c:	f043 5300 	orreq.w	r3, r3, #536870912	@ 0x20000000
 8005f80:	f043 5380 	orrne.w	r3, r3, #268435456	@ 0x10000000
 8005f84:	f8c5 3900 	str.w	r3, [r5, #2304]	@ 0x900
 8005f88:	f8d5 3900 	ldr.w	r3, [r5, #2304]	@ 0x900
 8005f8c:	f043 4304 	orr.w	r3, r3, #2214592512	@ 0x84000000
 8005f90:	f8c5 3900 	str.w	r3, [r5, #2304]	@ 0x900
 8005f94:	2000      	movs	r0, #0
 8005f96:	b002      	add	sp, #8
 8005f98:	e8bd 81f0 	ldmia.w	sp!, {r4, r5, r6, r7, r8, pc}
 8005f9c:	ea03 0308 	and.w	r3, r3, r8
 8005fa0:	f8cc 3010 	str.w	r3, [ip, #16]
 8005fa4:	f8dc 3010 	ldr.w	r3, [ip, #16]
 8005fa8:	ea03 030e 	and.w	r3, r3, lr
 8005fac:	f8cc 3010 	str.w	r3, [ip, #16]
 8005fb0:	688b      	ldr	r3, [r1, #8]
 8005fb2:	b97a      	cbnz	r2, 8005fd4 <USB_EPStartXfer+0xc0>
 8005fb4:	42a3      	cmp	r3, r4
 8005fb6:	bf38      	it	cc
 8005fb8:	610b      	strcc	r3, [r1, #16]
 8005fba:	f8dc 3010 	ldr.w	r3, [ip, #16]
 8005fbe:	f443 2300 	orr.w	r3, r3, #524288	@ 0x80000
 8005fc2:	f8cc 3010 	str.w	r3, [ip, #16]
 8005fc6:	690b      	ldr	r3, [r1, #16]
 8005fc8:	f8dc 4010 	ldr.w	r4, [ip, #16]
 8005fcc:	f3c3 0312 	ubfx	r3, r3, #0, #19
 8005fd0:	4323      	orrs	r3, r4
 8005fd2:	e7c2      	b.n	8005f5a <USB_EPStartXfer+0x46>
 8005fd4:	441c      	add	r4, r3
 8005fd6:	3c01      	subs	r4, #1
 8005fd8:	fbb4 f4f3 	udiv	r4, r4, r3
 8005fdc:	4b4b      	ldr	r3, [pc, #300]	@ (800610c <USB_EPStartXfer+0x1f8>)
 8005fde:	f8dc e010 	ldr.w	lr, [ip, #16]
 8005fe2:	fa1f f884 	uxth.w	r8, r4
 8005fe6:	ea03 44c4 	and.w	r4, r3, r4, lsl #19
 8005fea:	ea44 040e 	orr.w	r4, r4, lr
 8005fee:	2f01      	cmp	r7, #1
 8005ff0:	f8cc 4010 	str.w	r4, [ip, #16]
 8005ff4:	d1e7      	bne.n	8005fc6 <USB_EPStartXfer+0xb2>
 8005ff6:	f8dc 3010 	ldr.w	r3, [ip, #16]
 8005ffa:	f023 43c0 	bic.w	r3, r3, #1610612736	@ 0x60000000
 8005ffe:	f8cc 3010 	str.w	r3, [ip, #16]
 8006002:	f8dc 4010 	ldr.w	r4, [ip, #16]
 8006006:	ea4f 7348 	mov.w	r3, r8, lsl #29
 800600a:	f003 43c0 	and.w	r3, r3, #1610612736	@ 0x60000000
 800600e:	4323      	orrs	r3, r4
 8006010:	e7d7      	b.n	8005fc2 <USB_EPStartXfer+0xae>
 8006012:	f8d5 3900 	ldr.w	r3, [r5, #2304]	@ 0x900
 8006016:	2f01      	cmp	r7, #1
 8006018:	f043 4304 	orr.w	r3, r3, #2214592512	@ 0x84000000
 800601c:	f8c5 3900 	str.w	r3, [r5, #2304]	@ 0x900
 8006020:	690b      	ldr	r3, [r1, #16]
 8006022:	d00b      	beq.n	800603c <USB_EPStartXfer+0x128>
 8006024:	2b00      	cmp	r3, #0
 8006026:	d0b5      	beq.n	8005f94 <USB_EPStartXfer+0x80>
 8006028:	f8d0 1834 	ldr.w	r1, [r0, #2100]	@ 0x834
 800602c:	f002 020f 	and.w	r2, r2, #15
 8006030:	2301      	movs	r3, #1
 8006032:	4093      	lsls	r3, r2
 8006034:	430b      	orrs	r3, r1
 8006036:	f8c0 3834 	str.w	r3, [r0, #2100]	@ 0x834
 800603a:	e7ab      	b.n	8005f94 <USB_EPStartXfer+0x80>
 800603c:	f8d0 4808 	ldr.w	r4, [r0, #2056]	@ 0x808
 8006040:	f414 7f80 	tst.w	r4, #256	@ 0x100
 8006044:	f8d5 4900 	ldr.w	r4, [r5, #2304]	@ 0x900
 8006048:	bf0c      	ite	eq
 800604a:	f044 5400 	orreq.w	r4, r4, #536870912	@ 0x20000000
 800604e:	f044 5480 	orrne.w	r4, r4, #268435456	@ 0x10000000
 8006052:	f8c5 4900 	str.w	r4, [r5, #2304]	@ 0x900
 8006056:	9600      	str	r6, [sp, #0]
 8006058:	68c9      	ldr	r1, [r1, #12]
 800605a:	b29b      	uxth	r3, r3
 800605c:	f7ff ff46 	bl	8005eec <USB_WritePacket>
 8006060:	e798      	b.n	8005f94 <USB_EPStartXfer+0x80>
 8006062:	f8d5 3b10 	ldr.w	r3, [r5, #2832]	@ 0xb10
 8006066:	ea03 0308 	and.w	r3, r3, r8
 800606a:	f8c5 3b10 	str.w	r3, [r5, #2832]	@ 0xb10
 800606e:	f8d5 3b10 	ldr.w	r3, [r5, #2832]	@ 0xb10
 8006072:	ea03 030e 	and.w	r3, r3, lr
 8006076:	f505 6c30 	add.w	ip, r5, #2816	@ 0xb00
 800607a:	f8cc 3010 	str.w	r3, [ip, #16]
 800607e:	688b      	ldr	r3, [r1, #8]
 8006080:	bb5a      	cbnz	r2, 80060da <USB_EPStartXfer+0x1c6>
 8006082:	b104      	cbz	r4, 8006086 <USB_EPStartXfer+0x172>
 8006084:	610b      	str	r3, [r1, #16]
 8006086:	620b      	str	r3, [r1, #32]
 8006088:	f8dc 2010 	ldr.w	r2, [ip, #16]
 800608c:	f3c3 0312 	ubfx	r3, r3, #0, #19
 8006090:	4313      	orrs	r3, r2
 8006092:	f8cc 3010 	str.w	r3, [ip, #16]
 8006096:	f8dc 3010 	ldr.w	r3, [ip, #16]
 800609a:	f443 2300 	orr.w	r3, r3, #524288	@ 0x80000
 800609e:	2e01      	cmp	r6, #1
 80060a0:	f8cc 3010 	str.w	r3, [ip, #16]
 80060a4:	d103      	bne.n	80060ae <USB_EPStartXfer+0x19a>
 80060a6:	68cb      	ldr	r3, [r1, #12]
 80060a8:	b10b      	cbz	r3, 80060ae <USB_EPStartXfer+0x19a>
 80060aa:	f8cc 3014 	str.w	r3, [ip, #20]
 80060ae:	2f01      	cmp	r7, #1
 80060b0:	d10c      	bne.n	80060cc <USB_EPStartXfer+0x1b8>
 80060b2:	f8d0 3808 	ldr.w	r3, [r0, #2056]	@ 0x808
 80060b6:	f413 7f80 	tst.w	r3, #256	@ 0x100
 80060ba:	f8d5 3b00 	ldr.w	r3, [r5, #2816]	@ 0xb00
 80060be:	bf0c      	ite	eq
 80060c0:	f043 5300 	orreq.w	r3, r3, #536870912	@ 0x20000000
 80060c4:	f043 5380 	orrne.w	r3, r3, #268435456	@ 0x10000000
 80060c8:	f8c5 3b00 	str.w	r3, [r5, #2816]	@ 0xb00
 80060cc:	f8d5 3b00 	ldr.w	r3, [r5, #2816]	@ 0xb00
 80060d0:	f043 4304 	orr.w	r3, r3, #2214592512	@ 0x84000000
 80060d4:	f8c5 3b00 	str.w	r3, [r5, #2816]	@ 0xb00
 80060d8:	e75c      	b.n	8005f94 <USB_EPStartXfer+0x80>
 80060da:	2c00      	cmp	r4, #0
 80060dc:	d0d4      	beq.n	8006088 <USB_EPStartXfer+0x174>
 80060de:	441c      	add	r4, r3
 80060e0:	4a0a      	ldr	r2, [pc, #40]	@ (800610c <USB_EPStartXfer+0x1f8>)
 80060e2:	f8dc e010 	ldr.w	lr, [ip, #16]
 80060e6:	3c01      	subs	r4, #1
 80060e8:	fbb4 f4f3 	udiv	r4, r4, r3
 80060ec:	b2a4      	uxth	r4, r4
 80060ee:	ea02 42c4 	and.w	r2, r2, r4, lsl #19
 80060f2:	4363      	muls	r3, r4
 80060f4:	ea42 020e 	orr.w	r2, r2, lr
 80060f8:	620b      	str	r3, [r1, #32]
 80060fa:	f8cc 2010 	str.w	r2, [ip, #16]
 80060fe:	f8dc 2010 	ldr.w	r2, [ip, #16]
 8006102:	f3c3 0312 	ubfx	r3, r3, #0, #19
 8006106:	4313      	orrs	r3, r2
 8006108:	e7c9      	b.n	800609e <USB_EPStartXfer+0x18a>
 800610a:	bf00      	nop
 800610c:	1ff80000 	.word	0x1ff80000
 8006110:	e007ffff 	.word	0xe007ffff
 8006114:	fff80000 	.word	0xfff80000

08006118 <USB_ReadPacket>:
 8006118:	4603      	mov	r3, r0
 800611a:	b570      	push	{r4, r5, r6, lr}
 800611c:	2000      	movs	r0, #0
 800611e:	0894      	lsrs	r4, r2, #2
 8006120:	f503 5580 	add.w	r5, r3, #4096	@ 0x1000
 8006124:	f002 0203 	and.w	r2, r2, #3
 8006128:	42a0      	cmp	r0, r4
 800612a:	d310      	bcc.n	800614e <USB_ReadPacket+0x36>
 800612c:	eb01 0084 	add.w	r0, r1, r4, lsl #2
 8006130:	b162      	cbz	r2, 800614c <USB_ReadPacket+0x34>
 8006132:	f503 5380 	add.w	r3, r3, #4096	@ 0x1000
 8006136:	681c      	ldr	r4, [r3, #0]
 8006138:	2300      	movs	r3, #0
 800613a:	00d9      	lsls	r1, r3, #3
 800613c:	fa24 f101 	lsr.w	r1, r4, r1
 8006140:	54c1      	strb	r1, [r0, r3]
 8006142:	3301      	adds	r3, #1
 8006144:	b299      	uxth	r1, r3
 8006146:	428a      	cmp	r2, r1
 8006148:	d1f7      	bne.n	800613a <USB_ReadPacket+0x22>
 800614a:	4410      	add	r0, r2
 800614c:	bd70      	pop	{r4, r5, r6, pc}
 800614e:	682e      	ldr	r6, [r5, #0]
 8006150:	f841 6020 	str.w	r6, [r1, r0, lsl #2]
 8006154:	3001      	adds	r0, #1
 8006156:	e7e7      	b.n	8006128 <USB_ReadPacket+0x10>

08006158 <USB_EPSetStall>:
 8006158:	784a      	ldrb	r2, [r1, #1]
 800615a:	780b      	ldrb	r3, [r1, #0]
 800615c:	2a01      	cmp	r2, #1
 800615e:	eb00 1043 	add.w	r0, r0, r3, lsl #5
 8006162:	d112      	bne.n	800618a <USB_EPSetStall+0x32>
 8006164:	f8d0 2900 	ldr.w	r2, [r0, #2304]	@ 0x900
 8006168:	2a00      	cmp	r2, #0
 800616a:	db06      	blt.n	800617a <USB_EPSetStall+0x22>
 800616c:	b12b      	cbz	r3, 800617a <USB_EPSetStall+0x22>
 800616e:	f8d0 3900 	ldr.w	r3, [r0, #2304]	@ 0x900
 8006172:	f023 4380 	bic.w	r3, r3, #1073741824	@ 0x40000000
 8006176:	f8c0 3900 	str.w	r3, [r0, #2304]	@ 0x900
 800617a:	f8d0 3900 	ldr.w	r3, [r0, #2304]	@ 0x900
 800617e:	f443 1300 	orr.w	r3, r3, #2097152	@ 0x200000
 8006182:	f8c0 3900 	str.w	r3, [r0, #2304]	@ 0x900
 8006186:	2000      	movs	r0, #0
 8006188:	4770      	bx	lr
 800618a:	f8d0 2b00 	ldr.w	r2, [r0, #2816]	@ 0xb00
 800618e:	2a00      	cmp	r2, #0
 8006190:	db06      	blt.n	80061a0 <USB_EPSetStall+0x48>
 8006192:	b12b      	cbz	r3, 80061a0 <USB_EPSetStall+0x48>
 8006194:	f8d0 3b00 	ldr.w	r3, [r0, #2816]	@ 0xb00
 8006198:	f023 4380 	bic.w	r3, r3, #1073741824	@ 0x40000000
 800619c:	f8c0 3b00 	str.w	r3, [r0, #2816]	@ 0xb00
 80061a0:	f8d0 3b00 	ldr.w	r3, [r0, #2816]	@ 0xb00
 80061a4:	f443 1300 	orr.w	r3, r3, #2097152	@ 0x200000
 80061a8:	f8c0 3b00 	str.w	r3, [r0, #2816]	@ 0xb00
 80061ac:	e7eb      	b.n	8006186 <USB_EPSetStall+0x2e>

080061ae <USB_EPClearStall>:
 80061ae:	780b      	ldrb	r3, [r1, #0]
 80061b0:	784a      	ldrb	r2, [r1, #1]
 80061b2:	eb00 1043 	add.w	r0, r0, r3, lsl #5
 80061b6:	790b      	ldrb	r3, [r1, #4]
 80061b8:	2a01      	cmp	r2, #1
 80061ba:	f1a3 0302 	sub.w	r3, r3, #2
 80061be:	b2db      	uxtb	r3, r3
 80061c0:	d10f      	bne.n	80061e2 <USB_EPClearStall+0x34>
 80061c2:	f8d0 2900 	ldr.w	r2, [r0, #2304]	@ 0x900
 80061c6:	2b01      	cmp	r3, #1
 80061c8:	f422 1200 	bic.w	r2, r2, #2097152	@ 0x200000
 80061cc:	f8c0 2900 	str.w	r2, [r0, #2304]	@ 0x900
 80061d0:	d805      	bhi.n	80061de <USB_EPClearStall+0x30>
 80061d2:	f8d0 3900 	ldr.w	r3, [r0, #2304]	@ 0x900
 80061d6:	f043 5380 	orr.w	r3, r3, #268435456	@ 0x10000000
 80061da:	f8c0 3900 	str.w	r3, [r0, #2304]	@ 0x900
 80061de:	2000      	movs	r0, #0
 80061e0:	4770      	bx	lr
 80061e2:	f8d0 2b00 	ldr.w	r2, [r0, #2816]	@ 0xb00
 80061e6:	f422 1200 	bic.w	r2, r2, #2097152	@ 0x200000
 80061ea:	2b01      	cmp	r3, #1
 80061ec:	f8c0 2b00 	str.w	r2, [r0, #2816]	@ 0xb00
 80061f0:	bf9e      	ittt	ls
 80061f2:	f8d0 3b00 	ldrls.w	r3, [r0, #2816]	@ 0xb00
 80061f6:	f043 5380 	orrls.w	r3, r3, #268435456	@ 0x10000000
 80061fa:	f8c0 3b00 	strls.w	r3, [r0, #2816]	@ 0xb00
 80061fe:	e7ee      	b.n	80061de <USB_EPClearStall+0x30>

08006200 <USB_SetDevAddress>:
 8006200:	f8d0 3800 	ldr.w	r3, [r0, #2048]	@ 0x800
 8006204:	f423 63fe 	bic.w	r3, r3, #2032	@ 0x7f0
 8006208:	f8c0 3800 	str.w	r3, [r0, #2048]	@ 0x800
 800620c:	f8d0 3800 	ldr.w	r3, [r0, #2048]	@ 0x800
 8006210:	0109      	lsls	r1, r1, #4
 8006212:	f401 61fe 	and.w	r1, r1, #2032	@ 0x7f0
 8006216:	4319      	orrs	r1, r3
 8006218:	f8c0 1800 	str.w	r1, [r0, #2048]	@ 0x800
 800621c:	2000      	movs	r0, #0
 800621e:	4770      	bx	lr

08006220 <USB_DevConnect>:
 8006220:	f8d0 3e00 	ldr.w	r3, [r0, #3584]	@ 0xe00
 8006224:	f023 0303 	bic.w	r3, r3, #3
 8006228:	f8c0 3e00 	str.w	r3, [r0, #3584]	@ 0xe00
 800622c:	f8d0 3804 	ldr.w	r3, [r0, #2052]	@ 0x804
 8006230:	f023 0302 	bic.w	r3, r3, #2
 8006234:	f8c0 3804 	str.w	r3, [r0, #2052]	@ 0x804
 8006238:	2000      	movs	r0, #0
 800623a:	4770      	bx	lr

0800623c <USB_DevDisconnect>:
 800623c:	f8d0 3e00 	ldr.w	r3, [r0, #3584]	@ 0xe00
 8006240:	f023 0303 	bic.w	r3, r3, #3
 8006244:	f8c0 3e00 	str.w	r3, [r0, #3584]	@ 0xe00
 8006248:	f8d0 3804 	ldr.w	r3, [r0, #2052]	@ 0x804
 800624c:	f043 0302 	orr.w	r3, r3, #2
 8006250:	f8c0 3804 	str.w	r3, [r0, #2052]	@ 0x804
 8006254:	2000      	movs	r0, #0
 8006256:	4770      	bx	lr

08006258 <USB_ReadInterrupts>:
 8006258:	6942      	ldr	r2, [r0, #20]
 800625a:	6980      	ldr	r0, [r0, #24]
 800625c:	4010      	ands	r0, r2
 800625e:	4770      	bx	lr

08006260 <USB_ReadDevAllOutEpInterrupt>:
 8006260:	f8d0 3818 	ldr.w	r3, [r0, #2072]	@ 0x818
 8006264:	f500 6000 	add.w	r0, r0, #2048	@ 0x800
 8006268:	69c0      	ldr	r0, [r0, #28]
 800626a:	4018      	ands	r0, r3
 800626c:	0c00      	lsrs	r0, r0, #16
 800626e:	4770      	bx	lr

08006270 <USB_ReadDevAllInEpInterrupt>:
 8006270:	f8d0 3818 	ldr.w	r3, [r0, #2072]	@ 0x818
 8006274:	f500 6000 	add.w	r0, r0, #2048	@ 0x800
 8006278:	69c0      	ldr	r0, [r0, #28]
 800627a:	4018      	ands	r0, r3
 800627c:	b280      	uxth	r0, r0
 800627e:	4770      	bx	lr

08006280 <USB_ReadDevOutEPInterrupt>:
 8006280:	eb00 1141 	add.w	r1, r0, r1, lsl #5
 8006284:	f500 6000 	add.w	r0, r0, #2048	@ 0x800
 8006288:	f8d1 2b08 	ldr.w	r2, [r1, #2824]	@ 0xb08
 800628c:	6940      	ldr	r0, [r0, #20]
 800628e:	4010      	ands	r0, r2
 8006290:	4770      	bx	lr

08006292 <USB_ReadDevInEPInterrupt>:
 8006292:	f8d0 2810 	ldr.w	r2, [r0, #2064]	@ 0x810
 8006296:	f8d0 3834 	ldr.w	r3, [r0, #2100]	@ 0x834
 800629a:	eb00 1041 	add.w	r0, r0, r1, lsl #5
 800629e:	f001 010f 	and.w	r1, r1, #15
 80062a2:	40cb      	lsrs	r3, r1
 80062a4:	f500 6010 	add.w	r0, r0, #2304	@ 0x900
 80062a8:	01db      	lsls	r3, r3, #7
 80062aa:	6880      	ldr	r0, [r0, #8]
 80062ac:	b2db      	uxtb	r3, r3
 80062ae:	4313      	orrs	r3, r2
 80062b0:	4018      	ands	r0, r3
 80062b2:	4770      	bx	lr

080062b4 <USB_GetMode>:
 80062b4:	6940      	ldr	r0, [r0, #20]
 80062b6:	f000 0001 	and.w	r0, r0, #1
 80062ba:	4770      	bx	lr

080062bc <USB_ActivateSetup>:
 80062bc:	f8d0 3900 	ldr.w	r3, [r0, #2304]	@ 0x900
 80062c0:	f36f 030a 	bfc	r3, #0, #11
 80062c4:	f8c0 3900 	str.w	r3, [r0, #2304]	@ 0x900
 80062c8:	f8d0 3804 	ldr.w	r3, [r0, #2052]	@ 0x804
 80062cc:	f443 7380 	orr.w	r3, r3, #256	@ 0x100
 80062d0:	f8c0 3804 	str.w	r3, [r0, #2052]	@ 0x804
 80062d4:	2000      	movs	r0, #0
 80062d6:	4770      	bx	lr

080062d8 <USB_EP0_OutStart>:
 80062d8:	b530      	push	{r4, r5, lr}
 80062da:	6c05      	ldr	r5, [r0, #64]	@ 0x40
 80062dc:	4c10      	ldr	r4, [pc, #64]	@ (8006320 <USB_EP0_OutStart+0x48>)
 80062de:	42a5      	cmp	r5, r4
 80062e0:	f500 6330 	add.w	r3, r0, #2816	@ 0xb00
 80062e4:	d903      	bls.n	80062ee <USB_EP0_OutStart+0x16>
 80062e6:	f8d0 4b00 	ldr.w	r4, [r0, #2816]	@ 0xb00
 80062ea:	2c00      	cmp	r4, #0
 80062ec:	db16      	blt.n	800631c <USB_EP0_OutStart+0x44>
 80062ee:	2400      	movs	r4, #0
 80062f0:	611c      	str	r4, [r3, #16]
 80062f2:	691c      	ldr	r4, [r3, #16]
 80062f4:	f444 2400 	orr.w	r4, r4, #524288	@ 0x80000
 80062f8:	611c      	str	r4, [r3, #16]
 80062fa:	691c      	ldr	r4, [r3, #16]
 80062fc:	f044 0418 	orr.w	r4, r4, #24
 8006300:	611c      	str	r4, [r3, #16]
 8006302:	691c      	ldr	r4, [r3, #16]
 8006304:	2901      	cmp	r1, #1
 8006306:	f044 44c0 	orr.w	r4, r4, #1610612736	@ 0x60000000
 800630a:	611c      	str	r4, [r3, #16]
 800630c:	bf01      	itttt	eq
 800630e:	615a      	streq	r2, [r3, #20]
 8006310:	f8d0 3b00 	ldreq.w	r3, [r0, #2816]	@ 0xb00
 8006314:	f043 2380 	orreq.w	r3, r3, #2147516416	@ 0x80008000
 8006318:	f8c0 3b00 	streq.w	r3, [r0, #2816]	@ 0xb00
 800631c:	2000      	movs	r0, #0
 800631e:	bd30      	pop	{r4, r5, pc}
 8006320:	4f54300a 	.word	0x4f54300a

08006324 <USBD_CDC_EP0_RxReady>:
  * @param  pdev: device instance
  * @retval status
  */
static uint8_t USBD_CDC_EP0_RxReady(USBD_HandleTypeDef *pdev)
{
  USBD_CDC_HandleTypeDef *hcdc = (USBD_CDC_HandleTypeDef *)pdev->pClassDataCmsit[pdev->classId];
 8006324:	f8d0 32d4 	ldr.w	r3, [r0, #724]	@ 0x2d4
 8006328:	eb00 0083 	add.w	r0, r0, r3, lsl #2
{
 800632c:	b510      	push	{r4, lr}
  USBD_CDC_HandleTypeDef *hcdc = (USBD_CDC_HandleTypeDef *)pdev->pClassDataCmsit[pdev->classId];
 800632e:	f8d0 42c0 	ldr.w	r4, [r0, #704]	@ 0x2c0

  if (hcdc == NULL)
 8006332:	b18c      	cbz	r4, 8006358 <USBD_CDC_EP0_RxReady+0x34>
  {
    return (uint8_t)USBD_FAIL;
  }

  if ((pdev->pUserData[pdev->classId] != NULL) && (hcdc->CmdOpCode != 0xFFU))
 8006334:	f8d0 32c4 	ldr.w	r3, [r0, #708]	@ 0x2c4
 8006338:	b11b      	cbz	r3, 8006342 <USBD_CDC_EP0_RxReady+0x1e>
 800633a:	f894 0200 	ldrb.w	r0, [r4, #512]	@ 0x200
 800633e:	28ff      	cmp	r0, #255	@ 0xff
 8006340:	d101      	bne.n	8006346 <USBD_CDC_EP0_RxReady+0x22>
                                                                     (uint8_t *)hcdc->data,
                                                                     (uint16_t)hcdc->CmdLength);
    hcdc->CmdOpCode = 0xFFU;
  }

  return (uint8_t)USBD_OK;
 8006342:	2000      	movs	r0, #0
}
 8006344:	bd10      	pop	{r4, pc}
    ((USBD_CDC_ItfTypeDef *)pdev->pUserData[pdev->classId])->Control(hcdc->CmdOpCode,
 8006346:	689b      	ldr	r3, [r3, #8]
 8006348:	f894 2201 	ldrb.w	r2, [r4, #513]	@ 0x201
 800634c:	4621      	mov	r1, r4
 800634e:	4798      	blx	r3
    hcdc->CmdOpCode = 0xFFU;
 8006350:	23ff      	movs	r3, #255	@ 0xff
 8006352:	f884 3200 	strb.w	r3, [r4, #512]	@ 0x200
 8006356:	e7f4      	b.n	8006342 <USBD_CDC_EP0_RxReady+0x1e>
    return (uint8_t)USBD_FAIL;
 8006358:	2003      	movs	r0, #3
 800635a:	e7f3      	b.n	8006344 <USBD_CDC_EP0_RxReady+0x20>

0800635c <USBD_CDC_GetDeviceQualifierDescriptor>:
  * @param  length : pointer data length
  * @retval pointer to descriptor buffer
  */
uint8_t *USBD_CDC_GetDeviceQualifierDescriptor(uint16_t *length)
{
  *length = (uint16_t)sizeof(USBD_CDC_DeviceQualifierDesc);
 800635c:	230a      	movs	r3, #10
 800635e:	8003      	strh	r3, [r0, #0]

  return USBD_CDC_DeviceQualifierDesc;
}
 8006360:	4800      	ldr	r0, [pc, #0]	@ (8006364 <USBD_CDC_GetDeviceQualifierDescriptor+0x8>)
 8006362:	4770      	bx	lr
 8006364:	2000008c 	.word	0x2000008c

08006368 <USBD_CDC_GetFSCfgDesc>:
{
 8006368:	b570      	push	{r4, r5, r6, lr}
  USBD_EpDescTypeDef *pEpCmdDesc = USBD_GetEpDesc(USBD_CDC_CfgDesc, CDC_CMD_EP);
 800636a:	2182      	movs	r1, #130	@ 0x82
{
 800636c:	4606      	mov	r6, r0
  USBD_EpDescTypeDef *pEpCmdDesc = USBD_GetEpDesc(USBD_CDC_CfgDesc, CDC_CMD_EP);
 800636e:	480f      	ldr	r0, [pc, #60]	@ (80063ac <USBD_CDC_GetFSCfgDesc+0x44>)
 8006370:	f000 fb85 	bl	8006a7e <USBD_GetEpDesc>
  USBD_EpDescTypeDef *pEpOutDesc = USBD_GetEpDesc(USBD_CDC_CfgDesc, CDC_OUT_EP);
 8006374:	2101      	movs	r1, #1
  USBD_EpDescTypeDef *pEpCmdDesc = USBD_GetEpDesc(USBD_CDC_CfgDesc, CDC_CMD_EP);
 8006376:	4605      	mov	r5, r0
  USBD_EpDescTypeDef *pEpOutDesc = USBD_GetEpDesc(USBD_CDC_CfgDesc, CDC_OUT_EP);
 8006378:	480c      	ldr	r0, [pc, #48]	@ (80063ac <USBD_CDC_GetFSCfgDesc+0x44>)
 800637a:	f000 fb80 	bl	8006a7e <USBD_GetEpDesc>
  USBD_EpDescTypeDef *pEpInDesc = USBD_GetEpDesc(USBD_CDC_CfgDesc, CDC_IN_EP);
 800637e:	2181      	movs	r1, #129	@ 0x81
  USBD_EpDescTypeDef *pEpOutDesc = USBD_GetEpDesc(USBD_CDC_CfgDesc, CDC_OUT_EP);
 8006380:	4604      	mov	r4, r0
  USBD_EpDescTypeDef *pEpInDesc = USBD_GetEpDesc(USBD_CDC_CfgDesc, CDC_IN_EP);
 8006382:	480a      	ldr	r0, [pc, #40]	@ (80063ac <USBD_CDC_GetFSCfgDesc+0x44>)
 8006384:	f000 fb7b 	bl	8006a7e <USBD_GetEpDesc>
  if (pEpCmdDesc != NULL)
 8006388:	b10d      	cbz	r5, 800638e <USBD_CDC_GetFSCfgDesc+0x26>
    pEpCmdDesc->bInterval = CDC_FS_BINTERVAL;
 800638a:	2210      	movs	r2, #16
 800638c:	71aa      	strb	r2, [r5, #6]
  if (pEpOutDesc != NULL)
 800638e:	b11c      	cbz	r4, 8006398 <USBD_CDC_GetFSCfgDesc+0x30>
    pEpOutDesc->wMaxPacketSize = CDC_DATA_FS_MAX_PACKET_SIZE;
 8006390:	2240      	movs	r2, #64	@ 0x40
 8006392:	7122      	strb	r2, [r4, #4]
 8006394:	2200      	movs	r2, #0
 8006396:	7162      	strb	r2, [r4, #5]
  if (pEpInDesc != NULL)
 8006398:	b118      	cbz	r0, 80063a2 <USBD_CDC_GetFSCfgDesc+0x3a>
    pEpInDesc->wMaxPacketSize = CDC_DATA_FS_MAX_PACKET_SIZE;
 800639a:	2240      	movs	r2, #64	@ 0x40
 800639c:	7102      	strb	r2, [r0, #4]
 800639e:	2200      	movs	r2, #0
 80063a0:	7142      	strb	r2, [r0, #5]
  *length = (uint16_t)sizeof(USBD_CDC_CfgDesc);
 80063a2:	2343      	movs	r3, #67	@ 0x43
}
 80063a4:	4801      	ldr	r0, [pc, #4]	@ (80063ac <USBD_CDC_GetFSCfgDesc+0x44>)
  *length = (uint16_t)sizeof(USBD_CDC_CfgDesc);
 80063a6:	8033      	strh	r3, [r6, #0]
}
 80063a8:	bd70      	pop	{r4, r5, r6, pc}
 80063aa:	bf00      	nop
 80063ac:	20000010 	.word	0x20000010

080063b0 <USBD_CDC_GetOtherSpeedCfgDesc>:
static uint8_t *USBD_CDC_GetOtherSpeedCfgDesc(uint16_t *length)
 80063b0:	f7ff bfda 	b.w	8006368 <USBD_CDC_GetFSCfgDesc>

080063b4 <USBD_CDC_GetHSCfgDesc>:
{
 80063b4:	b570      	push	{r4, r5, r6, lr}
  USBD_EpDescTypeDef *pEpCmdDesc = USBD_GetEpDesc(USBD_CDC_CfgDesc, CDC_CMD_EP);
 80063b6:	2182      	movs	r1, #130	@ 0x82
{
 80063b8:	4606      	mov	r6, r0
  USBD_EpDescTypeDef *pEpCmdDesc = USBD_GetEpDesc(USBD_CDC_CfgDesc, CDC_CMD_EP);
 80063ba:	480f      	ldr	r0, [pc, #60]	@ (80063f8 <USBD_CDC_GetHSCfgDesc+0x44>)
 80063bc:	f000 fb5f 	bl	8006a7e <USBD_GetEpDesc>
  USBD_EpDescTypeDef *pEpOutDesc = USBD_GetEpDesc(USBD_CDC_CfgDesc, CDC_OUT_EP);
 80063c0:	2101      	movs	r1, #1
  USBD_EpDescTypeDef *pEpCmdDesc = USBD_GetEpDesc(USBD_CDC_CfgDesc, CDC_CMD_EP);
 80063c2:	4605      	mov	r5, r0
  USBD_EpDescTypeDef *pEpOutDesc = USBD_GetEpDesc(USBD_CDC_CfgDesc, CDC_OUT_EP);
 80063c4:	480c      	ldr	r0, [pc, #48]	@ (80063f8 <USBD_CDC_GetHSCfgDesc+0x44>)
 80063c6:	f000 fb5a 	bl	8006a7e <USBD_GetEpDesc>
  USBD_EpDescTypeDef *pEpInDesc = USBD_GetEpDesc(USBD_CDC_CfgDesc, CDC_IN_EP);
 80063ca:	2181      	movs	r1, #129	@ 0x81
  USBD_EpDescTypeDef *pEpOutDesc = USBD_GetEpDesc(USBD_CDC_CfgDesc, CDC_OUT_EP);
 80063cc:	4604      	mov	r4, r0
  USBD_EpDescTypeDef *pEpInDesc = USBD_GetEpDesc(USBD_CDC_CfgDesc, CDC_IN_EP);
 80063ce:	480a      	ldr	r0, [pc, #40]	@ (80063f8 <USBD_CDC_GetHSCfgDesc+0x44>)
 80063d0:	f000 fb55 	bl	8006a7e <USBD_GetEpDesc>
  if (pEpCmdDesc != NULL)
 80063d4:	b10d      	cbz	r5, 80063da <USBD_CDC_GetHSCfgDesc+0x26>
    pEpCmdDesc->bInterval = CDC_HS_BINTERVAL;
 80063d6:	2210      	movs	r2, #16
 80063d8:	71aa      	strb	r2, [r5, #6]
  if (pEpOutDesc != NULL)
 80063da:	b11c      	cbz	r4, 80063e4 <USBD_CDC_GetHSCfgDesc+0x30>
    pEpOutDesc->wMaxPacketSize = CDC_DATA_HS_MAX_PACKET_SIZE;
 80063dc:	2200      	movs	r2, #0
 80063de:	7122      	strb	r2, [r4, #4]
 80063e0:	2202      	movs	r2, #2
 80063e2:	7162      	strb	r2, [r4, #5]
  if (pEpInDesc != NULL)
 80063e4:	b118      	cbz	r0, 80063ee <USBD_CDC_GetHSCfgDesc+0x3a>
    pEpInDesc->wMaxPacketSize = CDC_DATA_HS_MAX_PACKET_SIZE;
 80063e6:	2200      	movs	r2, #0
 80063e8:	7102      	strb	r2, [r0, #4]
 80063ea:	2202      	movs	r2, #2
 80063ec:	7142      	strb	r2, [r0, #5]
  *length = (uint16_t)sizeof(USBD_CDC_CfgDesc);
 80063ee:	2343      	movs	r3, #67	@ 0x43
}
 80063f0:	4801      	ldr	r0, [pc, #4]	@ (80063f8 <USBD_CDC_GetHSCfgDesc+0x44>)
  *length = (uint16_t)sizeof(USBD_CDC_CfgDesc);
 80063f2:	8033      	strh	r3, [r6, #0]
}
 80063f4:	bd70      	pop	{r4, r5, r6, pc}
 80063f6:	bf00      	nop
 80063f8:	20000010 	.word	0x20000010

080063fc <USBD_CDC_DataOut>:
{
 80063fc:	b538      	push	{r3, r4, r5, lr}
  USBD_CDC_HandleTypeDef *hcdc = (USBD_CDC_HandleTypeDef *)pdev->pClassDataCmsit[pdev->classId];
 80063fe:	f8d0 32d4 	ldr.w	r3, [r0, #724]	@ 0x2d4
 8006402:	33b0      	adds	r3, #176	@ 0xb0
{
 8006404:	4604      	mov	r4, r0
  USBD_CDC_HandleTypeDef *hcdc = (USBD_CDC_HandleTypeDef *)pdev->pClassDataCmsit[pdev->classId];
 8006406:	f850 5023 	ldr.w	r5, [r0, r3, lsl #2]
  if (pdev->pClassDataCmsit[pdev->classId] == NULL)
 800640a:	b18d      	cbz	r5, 8006430 <USBD_CDC_DataOut+0x34>
  hcdc->RxLength = USBD_LL_GetRxDataSize(pdev, epnum);
 800640c:	f001 fe96 	bl	800813c <USBD_LL_GetRxDataSize>
  ((USBD_CDC_ItfTypeDef *)pdev->pUserData[pdev->classId])->Receive(hcdc->RxBuffer, &hcdc->RxLength);
 8006410:	f8d4 32d4 	ldr.w	r3, [r4, #724]	@ 0x2d4
  hcdc->RxLength = USBD_LL_GetRxDataSize(pdev, epnum);
 8006414:	f8c5 020c 	str.w	r0, [r5, #524]	@ 0x20c
  ((USBD_CDC_ItfTypeDef *)pdev->pUserData[pdev->classId])->Receive(hcdc->RxBuffer, &hcdc->RxLength);
 8006418:	eb04 0483 	add.w	r4, r4, r3, lsl #2
 800641c:	f8d5 0204 	ldr.w	r0, [r5, #516]	@ 0x204
 8006420:	f8d4 32c4 	ldr.w	r3, [r4, #708]	@ 0x2c4
 8006424:	f505 7103 	add.w	r1, r5, #524	@ 0x20c
 8006428:	68db      	ldr	r3, [r3, #12]
 800642a:	4798      	blx	r3
  return (uint8_t)USBD_OK;
 800642c:	2000      	movs	r0, #0
}
 800642e:	bd38      	pop	{r3, r4, r5, pc}
    return (uint8_t)USBD_FAIL;
 8006430:	2003      	movs	r0, #3
 8006432:	e7fc      	b.n	800642e <USBD_CDC_DataOut+0x32>

08006434 <USBD_CDC_DataIn>:
{
 8006434:	b5f8      	push	{r3, r4, r5, r6, r7, lr}
 8006436:	f8d0 62d4 	ldr.w	r6, [r0, #724]	@ 0x2d4
  PCD_HandleTypeDef *hpcd = (PCD_HandleTypeDef *)pdev->pData;
 800643a:	f8d0 72c8 	ldr.w	r7, [r0, #712]	@ 0x2c8
  if (pdev->pClassDataCmsit[pdev->classId] == NULL)
 800643e:	eb00 0686 	add.w	r6, r0, r6, lsl #2
{
 8006442:	460a      	mov	r2, r1
  if (pdev->pClassDataCmsit[pdev->classId] == NULL)
 8006444:	f8d6 52c0 	ldr.w	r5, [r6, #704]	@ 0x2c0
 8006448:	b325      	cbz	r5, 8006494 <USBD_CDC_DataIn+0x60>
  if ((pdev->ep_in[epnum & 0xFU].total_length > 0U) &&
 800644a:	f001 0c0f 	and.w	ip, r1, #15
 800644e:	2414      	movs	r4, #20
 8006450:	fb04 040c 	mla	r4, r4, ip, r0
 8006454:	6963      	ldr	r3, [r4, #20]
 8006456:	b17b      	cbz	r3, 8006478 <USBD_CDC_DataIn+0x44>
      ((pdev->ep_in[epnum & 0xFU].total_length % hpcd->IN_ep[epnum & 0xFU].maxpacket) == 0U))
 8006458:	f04f 0e24 	mov.w	lr, #36	@ 0x24
 800645c:	fb0e 770c 	mla	r7, lr, ip, r7
 8006460:	69ff      	ldr	r7, [r7, #28]
 8006462:	fbb3 fcf7 	udiv	ip, r3, r7
 8006466:	fb07 331c 	mls	r3, r7, ip, r3
  if ((pdev->ep_in[epnum & 0xFU].total_length > 0U) &&
 800646a:	b92b      	cbnz	r3, 8006478 <USBD_CDC_DataIn+0x44>
    pdev->ep_in[epnum & 0xFU].total_length = 0U;
 800646c:	6163      	str	r3, [r4, #20]
    (void)USBD_LL_Transmit(pdev, epnum, NULL, 0U);
 800646e:	461a      	mov	r2, r3
 8006470:	f001 feac 	bl	80081cc <USBD_LL_Transmit>
  return (uint8_t)USBD_OK;
 8006474:	2000      	movs	r0, #0
}
 8006476:	bdf8      	pop	{r3, r4, r5, r6, r7, pc}
    hcdc->TxState = 0U;
 8006478:	2300      	movs	r3, #0
 800647a:	f8c5 3214 	str.w	r3, [r5, #532]	@ 0x214
    if (((USBD_CDC_ItfTypeDef *)pdev->pUserData[pdev->classId])->TransmitCplt != NULL)
 800647e:	f8d6 32c4 	ldr.w	r3, [r6, #708]	@ 0x2c4
 8006482:	691b      	ldr	r3, [r3, #16]
 8006484:	2b00      	cmp	r3, #0
 8006486:	d0f5      	beq.n	8006474 <USBD_CDC_DataIn+0x40>
      ((USBD_CDC_ItfTypeDef *)pdev->pUserData[pdev->classId])->TransmitCplt(hcdc->TxBuffer, &hcdc->TxLength, epnum);
 8006488:	f8d5 0208 	ldr.w	r0, [r5, #520]	@ 0x208
 800648c:	f505 7104 	add.w	r1, r5, #528	@ 0x210
 8006490:	4798      	blx	r3
 8006492:	e7ef      	b.n	8006474 <USBD_CDC_DataIn+0x40>
    return (uint8_t)USBD_FAIL;
 8006494:	2003      	movs	r0, #3
 8006496:	e7ee      	b.n	8006476 <USBD_CDC_DataIn+0x42>

08006498 <USBD_CDC_Setup>:
  USBD_CDC_HandleTypeDef *hcdc = (USBD_CDC_HandleTypeDef *)pdev->pClassDataCmsit[pdev->classId];
 8006498:	f8d0 32d4 	ldr.w	r3, [r0, #724]	@ 0x2d4
{
 800649c:	b5f7      	push	{r0, r1, r2, r4, r5, r6, r7, lr}
 800649e:	eb00 0383 	add.w	r3, r0, r3, lsl #2
  uint8_t ifalt = 0U;
 80064a2:	2200      	movs	r2, #0
  USBD_CDC_HandleTypeDef *hcdc = (USBD_CDC_HandleTypeDef *)pdev->pClassDataCmsit[pdev->classId];
 80064a4:	f8d3 62c0 	ldr.w	r6, [r3, #704]	@ 0x2c0
  uint8_t ifalt = 0U;
 80064a8:	f88d 2005 	strb.w	r2, [sp, #5]
{
 80064ac:	4604      	mov	r4, r0
 80064ae:	460d      	mov	r5, r1
  uint16_t status_info = 0U;
 80064b0:	f8ad 2006 	strh.w	r2, [sp, #6]
  if (hcdc == NULL)
 80064b4:	2e00      	cmp	r6, #0
 80064b6:	d065      	beq.n	8006584 <USBD_CDC_Setup+0xec>
  switch (req->bmRequest & USB_REQ_TYPE_MASK)
 80064b8:	f891 c000 	ldrb.w	ip, [r1]
 80064bc:	f01c 0260 	ands.w	r2, ip, #96	@ 0x60
 80064c0:	d029      	beq.n	8006516 <USBD_CDC_Setup+0x7e>
 80064c2:	2a20      	cmp	r2, #32
 80064c4:	d15a      	bne.n	800657c <USBD_CDC_Setup+0xe4>
      if (req->wLength != 0U)
 80064c6:	88ca      	ldrh	r2, [r1, #6]
          ((USBD_CDC_ItfTypeDef *)pdev->pUserData[pdev->classId])->Control(req->bRequest,
 80064c8:	784f      	ldrb	r7, [r1, #1]
      if (req->wLength != 0U)
 80064ca:	b1f2      	cbz	r2, 800650a <USBD_CDC_Setup+0x72>
        if ((req->bmRequest & 0x80U) != 0U)
 80064cc:	f01c 0f80 	tst.w	ip, #128	@ 0x80
 80064d0:	d00e      	beq.n	80064f0 <USBD_CDC_Setup+0x58>
          ((USBD_CDC_ItfTypeDef *)pdev->pUserData[pdev->classId])->Control(req->bRequest,
 80064d2:	f8d3 32c4 	ldr.w	r3, [r3, #708]	@ 0x2c4
 80064d6:	4631      	mov	r1, r6
 80064d8:	689b      	ldr	r3, [r3, #8]
 80064da:	4638      	mov	r0, r7
 80064dc:	4798      	blx	r3
          len = MIN(CDC_REQ_MAX_DATA_SIZE, req->wLength);
 80064de:	88ea      	ldrh	r2, [r5, #6]
          (void)USBD_CtlSendData(pdev, (uint8_t *)hcdc->data, len);
 80064e0:	2a07      	cmp	r2, #7
 80064e2:	bf28      	it	cs
 80064e4:	2207      	movcs	r2, #7
 80064e6:	4631      	mov	r1, r6
            (void)USBD_CtlSendData(pdev, (uint8_t *)&status_info, 2U);
 80064e8:	4620      	mov	r0, r4
 80064ea:	f000 fd4e 	bl	8006f8a <USBD_CtlSendData>
 80064ee:	e009      	b.n	8006504 <USBD_CDC_Setup+0x6c>
          hcdc->CmdLength = (uint8_t)MIN(req->wLength, USB_MAX_EP0_SIZE);
 80064f0:	2a40      	cmp	r2, #64	@ 0x40
 80064f2:	bf28      	it	cs
 80064f4:	2240      	movcs	r2, #64	@ 0x40
          hcdc->CmdOpCode = req->bRequest;
 80064f6:	f886 7200 	strb.w	r7, [r6, #512]	@ 0x200
          hcdc->CmdLength = (uint8_t)MIN(req->wLength, USB_MAX_EP0_SIZE);
 80064fa:	f886 2201 	strb.w	r2, [r6, #513]	@ 0x201
          (void)USBD_CtlPrepareRx(pdev, (uint8_t *)hcdc->data, hcdc->CmdLength);
 80064fe:	4631      	mov	r1, r6
 8006500:	f000 fd59 	bl	8006fb6 <USBD_CtlPrepareRx>
    return (uint8_t)USBD_FAIL;
 8006504:	2000      	movs	r0, #0
}
 8006506:	b003      	add	sp, #12
 8006508:	bdf0      	pop	{r4, r5, r6, r7, pc}
        ((USBD_CDC_ItfTypeDef *)pdev->pUserData[pdev->classId])->Control(req->bRequest,
 800650a:	f8d3 32c4 	ldr.w	r3, [r3, #708]	@ 0x2c4
 800650e:	4638      	mov	r0, r7
 8006510:	689b      	ldr	r3, [r3, #8]
 8006512:	4798      	blx	r3
 8006514:	e7f6      	b.n	8006504 <USBD_CDC_Setup+0x6c>
      switch (req->bRequest)
 8006516:	784b      	ldrb	r3, [r1, #1]
 8006518:	2b0b      	cmp	r3, #11
 800651a:	d82f      	bhi.n	800657c <USBD_CDC_Setup+0xe4>
 800651c:	a201      	add	r2, pc, #4	@ (adr r2, 8006524 <USBD_CDC_Setup+0x8c>)
 800651e:	f852 f023 	ldr.w	pc, [r2, r3, lsl #2]
 8006522:	bf00      	nop
 8006524:	08006555 	.word	0x08006555
 8006528:	08006505 	.word	0x08006505
 800652c:	0800657d 	.word	0x0800657d
 8006530:	0800657d 	.word	0x0800657d
 8006534:	0800657d 	.word	0x0800657d
 8006538:	0800657d 	.word	0x0800657d
 800653c:	0800657d 	.word	0x0800657d
 8006540:	0800657d 	.word	0x0800657d
 8006544:	0800657d 	.word	0x0800657d
 8006548:	0800657d 	.word	0x0800657d
 800654c:	08006565 	.word	0x08006565
 8006550:	08006575 	.word	0x08006575
          if (pdev->dev_state == USBD_STATE_CONFIGURED)
 8006554:	f890 329c 	ldrb.w	r3, [r0, #668]	@ 0x29c
 8006558:	2b03      	cmp	r3, #3
 800655a:	d10f      	bne.n	800657c <USBD_CDC_Setup+0xe4>
            (void)USBD_CtlSendData(pdev, (uint8_t *)&status_info, 2U);
 800655c:	2202      	movs	r2, #2
 800655e:	f10d 0106 	add.w	r1, sp, #6
 8006562:	e7c1      	b.n	80064e8 <USBD_CDC_Setup+0x50>
          if (pdev->dev_state == USBD_STATE_CONFIGURED)
 8006564:	f890 329c 	ldrb.w	r3, [r0, #668]	@ 0x29c
 8006568:	2b03      	cmp	r3, #3
 800656a:	d107      	bne.n	800657c <USBD_CDC_Setup+0xe4>
            (void)USBD_CtlSendData(pdev, &ifalt, 1U);
 800656c:	2201      	movs	r2, #1
 800656e:	f10d 0105 	add.w	r1, sp, #5
 8006572:	e7b9      	b.n	80064e8 <USBD_CDC_Setup+0x50>
          if (pdev->dev_state != USBD_STATE_CONFIGURED)
 8006574:	f890 329c 	ldrb.w	r3, [r0, #668]	@ 0x29c
 8006578:	2b03      	cmp	r3, #3
 800657a:	d0c3      	beq.n	8006504 <USBD_CDC_Setup+0x6c>
          USBD_CtlError(pdev, req);
 800657c:	4629      	mov	r1, r5
 800657e:	4620      	mov	r0, r4
 8006580:	f000 fcdc 	bl	8006f3c <USBD_CtlError>
    return (uint8_t)USBD_FAIL;
 8006584:	2003      	movs	r0, #3
 8006586:	e7be      	b.n	8006506 <USBD_CDC_Setup+0x6e>

08006588 <USBD_CDC_DeInit>:
{
 8006588:	b538      	push	{r3, r4, r5, lr}
 800658a:	4604      	mov	r4, r0
  pdev->ep_in[CDCInEpAdd & 0xFU].is_used = 0U;
 800658c:	2500      	movs	r5, #0
  (void)USBD_LL_CloseEP(pdev, CDCInEpAdd);
 800658e:	2181      	movs	r1, #129	@ 0x81
 8006590:	f001 fdf8 	bl	8008184 <USBD_LL_CloseEP>
  (void)USBD_LL_CloseEP(pdev, CDCOutEpAdd);
 8006594:	2101      	movs	r1, #1
  pdev->ep_in[CDCInEpAdd & 0xFU].is_used = 0U;
 8006596:	f884 5037 	strb.w	r5, [r4, #55]	@ 0x37
  (void)USBD_LL_CloseEP(pdev, CDCOutEpAdd);
 800659a:	4620      	mov	r0, r4
 800659c:	f001 fdf2 	bl	8008184 <USBD_LL_CloseEP>
  pdev->ep_out[CDCOutEpAdd & 0xFU].is_used = 0U;
 80065a0:	f884 5177 	strb.w	r5, [r4, #375]	@ 0x177
  (void)USBD_LL_CloseEP(pdev, CDCCmdEpAdd);
 80065a4:	2182      	movs	r1, #130	@ 0x82
 80065a6:	4620      	mov	r0, r4
 80065a8:	f001 fdec 	bl	8008184 <USBD_LL_CloseEP>
  pdev->ep_in[CDCCmdEpAdd & 0xFU].is_used = 0U;
 80065ac:	f8d4 32d4 	ldr.w	r3, [r4, #724]	@ 0x2d4
 80065b0:	f884 504b 	strb.w	r5, [r4, #75]	@ 0x4b
  pdev->ep_in[CDCCmdEpAdd & 0xFU].bInterval = 0U;
 80065b4:	eb04 0383 	add.w	r3, r4, r3, lsl #2
 80065b8:	6465      	str	r5, [r4, #68]	@ 0x44
  if (pdev->pClassDataCmsit[pdev->classId] != NULL)
 80065ba:	f8d3 22c0 	ldr.w	r2, [r3, #704]	@ 0x2c0
 80065be:	b18a      	cbz	r2, 80065e4 <USBD_CDC_DeInit+0x5c>
    ((USBD_CDC_ItfTypeDef *)pdev->pUserData[pdev->classId])->DeInit();
 80065c0:	f8d3 32c4 	ldr.w	r3, [r3, #708]	@ 0x2c4
 80065c4:	685b      	ldr	r3, [r3, #4]
 80065c6:	4798      	blx	r3
    (void)USBD_free(pdev->pClassDataCmsit[pdev->classId]);
 80065c8:	f8d4 32d4 	ldr.w	r3, [r4, #724]	@ 0x2d4
 80065cc:	33b0      	adds	r3, #176	@ 0xb0
 80065ce:	f854 0023 	ldr.w	r0, [r4, r3, lsl #2]
 80065d2:	f001 fdbb 	bl	800814c <USBD_static_free>
    pdev->pClassDataCmsit[pdev->classId] = NULL;
 80065d6:	f8d4 32d4 	ldr.w	r3, [r4, #724]	@ 0x2d4
 80065da:	33b0      	adds	r3, #176	@ 0xb0
 80065dc:	f844 5023 	str.w	r5, [r4, r3, lsl #2]
    pdev->pClassData = NULL;
 80065e0:	f8c4 52bc 	str.w	r5, [r4, #700]	@ 0x2bc
}
 80065e4:	2000      	movs	r0, #0
 80065e6:	bd38      	pop	{r3, r4, r5, pc}

080065e8 <USBD_CDC_Init>:
{
 80065e8:	b5f8      	push	{r3, r4, r5, r6, r7, lr}
 80065ea:	4604      	mov	r4, r0
  hcdc = (USBD_CDC_HandleTypeDef *)USBD_malloc(sizeof(USBD_CDC_HandleTypeDef));
 80065ec:	f44f 7007 	mov.w	r0, #540	@ 0x21c
 80065f0:	f001 fda8 	bl	8008144 <USBD_static_malloc>
  if (hcdc == NULL)
 80065f4:	4605      	mov	r5, r0
 80065f6:	b930      	cbnz	r0, 8006606 <USBD_CDC_Init+0x1e>
    pdev->pClassDataCmsit[pdev->classId] = NULL;
 80065f8:	f8d4 32d4 	ldr.w	r3, [r4, #724]	@ 0x2d4
 80065fc:	33b0      	adds	r3, #176	@ 0xb0
 80065fe:	f844 0023 	str.w	r0, [r4, r3, lsl #2]
    return (uint8_t)USBD_EMEM;
 8006602:	2002      	movs	r0, #2
 8006604:	e046      	b.n	8006694 <USBD_CDC_Init+0xac>
  (void)USBD_memset(hcdc, 0, sizeof(USBD_CDC_HandleTypeDef));
 8006606:	f44f 7207 	mov.w	r2, #540	@ 0x21c
 800660a:	2100      	movs	r1, #0
 800660c:	f003 fc47 	bl	8009e9e <memset>
  pdev->pClassDataCmsit[pdev->classId] = (void *)hcdc;
 8006610:	f8d4 32d4 	ldr.w	r3, [r4, #724]	@ 0x2d4
 8006614:	33b0      	adds	r3, #176	@ 0xb0
 8006616:	f844 5023 	str.w	r5, [r4, r3, lsl #2]
  if (pdev->dev_speed == USBD_SPEED_HIGH)
 800661a:	7c23      	ldrb	r3, [r4, #16]
  pdev->pClassData = pdev->pClassDataCmsit[pdev->classId];
 800661c:	f8c4 52bc 	str.w	r5, [r4, #700]	@ 0x2bc
  if (pdev->dev_speed == USBD_SPEED_HIGH)
 8006620:	bbcb      	cbnz	r3, 8006696 <USBD_CDC_Init+0xae>
    (void)USBD_LL_OpenEP(pdev, CDCInEpAdd, USBD_EP_TYPE_BULK,
 8006622:	f44f 7300 	mov.w	r3, #512	@ 0x200
 8006626:	2181      	movs	r1, #129	@ 0x81
 8006628:	2202      	movs	r2, #2
 800662a:	4620      	mov	r0, r4
 800662c:	f001 fd9e 	bl	800816c <USBD_LL_OpenEP>
    pdev->ep_in[CDCInEpAdd & 0xFU].is_used = 1U;
 8006630:	2101      	movs	r1, #1
 8006632:	f884 1037 	strb.w	r1, [r4, #55]	@ 0x37
    (void)USBD_LL_OpenEP(pdev, CDCOutEpAdd, USBD_EP_TYPE_BULK,
 8006636:	f44f 7300 	mov.w	r3, #512	@ 0x200
    (void)USBD_LL_OpenEP(pdev, CDCOutEpAdd, USBD_EP_TYPE_BULK,
 800663a:	2202      	movs	r2, #2
 800663c:	4620      	mov	r0, r4
 800663e:	f001 fd95 	bl	800816c <USBD_LL_OpenEP>
    pdev->ep_out[CDCOutEpAdd & 0xFU].is_used = 1U;
 8006642:	2601      	movs	r6, #1
    pdev->ep_in[CDCCmdEpAdd & 0xFU].bInterval = CDC_HS_BINTERVAL;
 8006644:	2310      	movs	r3, #16
  (void)USBD_LL_OpenEP(pdev, CDCCmdEpAdd, USBD_EP_TYPE_INTR, CDC_CMD_PACKET_SIZE);
 8006646:	2203      	movs	r2, #3
    pdev->ep_in[CDCCmdEpAdd & 0xFU].bInterval = CDC_HS_BINTERVAL;
 8006648:	6463      	str	r3, [r4, #68]	@ 0x44
  (void)USBD_LL_OpenEP(pdev, CDCCmdEpAdd, USBD_EP_TYPE_INTR, CDC_CMD_PACKET_SIZE);
 800664a:	2182      	movs	r1, #130	@ 0x82
 800664c:	2308      	movs	r3, #8
    pdev->ep_out[CDCOutEpAdd & 0xFU].is_used = 1U;
 800664e:	f884 6177 	strb.w	r6, [r4, #375]	@ 0x177
  (void)USBD_LL_OpenEP(pdev, CDCCmdEpAdd, USBD_EP_TYPE_INTR, CDC_CMD_PACKET_SIZE);
 8006652:	4620      	mov	r0, r4
 8006654:	f001 fd8a 	bl	800816c <USBD_LL_OpenEP>
  ((USBD_CDC_ItfTypeDef *)pdev->pUserData[pdev->classId])->Init();
 8006658:	f8d4 32d4 	ldr.w	r3, [r4, #724]	@ 0x2d4
  pdev->ep_in[CDCCmdEpAdd & 0xFU].is_used = 1U;
 800665c:	f884 604b 	strb.w	r6, [r4, #75]	@ 0x4b
  ((USBD_CDC_ItfTypeDef *)pdev->pUserData[pdev->classId])->Init();
 8006660:	eb04 0383 	add.w	r3, r4, r3, lsl #2
  hcdc->RxBuffer = NULL;
 8006664:	2700      	movs	r7, #0
  ((USBD_CDC_ItfTypeDef *)pdev->pUserData[pdev->classId])->Init();
 8006666:	f8d3 32c4 	ldr.w	r3, [r3, #708]	@ 0x2c4
  hcdc->RxBuffer = NULL;
 800666a:	f8c5 7204 	str.w	r7, [r5, #516]	@ 0x204
  ((USBD_CDC_ItfTypeDef *)pdev->pUserData[pdev->classId])->Init();
 800666e:	681b      	ldr	r3, [r3, #0]
 8006670:	4798      	blx	r3
  if (hcdc->RxBuffer == NULL)
 8006672:	f8d5 2204 	ldr.w	r2, [r5, #516]	@ 0x204
  hcdc->TxState = 0U;
 8006676:	f8c5 7214 	str.w	r7, [r5, #532]	@ 0x214
  hcdc->RxState = 0U;
 800667a:	f8c5 7218 	str.w	r7, [r5, #536]	@ 0x218
  if (hcdc->RxBuffer == NULL)
 800667e:	2a00      	cmp	r2, #0
 8006680:	d0bf      	beq.n	8006602 <USBD_CDC_Init+0x1a>
  if (pdev->dev_speed == USBD_SPEED_HIGH)
 8006682:	7c23      	ldrb	r3, [r4, #16]
 8006684:	b993      	cbnz	r3, 80066ac <USBD_CDC_Init+0xc4>
    (void)USBD_LL_PrepareReceive(pdev, CDCOutEpAdd, hcdc->RxBuffer,
 8006686:	f44f 7300 	mov.w	r3, #512	@ 0x200
 800668a:	4631      	mov	r1, r6
 800668c:	4620      	mov	r0, r4
 800668e:	f001 fda6 	bl	80081de <USBD_LL_PrepareReceive>
  return (uint8_t)USBD_OK;
 8006692:	2000      	movs	r0, #0
}
 8006694:	bdf8      	pop	{r3, r4, r5, r6, r7, pc}
    (void)USBD_LL_OpenEP(pdev, CDCInEpAdd, USBD_EP_TYPE_BULK,
 8006696:	2340      	movs	r3, #64	@ 0x40
 8006698:	2181      	movs	r1, #129	@ 0x81
 800669a:	2202      	movs	r2, #2
 800669c:	4620      	mov	r0, r4
 800669e:	f001 fd65 	bl	800816c <USBD_LL_OpenEP>
    pdev->ep_in[CDCInEpAdd & 0xFU].is_used = 1U;
 80066a2:	2101      	movs	r1, #1
 80066a4:	f884 1037 	strb.w	r1, [r4, #55]	@ 0x37
    (void)USBD_LL_OpenEP(pdev, CDCOutEpAdd, USBD_EP_TYPE_BULK,
 80066a8:	2340      	movs	r3, #64	@ 0x40
 80066aa:	e7c6      	b.n	800663a <USBD_CDC_Init+0x52>
    (void)USBD_LL_PrepareReceive(pdev, CDCOutEpAdd, hcdc->RxBuffer,
 80066ac:	2340      	movs	r3, #64	@ 0x40
 80066ae:	e7ec      	b.n	800668a <USBD_CDC_Init+0xa2>

080066b0 <USBD_CDC_RegisterInterface>:
  * @retval status
  */
uint8_t USBD_CDC_RegisterInterface(USBD_HandleTypeDef *pdev,
                                   USBD_CDC_ItfTypeDef *fops)
{
  if (fops == NULL)
 80066b0:	b139      	cbz	r1, 80066c2 <USBD_CDC_RegisterInterface+0x12>
  {
    return (uint8_t)USBD_FAIL;
  }

  pdev->pUserData[pdev->classId] = fops;
 80066b2:	f8d0 32d4 	ldr.w	r3, [r0, #724]	@ 0x2d4
 80066b6:	eb00 0083 	add.w	r0, r0, r3, lsl #2
 80066ba:	f8c0 12c4 	str.w	r1, [r0, #708]	@ 0x2c4

  return (uint8_t)USBD_OK;
 80066be:	2000      	movs	r0, #0
 80066c0:	4770      	bx	lr
    return (uint8_t)USBD_FAIL;
 80066c2:	2003      	movs	r0, #3
}
 80066c4:	4770      	bx	lr

080066c6 <USBD_CDC_SetTxBuffer>:
  USBD_CDC_HandleTypeDef *hcdc = (USBD_CDC_HandleTypeDef *)pdev->pClassDataCmsit[ClassId];
#else
uint8_t USBD_CDC_SetTxBuffer(USBD_HandleTypeDef *pdev,
                             uint8_t *pbuff, uint32_t length)
{
  USBD_CDC_HandleTypeDef *hcdc = (USBD_CDC_HandleTypeDef *)pdev->pClassDataCmsit[pdev->classId];
 80066c6:	f8d0 32d4 	ldr.w	r3, [r0, #724]	@ 0x2d4
 80066ca:	33b0      	adds	r3, #176	@ 0xb0
 80066cc:	f850 3023 	ldr.w	r3, [r0, r3, lsl #2]
#endif /* USE_USBD_COMPOSITE */

  if (hcdc == NULL)
 80066d0:	b12b      	cbz	r3, 80066de <USBD_CDC_SetTxBuffer+0x18>
  {
    return (uint8_t)USBD_FAIL;
  }

  hcdc->TxBuffer = pbuff;
 80066d2:	f8c3 1208 	str.w	r1, [r3, #520]	@ 0x208
  hcdc->TxLength = length;
 80066d6:	f8c3 2210 	str.w	r2, [r3, #528]	@ 0x210

  return (uint8_t)USBD_OK;
 80066da:	2000      	movs	r0, #0
 80066dc:	4770      	bx	lr
    return (uint8_t)USBD_FAIL;
 80066de:	2003      	movs	r0, #3
}
 80066e0:	4770      	bx	lr

080066e2 <USBD_CDC_SetRxBuffer>:
  * @param  pbuff: Rx Buffer
  * @retval status
  */
uint8_t USBD_CDC_SetRxBuffer(USBD_HandleTypeDef *pdev, uint8_t *pbuff)
{
  USBD_CDC_HandleTypeDef *hcdc = (USBD_CDC_HandleTypeDef *)pdev->pClassDataCmsit[pdev->classId];
 80066e2:	f8d0 32d4 	ldr.w	r3, [r0, #724]	@ 0x2d4
 80066e6:	33b0      	adds	r3, #176	@ 0xb0
 80066e8:	f850 3023 	ldr.w	r3, [r0, r3, lsl #2]

  if (hcdc == NULL)
 80066ec:	b11b      	cbz	r3, 80066f6 <USBD_CDC_SetRxBuffer+0x14>
  {
    return (uint8_t)USBD_FAIL;
  }

  hcdc->RxBuffer = pbuff;
 80066ee:	f8c3 1204 	str.w	r1, [r3, #516]	@ 0x204

  return (uint8_t)USBD_OK;
 80066f2:	2000      	movs	r0, #0
 80066f4:	4770      	bx	lr
    return (uint8_t)USBD_FAIL;
 80066f6:	2003      	movs	r0, #3
}
 80066f8:	4770      	bx	lr

080066fa <USBD_CDC_TransmitPacket>:
{
  USBD_CDC_HandleTypeDef *hcdc = (USBD_CDC_HandleTypeDef *)pdev->pClassDataCmsit[ClassId];
#else
uint8_t USBD_CDC_TransmitPacket(USBD_HandleTypeDef *pdev)
{
  USBD_CDC_HandleTypeDef *hcdc = (USBD_CDC_HandleTypeDef *)pdev->pClassDataCmsit[pdev->classId];
 80066fa:	f8d0 32d4 	ldr.w	r3, [r0, #724]	@ 0x2d4
 80066fe:	33b0      	adds	r3, #176	@ 0xb0
{
 8006700:	b510      	push	{r4, lr}
  USBD_CDC_HandleTypeDef *hcdc = (USBD_CDC_HandleTypeDef *)pdev->pClassDataCmsit[pdev->classId];
 8006702:	f850 2023 	ldr.w	r2, [r0, r3, lsl #2]
#ifdef USE_USBD_COMPOSITE
  /* Get the Endpoints addresses allocated for this class instance */
  CDCInEpAdd  = USBD_CoreGetEPAdd(pdev, USBD_EP_IN, USBD_EP_TYPE_BULK, ClassId);
#endif  /* USE_USBD_COMPOSITE */

  if (hcdc == NULL)
 8006706:	b17a      	cbz	r2, 8006728 <USBD_CDC_TransmitPacket+0x2e>
  {
    return (uint8_t)USBD_FAIL;
  }

  if (hcdc->TxState == 0U)
 8006708:	f8d2 4214 	ldr.w	r4, [r2, #532]	@ 0x214
 800670c:	2301      	movs	r3, #1
 800670e:	b96c      	cbnz	r4, 800672c <USBD_CDC_TransmitPacket+0x32>
  {
    /* Tx Transfer in progress */
    hcdc->TxState = 1U;
 8006710:	f8c2 3214 	str.w	r3, [r2, #532]	@ 0x214

    /* Update the packet total length */
    pdev->ep_in[CDCInEpAdd & 0xFU].total_length = hcdc->TxLength;
 8006714:	f8d2 3210 	ldr.w	r3, [r2, #528]	@ 0x210
 8006718:	6283      	str	r3, [r0, #40]	@ 0x28

    /* Transmit next packet */
    (void)USBD_LL_Transmit(pdev, CDCInEpAdd, hcdc->TxBuffer, hcdc->TxLength);
 800671a:	f8d2 2208 	ldr.w	r2, [r2, #520]	@ 0x208
 800671e:	2181      	movs	r1, #129	@ 0x81
 8006720:	f001 fd54 	bl	80081cc <USBD_LL_Transmit>

    ret = USBD_OK;
 8006724:	4620      	mov	r0, r4
  }

  return (uint8_t)ret;
}
 8006726:	bd10      	pop	{r4, pc}
    return (uint8_t)USBD_FAIL;
 8006728:	2003      	movs	r0, #3
 800672a:	e7fc      	b.n	8006726 <USBD_CDC_TransmitPacket+0x2c>
  USBD_StatusTypeDef ret = USBD_BUSY;
 800672c:	4618      	mov	r0, r3
 800672e:	e7fa      	b.n	8006726 <USBD_CDC_TransmitPacket+0x2c>

08006730 <USBD_CDC_ReceivePacket>:
  * @param  pdev: device instance
  * @retval status
  */
uint8_t USBD_CDC_ReceivePacket(USBD_HandleTypeDef *pdev)
{
  USBD_CDC_HandleTypeDef *hcdc = (USBD_CDC_HandleTypeDef *)pdev->pClassDataCmsit[pdev->classId];
 8006730:	f8d0 22d4 	ldr.w	r2, [r0, #724]	@ 0x2d4
 8006734:	32b0      	adds	r2, #176	@ 0xb0
{
 8006736:	b508      	push	{r3, lr}
  USBD_CDC_HandleTypeDef *hcdc = (USBD_CDC_HandleTypeDef *)pdev->pClassDataCmsit[pdev->classId];
 8006738:	f850 2022 	ldr.w	r2, [r0, r2, lsl #2]
#ifdef USE_USBD_COMPOSITE
  /* Get the Endpoints addresses allocated for this class instance */
  CDCOutEpAdd = USBD_CoreGetEPAdd(pdev, USBD_EP_OUT, USBD_EP_TYPE_BULK, (uint8_t)pdev->classId);
#endif /* USE_USBD_COMPOSITE */

  if (pdev->pClassDataCmsit[pdev->classId] == NULL)
 800673c:	b162      	cbz	r2, 8006758 <USBD_CDC_ReceivePacket+0x28>
  {
    return (uint8_t)USBD_FAIL;
  }

  if (pdev->dev_speed == USBD_SPEED_HIGH)
 800673e:	7c03      	ldrb	r3, [r0, #16]
  {
    /* Prepare Out endpoint to receive next packet */
    (void)USBD_LL_PrepareReceive(pdev, CDCOutEpAdd, hcdc->RxBuffer,
 8006740:	f8d2 2204 	ldr.w	r2, [r2, #516]	@ 0x204
  if (pdev->dev_speed == USBD_SPEED_HIGH)
 8006744:	b933      	cbnz	r3, 8006754 <USBD_CDC_ReceivePacket+0x24>
    (void)USBD_LL_PrepareReceive(pdev, CDCOutEpAdd, hcdc->RxBuffer,
 8006746:	f44f 7300 	mov.w	r3, #512	@ 0x200
 800674a:	2101      	movs	r1, #1
 800674c:	f001 fd47 	bl	80081de <USBD_LL_PrepareReceive>
    /* Prepare Out endpoint to receive next packet */
    (void)USBD_LL_PrepareReceive(pdev, CDCOutEpAdd, hcdc->RxBuffer,
                                 CDC_DATA_FS_OUT_PACKET_SIZE);
  }

  return (uint8_t)USBD_OK;
 8006750:	2000      	movs	r0, #0
}
 8006752:	bd08      	pop	{r3, pc}
    (void)USBD_LL_PrepareReceive(pdev, CDCOutEpAdd, hcdc->RxBuffer,
 8006754:	2340      	movs	r3, #64	@ 0x40
 8006756:	e7f8      	b.n	800674a <USBD_CDC_ReceivePacket+0x1a>
    return (uint8_t)USBD_FAIL;
 8006758:	2003      	movs	r0, #3
 800675a:	e7fa      	b.n	8006752 <USBD_CDC_ReceivePacket+0x22>

0800675c <USBD_Init>:
                             USBD_DescriptorsTypeDef *pdesc, uint8_t id)
{
  USBD_StatusTypeDef ret;

  /* Check whether the USB Host handle is valid */
  if (pdev == NULL)
 800675c:	b178      	cbz	r0, 800677e <USBD_Init+0x22>
    pdev->NumClasses = 0;
    pdev->classId = 0;
  }
#else
  /* Unlink previous class*/
  pdev->pClass[0] = NULL;
 800675e:	2300      	movs	r3, #0
 8006760:	f8c0 32b8 	str.w	r3, [r0, #696]	@ 0x2b8
  pdev->pUserData[0] = NULL;
 8006764:	f8c0 32c4 	str.w	r3, [r0, #708]	@ 0x2c4
#endif /* USE_USBD_COMPOSITE */

  pdev->pConfDesc = NULL;
 8006768:	f8c0 32d0 	str.w	r3, [r0, #720]	@ 0x2d0

  /* Assign USBD Descriptors */
  if (pdesc != NULL)
 800676c:	b109      	cbz	r1, 8006772 <USBD_Init+0x16>
  {
    pdev->pDesc = pdesc;
 800676e:	f8c0 12b4 	str.w	r1, [r0, #692]	@ 0x2b4
  }

  /* Set Device initial State */
  pdev->dev_state = USBD_STATE_DEFAULT;
 8006772:	2301      	movs	r3, #1
 8006774:	f880 329c 	strb.w	r3, [r0, #668]	@ 0x29c
  pdev->id = id;
 8006778:	7002      	strb	r2, [r0, #0]

  /* Initialize low level driver */
  ret = USBD_LL_Init(pdev);
 800677a:	f001 bc9f 	b.w	80080bc <USBD_LL_Init>

  return ret;
}
 800677e:	2003      	movs	r0, #3
 8006780:	4770      	bx	lr

08006782 <USBD_RegisterClass>:
  * @param  pdev: Device Handle
  * @param  pclass: Class handle
  * @retval USBD Status
  */
USBD_StatusTypeDef USBD_RegisterClass(USBD_HandleTypeDef *pdev, USBD_ClassTypeDef *pclass)
{
 8006782:	b513      	push	{r0, r1, r4, lr}
  uint16_t len = 0U;
 8006784:	2300      	movs	r3, #0
{
 8006786:	4604      	mov	r4, r0
  uint16_t len = 0U;
 8006788:	f8ad 3006 	strh.w	r3, [sp, #6]

  if (pclass == NULL)
 800678c:	b181      	cbz	r1, 80067b0 <USBD_RegisterClass+0x2e>
  if (pdev->pClass[pdev->classId]->GetHSConfigDescriptor != NULL)
  {
    pdev->pConfDesc = (void *)pdev->pClass[pdev->classId]->GetHSConfigDescriptor(&len);
  }
#else /* Default USE_USB_FS */
  if (pdev->pClass[pdev->classId]->GetFSConfigDescriptor != NULL)
 800678e:	6acb      	ldr	r3, [r1, #44]	@ 0x2c
  pdev->pClass[0] = pclass;
 8006790:	f8c0 12b8 	str.w	r1, [r0, #696]	@ 0x2b8
  if (pdev->pClass[pdev->classId]->GetFSConfigDescriptor != NULL)
 8006794:	b123      	cbz	r3, 80067a0 <USBD_RegisterClass+0x1e>
  {
    pdev->pConfDesc = (void *)pdev->pClass[pdev->classId]->GetFSConfigDescriptor(&len);
 8006796:	f10d 0006 	add.w	r0, sp, #6
 800679a:	4798      	blx	r3
 800679c:	f8c4 02d0 	str.w	r0, [r4, #720]	@ 0x2d0
  }
#endif /* USE_USB_FS */

  /* Increment the NumClasses */
  pdev->NumClasses++;
 80067a0:	f8d4 32d8 	ldr.w	r3, [r4, #728]	@ 0x2d8
 80067a4:	3301      	adds	r3, #1
 80067a6:	f8c4 32d8 	str.w	r3, [r4, #728]	@ 0x2d8

  return USBD_OK;
 80067aa:	2000      	movs	r0, #0
}
 80067ac:	b002      	add	sp, #8
 80067ae:	bd10      	pop	{r4, pc}
    return USBD_FAIL;
 80067b0:	2003      	movs	r0, #3
 80067b2:	e7fb      	b.n	80067ac <USBD_RegisterClass+0x2a>

080067b4 <USBD_Start>:
#ifdef USE_USBD_COMPOSITE
  pdev->classId = 0U;
#endif /* USE_USBD_COMPOSITE */

  /* Start the low level driver  */
  return USBD_LL_Start(pdev);
 80067b4:	f001 bcd1 	b.w	800815a <USBD_LL_Start>

080067b8 <USBD_SetClassConfig>:
        }
      }
    }
  }
#else
  if (pdev->pClass[0] != NULL)
 80067b8:	f8d0 32b8 	ldr.w	r3, [r0, #696]	@ 0x2b8
 80067bc:	b10b      	cbz	r3, 80067c2 <USBD_SetClassConfig+0xa>
  {
    /* Set configuration and Start the Class */
    ret = (USBD_StatusTypeDef)pdev->pClass[0]->Init(pdev, cfgidx);
 80067be:	681b      	ldr	r3, [r3, #0]
 80067c0:	4718      	bx	r3
  }
#endif /* USE_USBD_COMPOSITE */

  return ret;
}
 80067c2:	4618      	mov	r0, r3
 80067c4:	4770      	bx	lr

080067c6 <USBD_ClrClassConfig>:
  * @param  pdev: device instance
  * @param  cfgidx: configuration index
  * @retval status
  */
USBD_StatusTypeDef USBD_ClrClassConfig(USBD_HandleTypeDef *pdev, uint8_t cfgidx)
{
 80067c6:	b508      	push	{r3, lr}
      }
    }
  }
#else
  /* Clear configuration  and De-initialize the Class process */
  if (pdev->pClass[0]->DeInit(pdev, cfgidx) != 0U)
 80067c8:	f8d0 32b8 	ldr.w	r3, [r0, #696]	@ 0x2b8
 80067cc:	685b      	ldr	r3, [r3, #4]
 80067ce:	4798      	blx	r3
  {
    ret = USBD_FAIL;
 80067d0:	2800      	cmp	r0, #0
  }
#endif /* USE_USBD_COMPOSITE */

  return ret;
}
 80067d2:	bf18      	it	ne
 80067d4:	2003      	movne	r0, #3
 80067d6:	bd08      	pop	{r3, pc}

080067d8 <USBD_LL_SetupStage>:
  * @param  pdev: device instance
  * @param  psetup: setup packet buffer pointer
  * @retval status
  */
USBD_StatusTypeDef USBD_LL_SetupStage(USBD_HandleTypeDef *pdev, uint8_t *psetup)
{
 80067d8:	b538      	push	{r3, r4, r5, lr}
 80067da:	4604      	mov	r4, r0
  USBD_StatusTypeDef ret;

  USBD_ParseSetupRequest(&pdev->request, psetup);
 80067dc:	f200 25aa 	addw	r5, r0, #682	@ 0x2aa
 80067e0:	4628      	mov	r0, r5
 80067e2:	f000 fba0 	bl	8006f26 <USBD_ParseSetupRequest>

  pdev->ep0_state = USBD_EP0_SETUP;
 80067e6:	2301      	movs	r3, #1

  pdev->ep0_data_len = pdev->request.wLength;

  switch (pdev->request.bmRequest & 0x1FU)
 80067e8:	f894 12aa 	ldrb.w	r1, [r4, #682]	@ 0x2aa
  pdev->ep0_state = USBD_EP0_SETUP;
 80067ec:	f8c4 3294 	str.w	r3, [r4, #660]	@ 0x294
  pdev->ep0_data_len = pdev->request.wLength;
 80067f0:	f8b4 32b0 	ldrh.w	r3, [r4, #688]	@ 0x2b0
 80067f4:	f8c4 3298 	str.w	r3, [r4, #664]	@ 0x298
  switch (pdev->request.bmRequest & 0x1FU)
 80067f8:	f001 031f 	and.w	r3, r1, #31
 80067fc:	2b01      	cmp	r3, #1
 80067fe:	d008      	beq.n	8006812 <USBD_LL_SetupStage+0x3a>
 8006800:	2b02      	cmp	r3, #2
 8006802:	d00c      	beq.n	800681e <USBD_LL_SetupStage+0x46>
 8006804:	b98b      	cbnz	r3, 800682a <USBD_LL_SetupStage+0x52>
  {
    case USB_REQ_RECIPIENT_DEVICE:
      ret = USBD_StdDevReq(pdev, &pdev->request);
 8006806:	4629      	mov	r1, r5
 8006808:	4620      	mov	r0, r4
      ret = USBD_LL_StallEP(pdev, (pdev->request.bmRequest & 0x80U));
      break;
  }

  return ret;
}
 800680a:	e8bd 4038 	ldmia.w	sp!, {r3, r4, r5, lr}
      ret = USBD_StdDevReq(pdev, &pdev->request);
 800680e:	f000 b953 	b.w	8006ab8 <USBD_StdDevReq>
      ret = USBD_StdItfReq(pdev, &pdev->request);
 8006812:	4629      	mov	r1, r5
 8006814:	4620      	mov	r0, r4
}
 8006816:	e8bd 4038 	ldmia.w	sp!, {r3, r4, r5, lr}
      ret = USBD_StdItfReq(pdev, &pdev->request);
 800681a:	f000 bab1 	b.w	8006d80 <USBD_StdItfReq>
      ret = USBD_StdEPReq(pdev, &pdev->request);
 800681e:	4629      	mov	r1, r5
 8006820:	4620      	mov	r0, r4
}
 8006822:	e8bd 4038 	ldmia.w	sp!, {r3, r4, r5, lr}
      ret = USBD_StdEPReq(pdev, &pdev->request);
 8006826:	f000 bada 	b.w	8006dde <USBD_StdEPReq>
      ret = USBD_LL_StallEP(pdev, (pdev->request.bmRequest & 0x80U));
 800682a:	4620      	mov	r0, r4
 800682c:	f001 0180 	and.w	r1, r1, #128	@ 0x80
}
 8006830:	e8bd 4038 	ldmia.w	sp!, {r3, r4, r5, lr}
      ret = USBD_LL_StallEP(pdev, (pdev->request.bmRequest & 0x80U));
 8006834:	f001 bcaf 	b.w	8008196 <USBD_LL_StallEP>

08006838 <USBD_LL_DataOutStage>:
  * @param  pdata: data pointer
  * @retval status
  */
USBD_StatusTypeDef USBD_LL_DataOutStage(USBD_HandleTypeDef *pdev,
                                        uint8_t epnum, uint8_t *pdata)
{
 8006838:	b570      	push	{r4, r5, r6, lr}
 800683a:	4604      	mov	r4, r0
  USBD_StatusTypeDef ret = USBD_OK;
  uint8_t idx;

  UNUSED(pdata);

  if (epnum == 0U)
 800683c:	bb39      	cbnz	r1, 800688e <USBD_LL_DataOutStage+0x56>
  {
    pep = &pdev->ep_out[0];

    if (pdev->ep0_state == USBD_EP0_DATA_OUT)
 800683e:	f8d0 3294 	ldr.w	r3, [r0, #660]	@ 0x294
 8006842:	2b03      	cmp	r3, #3
 8006844:	d112      	bne.n	800686c <USBD_LL_DataOutStage+0x34>
    {
      if (pep->rem_length > pep->maxpacket)
 8006846:	f8d0 3158 	ldr.w	r3, [r0, #344]	@ 0x158
 800684a:	f8b0 2160 	ldrh.w	r2, [r0, #352]	@ 0x160
 800684e:	4293      	cmp	r3, r2
 8006850:	d90e      	bls.n	8006870 <USBD_LL_DataOutStage+0x38>
      {
        pep->rem_length -= pep->maxpacket;
        pep->pbuffer += pep->maxpacket;
 8006852:	f8d0 1164 	ldr.w	r1, [r0, #356]	@ 0x164
        pep->rem_length -= pep->maxpacket;
 8006856:	1a9b      	subs	r3, r3, r2
        pep->pbuffer += pep->maxpacket;
 8006858:	4411      	add	r1, r2

        (void)USBD_CtlContinueRx(pdev, pep->pbuffer, MAX(pep->rem_length, pep->maxpacket));
 800685a:	429a      	cmp	r2, r3
        pep->rem_length -= pep->maxpacket;
 800685c:	f8c0 3158 	str.w	r3, [r0, #344]	@ 0x158
        pep->pbuffer += pep->maxpacket;
 8006860:	f8c0 1164 	str.w	r1, [r0, #356]	@ 0x164
        (void)USBD_CtlContinueRx(pdev, pep->pbuffer, MAX(pep->rem_length, pep->maxpacket));
 8006864:	bf38      	it	cc
 8006866:	461a      	movcc	r2, r3
 8006868:	f000 fbb6 	bl	8006fd8 <USBD_CtlContinueRx>
      }
    }
  }

  return USBD_OK;
}
 800686c:	2000      	movs	r0, #0
 800686e:	bd70      	pop	{r4, r5, r6, pc}
          if (pdev->dev_state == USBD_STATE_CONFIGURED)
 8006870:	f890 329c 	ldrb.w	r3, [r0, #668]	@ 0x29c
 8006874:	2b03      	cmp	r3, #3
 8006876:	d106      	bne.n	8006886 <USBD_LL_DataOutStage+0x4e>
            if (pdev->pClass[idx]->EP0_RxReady != NULL)
 8006878:	f8d0 32b8 	ldr.w	r3, [r0, #696]	@ 0x2b8
 800687c:	691b      	ldr	r3, [r3, #16]
 800687e:	b113      	cbz	r3, 8006886 <USBD_LL_DataOutStage+0x4e>
              pdev->classId = idx;
 8006880:	f8c0 12d4 	str.w	r1, [r0, #724]	@ 0x2d4
              pdev->pClass[idx]->EP0_RxReady(pdev);
 8006884:	4798      	blx	r3
        (void)USBD_CtlSendStatus(pdev);
 8006886:	4620      	mov	r0, r4
 8006888:	f000 fbae 	bl	8006fe8 <USBD_CtlSendStatus>
 800688c:	e7ee      	b.n	800686c <USBD_LL_DataOutStage+0x34>
      if (pdev->dev_state == USBD_STATE_CONFIGURED)
 800688e:	f890 329c 	ldrb.w	r3, [r0, #668]	@ 0x29c
 8006892:	2b03      	cmp	r3, #3
 8006894:	d1ea      	bne.n	800686c <USBD_LL_DataOutStage+0x34>
        if (pdev->pClass[idx]->DataOut != NULL)
 8006896:	f8d0 32b8 	ldr.w	r3, [r0, #696]	@ 0x2b8
 800689a:	699b      	ldr	r3, [r3, #24]
 800689c:	2b00      	cmp	r3, #0
 800689e:	d0e5      	beq.n	800686c <USBD_LL_DataOutStage+0x34>
          pdev->classId = idx;
 80068a0:	2200      	movs	r2, #0
}
 80068a2:	e8bd 4070 	ldmia.w	sp!, {r4, r5, r6, lr}
          pdev->classId = idx;
 80068a6:	f8c0 22d4 	str.w	r2, [r0, #724]	@ 0x2d4
          ret = (USBD_StatusTypeDef)pdev->pClass[idx]->DataOut(pdev, epnum);
 80068aa:	4718      	bx	r3

080068ac <USBD_LL_DataInStage>:
  * @param  pdata: data pointer
  * @retval status
  */
USBD_StatusTypeDef USBD_LL_DataInStage(USBD_HandleTypeDef *pdev,
                                       uint8_t epnum, uint8_t *pdata)
{
 80068ac:	b570      	push	{r4, r5, r6, lr}
 80068ae:	4604      	mov	r4, r0
  USBD_StatusTypeDef ret;
  uint8_t idx;

  UNUSED(pdata);

  if (epnum == 0U)
 80068b0:	460d      	mov	r5, r1
 80068b2:	2900      	cmp	r1, #0
 80068b4:	d13f      	bne.n	8006936 <USBD_LL_DataInStage+0x8a>
  {
    pep = &pdev->ep_in[0];

    if (pdev->ep0_state == USBD_EP0_DATA_IN)
 80068b6:	f8d0 3294 	ldr.w	r3, [r0, #660]	@ 0x294
 80068ba:	2b02      	cmp	r3, #2
 80068bc:	d110      	bne.n	80068e0 <USBD_LL_DataInStage+0x34>
    {
      if (pep->rem_length > pep->maxpacket)
 80068be:	6982      	ldr	r2, [r0, #24]
 80068c0:	8c03      	ldrh	r3, [r0, #32]
 80068c2:	429a      	cmp	r2, r3
 80068c4:	d914      	bls.n	80068f0 <USBD_LL_DataInStage+0x44>
      {
        pep->rem_length -= pep->maxpacket;
        pep->pbuffer += pep->maxpacket;
 80068c6:	6a41      	ldr	r1, [r0, #36]	@ 0x24
        pep->rem_length -= pep->maxpacket;
 80068c8:	1ad2      	subs	r2, r2, r3
        pep->pbuffer += pep->maxpacket;
 80068ca:	4419      	add	r1, r3
        pep->rem_length -= pep->maxpacket;
 80068cc:	6182      	str	r2, [r0, #24]
        pep->pbuffer += pep->maxpacket;
 80068ce:	6241      	str	r1, [r0, #36]	@ 0x24

        (void)USBD_CtlContinueSendData(pdev, pep->pbuffer, pep->rem_length);
 80068d0:	f000 fb69 	bl	8006fa6 <USBD_CtlContinueSendData>
        {
          (void)USBD_CtlContinueSendData(pdev, NULL, 0U);
          pdev->ep0_data_len = 0U;

          /* Prepare endpoint for premature end of transfer */
          (void)USBD_LL_PrepareReceive(pdev, 0U, NULL, 0U);
 80068d4:	462b      	mov	r3, r5
 80068d6:	462a      	mov	r2, r5
 80068d8:	4629      	mov	r1, r5
 80068da:	4620      	mov	r0, r4
 80068dc:	f001 fc7f 	bl	80081de <USBD_LL_PrepareReceive>
          (void)USBD_CtlReceiveStatus(pdev);
        }
      }
    }

    if (pdev->dev_test_mode != 0U)
 80068e0:	f894 32a0 	ldrb.w	r3, [r4, #672]	@ 0x2a0
 80068e4:	b113      	cbz	r3, 80068ec <USBD_LL_DataInStage+0x40>
    {
      (void)USBD_RunTestMode(pdev);
      pdev->dev_test_mode = 0U;
 80068e6:	2300      	movs	r3, #0
 80068e8:	f884 32a0 	strb.w	r3, [r4, #672]	@ 0x2a0
      }
    }
  }

  return USBD_OK;
}
 80068ec:	2000      	movs	r0, #0
 80068ee:	bd70      	pop	{r4, r5, r6, pc}
        if ((pep->maxpacket == pep->rem_length) &&
 80068f0:	d10c      	bne.n	800690c <USBD_LL_DataInStage+0x60>
            (pep->total_length >= pep->maxpacket) &&
 80068f2:	6943      	ldr	r3, [r0, #20]
        if ((pep->maxpacket == pep->rem_length) &&
 80068f4:	429a      	cmp	r2, r3
 80068f6:	d809      	bhi.n	800690c <USBD_LL_DataInStage+0x60>
            (pep->total_length >= pep->maxpacket) &&
 80068f8:	f8d0 2298 	ldr.w	r2, [r0, #664]	@ 0x298
 80068fc:	4293      	cmp	r3, r2
 80068fe:	d205      	bcs.n	800690c <USBD_LL_DataInStage+0x60>
          (void)USBD_CtlContinueSendData(pdev, NULL, 0U);
 8006900:	460a      	mov	r2, r1
 8006902:	f000 fb50 	bl	8006fa6 <USBD_CtlContinueSendData>
          pdev->ep0_data_len = 0U;
 8006906:	f8c4 5298 	str.w	r5, [r4, #664]	@ 0x298
 800690a:	e7e3      	b.n	80068d4 <USBD_LL_DataInStage+0x28>
          if (pdev->dev_state == USBD_STATE_CONFIGURED)
 800690c:	f894 329c 	ldrb.w	r3, [r4, #668]	@ 0x29c
 8006910:	2b03      	cmp	r3, #3
 8006912:	d108      	bne.n	8006926 <USBD_LL_DataInStage+0x7a>
            if (pdev->pClass[0]->EP0_TxSent != NULL)
 8006914:	f8d4 32b8 	ldr.w	r3, [r4, #696]	@ 0x2b8
 8006918:	68db      	ldr	r3, [r3, #12]
 800691a:	b123      	cbz	r3, 8006926 <USBD_LL_DataInStage+0x7a>
              pdev->classId = 0U;
 800691c:	2200      	movs	r2, #0
 800691e:	f8c4 22d4 	str.w	r2, [r4, #724]	@ 0x2d4
              pdev->pClass[0]->EP0_TxSent(pdev);
 8006922:	4620      	mov	r0, r4
 8006924:	4798      	blx	r3
          (void)USBD_LL_StallEP(pdev, 0x80U);
 8006926:	2180      	movs	r1, #128	@ 0x80
 8006928:	4620      	mov	r0, r4
 800692a:	f001 fc34 	bl	8008196 <USBD_LL_StallEP>
          (void)USBD_CtlReceiveStatus(pdev);
 800692e:	4620      	mov	r0, r4
 8006930:	f000 fb65 	bl	8006ffe <USBD_CtlReceiveStatus>
 8006934:	e7d4      	b.n	80068e0 <USBD_LL_DataInStage+0x34>
      if (pdev->dev_state == USBD_STATE_CONFIGURED)
 8006936:	f890 329c 	ldrb.w	r3, [r0, #668]	@ 0x29c
 800693a:	2b03      	cmp	r3, #3
 800693c:	d1d6      	bne.n	80068ec <USBD_LL_DataInStage+0x40>
        if (pdev->pClass[idx]->DataIn != NULL)
 800693e:	f8d0 32b8 	ldr.w	r3, [r0, #696]	@ 0x2b8
 8006942:	695b      	ldr	r3, [r3, #20]
 8006944:	2b00      	cmp	r3, #0
 8006946:	d0d1      	beq.n	80068ec <USBD_LL_DataInStage+0x40>
          pdev->classId = idx;
 8006948:	2200      	movs	r2, #0
}
 800694a:	e8bd 4070 	ldmia.w	sp!, {r4, r5, r6, lr}
          pdev->classId = idx;
 800694e:	f8c0 22d4 	str.w	r2, [r0, #724]	@ 0x2d4
          ret = (USBD_StatusTypeDef)pdev->pClass[idx]->DataIn(pdev, epnum);
 8006952:	4718      	bx	r3

08006954 <USBD_LL_Reset>:
  *         Handle Reset event
  * @param  pdev: device instance
  * @retval status
  */
USBD_StatusTypeDef USBD_LL_Reset(USBD_HandleTypeDef *pdev)
{
 8006954:	b5f8      	push	{r3, r4, r5, r6, r7, lr}
  USBD_StatusTypeDef ret = USBD_OK;

  /* Upon Reset call user call back */
  pdev->dev_state = USBD_STATE_DEFAULT;
 8006956:	2301      	movs	r3, #1
 8006958:	f880 329c 	strb.w	r3, [r0, #668]	@ 0x29c
      }
    }
  }
#else

  if (pdev->pClass[0] != NULL)
 800695c:	f8d0 32b8 	ldr.w	r3, [r0, #696]	@ 0x2b8
  pdev->ep0_state = USBD_EP0_IDLE;
 8006960:	2100      	movs	r1, #0
{
 8006962:	4604      	mov	r4, r0
  pdev->ep0_state = USBD_EP0_IDLE;
 8006964:	f8c0 1294 	str.w	r1, [r0, #660]	@ 0x294
  pdev->dev_config = 0U;
 8006968:	6041      	str	r1, [r0, #4]
  pdev->dev_remote_wakeup = 0U;
 800696a:	f8c0 12a4 	str.w	r1, [r0, #676]	@ 0x2a4
  pdev->dev_test_mode = 0U;
 800696e:	f880 12a0 	strb.w	r1, [r0, #672]	@ 0x2a0
  if (pdev->pClass[0] != NULL)
 8006972:	b9bb      	cbnz	r3, 80069a4 <USBD_LL_Reset+0x50>
  USBD_StatusTypeDef ret = USBD_OK;
 8006974:	2600      	movs	r6, #0
    }
  }
#endif /* USE_USBD_COMPOSITE */

  /* Open EP0 OUT */
  (void)USBD_LL_OpenEP(pdev, 0x00U, USBD_EP_TYPE_CTRL, USB_MAX_EP0_SIZE);
 8006976:	2200      	movs	r2, #0
  pdev->ep_out[0x00U & 0xFU].is_used = 1U;

  pdev->ep_out[0].maxpacket = USB_MAX_EP0_SIZE;
 8006978:	2540      	movs	r5, #64	@ 0x40
  (void)USBD_LL_OpenEP(pdev, 0x00U, USBD_EP_TYPE_CTRL, USB_MAX_EP0_SIZE);
 800697a:	4611      	mov	r1, r2
  pdev->ep_out[0x00U & 0xFU].is_used = 1U;
 800697c:	2701      	movs	r7, #1
  (void)USBD_LL_OpenEP(pdev, 0x00U, USBD_EP_TYPE_CTRL, USB_MAX_EP0_SIZE);
 800697e:	2340      	movs	r3, #64	@ 0x40
 8006980:	4620      	mov	r0, r4
 8006982:	f001 fbf3 	bl	800816c <USBD_LL_OpenEP>
  pdev->ep_out[0x00U & 0xFU].is_used = 1U;
 8006986:	f884 7163 	strb.w	r7, [r4, #355]	@ 0x163
  pdev->ep_out[0].maxpacket = USB_MAX_EP0_SIZE;
 800698a:	f8a4 5160 	strh.w	r5, [r4, #352]	@ 0x160

  /* Open EP0 IN */
  (void)USBD_LL_OpenEP(pdev, 0x80U, USBD_EP_TYPE_CTRL, USB_MAX_EP0_SIZE);
 800698e:	462b      	mov	r3, r5
 8006990:	2200      	movs	r2, #0
 8006992:	2180      	movs	r1, #128	@ 0x80
 8006994:	4620      	mov	r0, r4
 8006996:	f001 fbe9 	bl	800816c <USBD_LL_OpenEP>
  pdev->ep_in[0x80U & 0xFU].is_used = 1U;
 800699a:	f884 7023 	strb.w	r7, [r4, #35]	@ 0x23

  pdev->ep_in[0].maxpacket = USB_MAX_EP0_SIZE;
 800699e:	8425      	strh	r5, [r4, #32]

  return ret;
}
 80069a0:	4630      	mov	r0, r6
 80069a2:	bdf8      	pop	{r3, r4, r5, r6, r7, pc}
    if (pdev->pClass[0]->DeInit != NULL)
 80069a4:	685b      	ldr	r3, [r3, #4]
 80069a6:	2b00      	cmp	r3, #0
 80069a8:	d0e4      	beq.n	8006974 <USBD_LL_Reset+0x20>
      if (pdev->pClass[0]->DeInit(pdev, (uint8_t)pdev->dev_config) != USBD_OK)
 80069aa:	4798      	blx	r3
 80069ac:	2800      	cmp	r0, #0
 80069ae:	d0e1      	beq.n	8006974 <USBD_LL_Reset+0x20>
        ret = USBD_FAIL;
 80069b0:	2603      	movs	r6, #3
 80069b2:	e7e0      	b.n	8006976 <USBD_LL_Reset+0x22>

080069b4 <USBD_LL_SetSpeed>:
  * @retval status
  */
USBD_StatusTypeDef USBD_LL_SetSpeed(USBD_HandleTypeDef *pdev,
                                    USBD_SpeedTypeDef speed)
{
  pdev->dev_speed = speed;
 80069b4:	7401      	strb	r1, [r0, #16]

  return USBD_OK;
}
 80069b6:	2000      	movs	r0, #0
 80069b8:	4770      	bx	lr

080069ba <USBD_LL_Suspend>:
  * @param  pdev: device instance
  * @retval status
  */
USBD_StatusTypeDef USBD_LL_Suspend(USBD_HandleTypeDef *pdev)
{
  if (pdev->dev_state != USBD_STATE_SUSPENDED)
 80069ba:	f890 329c 	ldrb.w	r3, [r0, #668]	@ 0x29c
 80069be:	2b04      	cmp	r3, #4
  {
    pdev->dev_old_state = pdev->dev_state;
 80069c0:	bf1e      	ittt	ne
 80069c2:	f890 329c 	ldrbne.w	r3, [r0, #668]	@ 0x29c
 80069c6:	b2db      	uxtbne	r3, r3
 80069c8:	f880 329d 	strbne.w	r3, [r0, #669]	@ 0x29d
  }

  pdev->dev_state = USBD_STATE_SUSPENDED;
 80069cc:	2304      	movs	r3, #4
 80069ce:	f880 329c 	strb.w	r3, [r0, #668]	@ 0x29c

  return USBD_OK;
}
 80069d2:	2000      	movs	r0, #0
 80069d4:	4770      	bx	lr

080069d6 <USBD_LL_Resume>:
  * @param  pdev: device instance
  * @retval status
  */
USBD_StatusTypeDef USBD_LL_Resume(USBD_HandleTypeDef *pdev)
{
  if (pdev->dev_state == USBD_STATE_SUSPENDED)
 80069d6:	f890 329c 	ldrb.w	r3, [r0, #668]	@ 0x29c
 80069da:	2b04      	cmp	r3, #4
  {
    pdev->dev_state = pdev->dev_old_state;
 80069dc:	bf02      	ittt	eq
 80069de:	f890 329d 	ldrbeq.w	r3, [r0, #669]	@ 0x29d
 80069e2:	b2db      	uxtbeq	r3, r3
 80069e4:	f880 329c 	strbeq.w	r3, [r0, #668]	@ 0x29c
  }

  return USBD_OK;
}
 80069e8:	2000      	movs	r0, #0
 80069ea:	4770      	bx	lr

080069ec <USBD_LL_SOF>:
  *         Handle SOF event
  * @param  pdev: device instance
  * @retval status
  */
USBD_StatusTypeDef USBD_LL_SOF(USBD_HandleTypeDef *pdev)
{
 80069ec:	b508      	push	{r3, lr}
  /* The SOF event can be distributed for all classes that support it */
  if (pdev->dev_state == USBD_STATE_CONFIGURED)
 80069ee:	f890 229c 	ldrb.w	r2, [r0, #668]	@ 0x29c
 80069f2:	2a03      	cmp	r2, #3
 80069f4:	d105      	bne.n	8006a02 <USBD_LL_SOF+0x16>
          }
        }
      }
    }
#else
    if (pdev->pClass[0] != NULL)
 80069f6:	f8d0 32b8 	ldr.w	r3, [r0, #696]	@ 0x2b8
 80069fa:	b113      	cbz	r3, 8006a02 <USBD_LL_SOF+0x16>
    {
      if (pdev->pClass[0]->SOF != NULL)
 80069fc:	69db      	ldr	r3, [r3, #28]
 80069fe:	b103      	cbz	r3, 8006a02 <USBD_LL_SOF+0x16>
      {
        (void)pdev->pClass[0]->SOF(pdev);
 8006a00:	4798      	blx	r3
    }
#endif /* USE_USBD_COMPOSITE */
  }

  return USBD_OK;
}
 8006a02:	2000      	movs	r0, #0
 8006a04:	bd08      	pop	{r3, pc}

08006a06 <USBD_LL_IsoINIncomplete>:
  * @retval status
  */
USBD_StatusTypeDef USBD_LL_IsoINIncomplete(USBD_HandleTypeDef *pdev,
                                           uint8_t epnum)
{
  if (pdev->pClass[pdev->classId] == NULL)
 8006a06:	f8d0 22d4 	ldr.w	r2, [r0, #724]	@ 0x2d4
 8006a0a:	32ae      	adds	r2, #174	@ 0xae
{
 8006a0c:	b508      	push	{r3, lr}
  if (pdev->pClass[pdev->classId] == NULL)
 8006a0e:	f850 2022 	ldr.w	r2, [r0, r2, lsl #2]
 8006a12:	b14a      	cbz	r2, 8006a28 <USBD_LL_IsoINIncomplete+0x22>
  {
    return USBD_FAIL;
  }

  if (pdev->dev_state == USBD_STATE_CONFIGURED)
 8006a14:	f890 329c 	ldrb.w	r3, [r0, #668]	@ 0x29c
 8006a18:	2b03      	cmp	r3, #3
 8006a1a:	d101      	bne.n	8006a20 <USBD_LL_IsoINIncomplete+0x1a>
  {
    if (pdev->pClass[pdev->classId]->IsoINIncomplete != NULL)
 8006a1c:	6a13      	ldr	r3, [r2, #32]
 8006a1e:	b90b      	cbnz	r3, 8006a24 <USBD_LL_IsoINIncomplete+0x1e>
    {
      (void)pdev->pClass[pdev->classId]->IsoINIncomplete(pdev, epnum);
    }
  }

  return USBD_OK;
 8006a20:	2000      	movs	r0, #0
}
 8006a22:	bd08      	pop	{r3, pc}
      (void)pdev->pClass[pdev->classId]->IsoINIncomplete(pdev, epnum);
 8006a24:	4798      	blx	r3
 8006a26:	e7fb      	b.n	8006a20 <USBD_LL_IsoINIncomplete+0x1a>
    return USBD_FAIL;
 8006a28:	2003      	movs	r0, #3
 8006a2a:	e7fa      	b.n	8006a22 <USBD_LL_IsoINIncomplete+0x1c>

08006a2c <USBD_LL_IsoOUTIncomplete>:
  * @retval status
  */
USBD_StatusTypeDef USBD_LL_IsoOUTIncomplete(USBD_HandleTypeDef *pdev,
                                            uint8_t epnum)
{
  if (pdev->pClass[pdev->classId] == NULL)
 8006a2c:	f8d0 22d4 	ldr.w	r2, [r0, #724]	@ 0x2d4
 8006a30:	32ae      	adds	r2, #174	@ 0xae
{
 8006a32:	b508      	push	{r3, lr}
  if (pdev->pClass[pdev->classId] == NULL)
 8006a34:	f850 2022 	ldr.w	r2, [r0, r2, lsl #2]
 8006a38:	b14a      	cbz	r2, 8006a4e <USBD_LL_IsoOUTIncomplete+0x22>
  {
    return USBD_FAIL;
  }

  if (pdev->dev_state == USBD_STATE_CONFIGURED)
 8006a3a:	f890 329c 	ldrb.w	r3, [r0, #668]	@ 0x29c
 8006a3e:	2b03      	cmp	r3, #3
 8006a40:	d101      	bne.n	8006a46 <USBD_LL_IsoOUTIncomplete+0x1a>
  {
    if (pdev->pClass[pdev->classId]->IsoOUTIncomplete != NULL)
 8006a42:	6a53      	ldr	r3, [r2, #36]	@ 0x24
 8006a44:	b90b      	cbnz	r3, 8006a4a <USBD_LL_IsoOUTIncomplete+0x1e>
    {
      (void)pdev->pClass[pdev->classId]->IsoOUTIncomplete(pdev, epnum);
    }
  }

  return USBD_OK;
 8006a46:	2000      	movs	r0, #0
}
 8006a48:	bd08      	pop	{r3, pc}
      (void)pdev->pClass[pdev->classId]->IsoOUTIncomplete(pdev, epnum);
 8006a4a:	4798      	blx	r3
 8006a4c:	e7fb      	b.n	8006a46 <USBD_LL_IsoOUTIncomplete+0x1a>
    return USBD_FAIL;
 8006a4e:	2003      	movs	r0, #3
 8006a50:	e7fa      	b.n	8006a48 <USBD_LL_IsoOUTIncomplete+0x1c>

08006a52 <USBD_LL_DevConnected>:
  * @brief  USBD_LL_DevConnected
  *         Handle device connection event
  * @param  pdev: device instance
  * @retval status
  */
USBD_StatusTypeDef USBD_LL_DevConnected(USBD_HandleTypeDef *pdev)
 8006a52:	2000      	movs	r0, #0
 8006a54:	4770      	bx	lr

08006a56 <USBD_LL_DevDisconnected>:
USBD_StatusTypeDef USBD_LL_DevDisconnected(USBD_HandleTypeDef *pdev)
{
  USBD_StatusTypeDef   ret = USBD_OK;

  /* Free Class Resources */
  pdev->dev_state = USBD_STATE_DEFAULT;
 8006a56:	2201      	movs	r2, #1
{
 8006a58:	b508      	push	{r3, lr}
  pdev->dev_state = USBD_STATE_DEFAULT;
 8006a5a:	f880 229c 	strb.w	r2, [r0, #668]	@ 0x29c
        }
      }
    }
  }
#else
  if (pdev->pClass[0] != NULL)
 8006a5e:	f8d0 22b8 	ldr.w	r2, [r0, #696]	@ 0x2b8
 8006a62:	b90a      	cbnz	r2, 8006a68 <USBD_LL_DevDisconnected+0x12>
  USBD_StatusTypeDef   ret = USBD_OK;
 8006a64:	2000      	movs	r0, #0
    }
  }
#endif /* USE_USBD_COMPOSITE */

  return ret;
}
 8006a66:	bd08      	pop	{r3, pc}
    if (pdev->pClass[0]->DeInit(pdev, (uint8_t)pdev->dev_config) != 0U)
 8006a68:	6852      	ldr	r2, [r2, #4]
 8006a6a:	7901      	ldrb	r1, [r0, #4]
 8006a6c:	4790      	blx	r2
 8006a6e:	2800      	cmp	r0, #0
 8006a70:	d0f8      	beq.n	8006a64 <USBD_LL_DevDisconnected+0xe>
      ret = USBD_FAIL;
 8006a72:	2003      	movs	r0, #3
 8006a74:	e7f7      	b.n	8006a66 <USBD_LL_DevDisconnected+0x10>

08006a76 <USBD_CoreFindIF>:
  UNUSED(pdev);
  UNUSED(index);

  return 0x00U;
#endif /* USE_USBD_COMPOSITE */
}
 8006a76:	2000      	movs	r0, #0
 8006a78:	4770      	bx	lr

08006a7a <USBD_CoreFindEP>:
  *         return the class index relative to the selected endpoint
  * @param  pdev: device instance
  * @param  index : selected endpoint number
  * @retval index of the class using the selected endpoint number. 0xFF if no class found.
  */
uint8_t USBD_CoreFindEP(USBD_HandleTypeDef *pdev, uint8_t index)
 8006a7a:	2000      	movs	r0, #0
 8006a7c:	4770      	bx	lr

08006a7e <USBD_GetEpDesc>:
  * @param  pConfDesc:  pointer to Bos descriptor
  * @param  EpAddr:  endpoint address
  * @retval pointer to video endpoint descriptor
  */
void *USBD_GetEpDesc(uint8_t *pConfDesc, uint8_t EpAddr)
{
 8006a7e:	b510      	push	{r4, lr}
  USBD_DescHeaderTypeDef *pdesc = (USBD_DescHeaderTypeDef *)(void *)pConfDesc;
  USBD_ConfigDescTypeDef *desc = (USBD_ConfigDescTypeDef *)(void *)pConfDesc;
  USBD_EpDescTypeDef *pEpDesc = NULL;
  uint16_t ptr;

  if (desc->wTotalLength > desc->bLength)
 8006a80:	8842      	ldrh	r2, [r0, #2]
 8006a82:	7803      	ldrb	r3, [r0, #0]
 8006a84:	429a      	cmp	r2, r3
 8006a86:	d801      	bhi.n	8006a8c <USBD_GetEpDesc+0xe>
  USBD_EpDescTypeDef *pEpDesc = NULL;
 8006a88:	2000      	movs	r0, #0
      }
    }
  }

  return (void *)pEpDesc;
}
 8006a8a:	bd10      	pop	{r4, pc}
  */
USBD_DescHeaderTypeDef *USBD_GetNextDesc(uint8_t *pbuf, uint16_t *ptr)
{
  USBD_DescHeaderTypeDef *pnext = (USBD_DescHeaderTypeDef *)(void *)pbuf;

  *ptr += pnext->bLength;
 8006a8c:	7804      	ldrb	r4, [r0, #0]
  pnext = (USBD_DescHeaderTypeDef *)(void *)(pbuf + pnext->bLength);
 8006a8e:	4420      	add	r0, r4
  *ptr += pnext->bLength;
 8006a90:	4423      	add	r3, r4
      if (pdesc->bDescriptorType == USB_DESC_TYPE_ENDPOINT)
 8006a92:	7844      	ldrb	r4, [r0, #1]
 8006a94:	2c05      	cmp	r4, #5
  *ptr += pnext->bLength;
 8006a96:	b29b      	uxth	r3, r3
      if (pdesc->bDescriptorType == USB_DESC_TYPE_ENDPOINT)
 8006a98:	d1f4      	bne.n	8006a84 <USBD_GetEpDesc+0x6>
        if (pEpDesc->bEndpointAddress == EpAddr)
 8006a9a:	7884      	ldrb	r4, [r0, #2]
 8006a9c:	428c      	cmp	r4, r1
 8006a9e:	d1f1      	bne.n	8006a84 <USBD_GetEpDesc+0x6>
 8006aa0:	e7f3      	b.n	8006a8a <USBD_GetEpDesc+0xc>

08006aa2 <USBD_CtlError.constprop.0>:
  *         Handle USB low level Error
  * @param  pdev: device instance
  * @param  req: usb request
  * @retval None
  */
void USBD_CtlError(USBD_HandleTypeDef *pdev, USBD_SetupReqTypedef *req)
 8006aa2:	b510      	push	{r4, lr}
{
  UNUSED(req);

  (void)USBD_LL_StallEP(pdev, 0x80U);
 8006aa4:	2180      	movs	r1, #128	@ 0x80
void USBD_CtlError(USBD_HandleTypeDef *pdev, USBD_SetupReqTypedef *req)
 8006aa6:	4604      	mov	r4, r0
  (void)USBD_LL_StallEP(pdev, 0x80U);
 8006aa8:	f001 fb75 	bl	8008196 <USBD_LL_StallEP>
  (void)USBD_LL_StallEP(pdev, 0U);
 8006aac:	4620      	mov	r0, r4
 8006aae:	2100      	movs	r1, #0
}
 8006ab0:	e8bd 4010 	ldmia.w	sp!, {r4, lr}
  (void)USBD_LL_StallEP(pdev, 0U);
 8006ab4:	f001 bb6f 	b.w	8008196 <USBD_LL_StallEP>

08006ab8 <USBD_StdDevReq>:
{
 8006ab8:	b573      	push	{r0, r1, r4, r5, r6, lr}
 8006aba:	780b      	ldrb	r3, [r1, #0]
 8006abc:	f003 0360 	and.w	r3, r3, #96	@ 0x60
  switch (req->bmRequest & USB_REQ_TYPE_MASK)
 8006ac0:	2b20      	cmp	r3, #32
{
 8006ac2:	4604      	mov	r4, r0
 8006ac4:	460d      	mov	r5, r1
  switch (req->bmRequest & USB_REQ_TYPE_MASK)
 8006ac6:	d009      	beq.n	8006adc <USBD_StdDevReq+0x24>
 8006ac8:	2b40      	cmp	r3, #64	@ 0x40
 8006aca:	d007      	beq.n	8006adc <USBD_StdDevReq+0x24>
 8006acc:	b193      	cbz	r3, 8006af4 <USBD_StdDevReq+0x3c>
      USBD_CtlError(pdev, req);
 8006ace:	4620      	mov	r0, r4
 8006ad0:	f7ff ffe7 	bl	8006aa2 <USBD_CtlError.constprop.0>
  USBD_StatusTypeDef ret = USBD_OK;
 8006ad4:	2500      	movs	r5, #0
}
 8006ad6:	4628      	mov	r0, r5
 8006ad8:	b002      	add	sp, #8
 8006ada:	bd70      	pop	{r4, r5, r6, pc}
      ret = (USBD_StatusTypeDef)pdev->pClass[pdev->classId]->Setup(pdev, req);
 8006adc:	f8d4 32d4 	ldr.w	r3, [r4, #724]	@ 0x2d4
 8006ae0:	33ae      	adds	r3, #174	@ 0xae
 8006ae2:	4629      	mov	r1, r5
 8006ae4:	f854 3023 	ldr.w	r3, [r4, r3, lsl #2]
 8006ae8:	689b      	ldr	r3, [r3, #8]
 8006aea:	4620      	mov	r0, r4
}
 8006aec:	b002      	add	sp, #8
 8006aee:	e8bd 4070 	ldmia.w	sp!, {r4, r5, r6, lr}
      ret = (USBD_StatusTypeDef)pdev->pClass[pdev->classId]->Setup(pdev, req);
 8006af2:	4718      	bx	r3
      switch (req->bRequest)
 8006af4:	784b      	ldrb	r3, [r1, #1]
 8006af6:	2b09      	cmp	r3, #9
 8006af8:	d8e9      	bhi.n	8006ace <USBD_StdDevReq+0x16>
 8006afa:	a201      	add	r2, pc, #4	@ (adr r2, 8006b00 <USBD_StdDevReq+0x48>)
 8006afc:	f852 f023 	ldr.w	pc, [r2, r3, lsl #2]
 8006b00:	08006d21 	.word	0x08006d21
 8006b04:	08006d65 	.word	0x08006d65
 8006b08:	08006acf 	.word	0x08006acf
 8006b0c:	08006d49 	.word	0x08006d49
 8006b10:	08006acf 	.word	0x08006acf
 8006b14:	08006c1b 	.word	0x08006c1b
 8006b18:	08006b29 	.word	0x08006b29
 8006b1c:	08006acf 	.word	0x08006acf
 8006b20:	08006cf5 	.word	0x08006cf5
 8006b24:	08006c5d 	.word	0x08006c5d
  uint16_t len = 0U;
 8006b28:	2300      	movs	r3, #0
 8006b2a:	f8ad 3006 	strh.w	r3, [sp, #6]
  switch (req->wValue >> 8)
 8006b2e:	884b      	ldrh	r3, [r1, #2]
 8006b30:	0a1a      	lsrs	r2, r3, #8
 8006b32:	3a01      	subs	r2, #1
 8006b34:	2a06      	cmp	r2, #6
 8006b36:	d8ca      	bhi.n	8006ace <USBD_StdDevReq+0x16>
 8006b38:	a101      	add	r1, pc, #4	@ (adr r1, 8006b40 <USBD_StdDevReq+0x88>)
 8006b3a:	f851 f022 	ldr.w	pc, [r1, r2, lsl #2]
 8006b3e:	bf00      	nop
 8006b40:	08006b5d 	.word	0x08006b5d
 8006b44:	08006b8f 	.word	0x08006b8f
 8006b48:	08006ba9 	.word	0x08006ba9
 8006b4c:	08006acf 	.word	0x08006acf
 8006b50:	08006acf 	.word	0x08006acf
 8006b54:	08006bed 	.word	0x08006bed
 8006b58:	08006c03 	.word	0x08006c03
      pbuf = pdev->pDesc->GetDeviceDescriptor(pdev->dev_speed, &len);
 8006b5c:	f8d0 32b4 	ldr.w	r3, [r0, #692]	@ 0x2b4
 8006b60:	681b      	ldr	r3, [r3, #0]
            pbuf = pdev->pDesc->GetInterfaceStrDescriptor(pdev->dev_speed, &len);
 8006b62:	7c20      	ldrb	r0, [r4, #16]
 8006b64:	f10d 0106 	add.w	r1, sp, #6
 8006b68:	4798      	blx	r3
  if (req->wLength != 0U)
 8006b6a:	88ea      	ldrh	r2, [r5, #6]
 8006b6c:	2a00      	cmp	r2, #0
 8006b6e:	f000 80a4 	beq.w	8006cba <USBD_StdDevReq+0x202>
    if (len != 0U)
 8006b72:	f8bd 3006 	ldrh.w	r3, [sp, #6]
 8006b76:	2b00      	cmp	r3, #0
 8006b78:	d0a9      	beq.n	8006ace <USBD_StdDevReq+0x16>
      len = MIN(len, req->wLength);
 8006b7a:	429a      	cmp	r2, r3
 8006b7c:	bf28      	it	cs
 8006b7e:	461a      	movcs	r2, r3
 8006b80:	f8ad 2006 	strh.w	r2, [sp, #6]
      (void)USBD_CtlSendData(pdev, pbuf, len);
 8006b84:	4601      	mov	r1, r0
      (void)USBD_CtlSendData(pdev, (uint8_t *)&pdev->dev_config_status, 2U);
 8006b86:	4620      	mov	r0, r4
 8006b88:	f000 f9ff 	bl	8006f8a <USBD_CtlSendData>
      break;
 8006b8c:	e7a2      	b.n	8006ad4 <USBD_StdDevReq+0x1c>
      if (pdev->dev_speed == USBD_SPEED_HIGH)
 8006b8e:	7c02      	ldrb	r2, [r0, #16]
          pbuf = (uint8_t *)pdev->pClass[0]->GetHSConfigDescriptor(&len);
 8006b90:	f8d0 32b8 	ldr.w	r3, [r0, #696]	@ 0x2b8
      if (pdev->dev_speed == USBD_SPEED_HIGH)
 8006b94:	b932      	cbnz	r2, 8006ba4 <USBD_StdDevReq+0xec>
          pbuf = (uint8_t *)pdev->pClass[0]->GetHSConfigDescriptor(&len);
 8006b96:	6a9b      	ldr	r3, [r3, #40]	@ 0x28
          pbuf = (uint8_t *)pdev->pClass[0]->GetFSConfigDescriptor(&len);
 8006b98:	f10d 0006 	add.w	r0, sp, #6
 8006b9c:	4798      	blx	r3
        pbuf[1] = USB_DESC_TYPE_CONFIGURATION;
 8006b9e:	2302      	movs	r3, #2
        pbuf[1] = USB_DESC_TYPE_OTHER_SPEED_CONFIGURATION;
 8006ba0:	7043      	strb	r3, [r0, #1]
  if (err != 0U)
 8006ba2:	e7e2      	b.n	8006b6a <USBD_StdDevReq+0xb2>
          pbuf = (uint8_t *)pdev->pClass[0]->GetFSConfigDescriptor(&len);
 8006ba4:	6adb      	ldr	r3, [r3, #44]	@ 0x2c
 8006ba6:	e7f7      	b.n	8006b98 <USBD_StdDevReq+0xe0>
      switch ((uint8_t)(req->wValue))
 8006ba8:	b2db      	uxtb	r3, r3
 8006baa:	2b05      	cmp	r3, #5
 8006bac:	d88f      	bhi.n	8006ace <USBD_StdDevReq+0x16>
 8006bae:	e8df f003 	tbb	[pc, r3]
 8006bb2:	0903      	.short	0x0903
 8006bb4:	1915110d 	.word	0x1915110d
          if (pdev->pDesc->GetLangIDStrDescriptor != NULL)
 8006bb8:	f8d0 32b4 	ldr.w	r3, [r0, #692]	@ 0x2b4
 8006bbc:	685b      	ldr	r3, [r3, #4]
          if (pdev->pDesc->GetInterfaceStrDescriptor != NULL)
 8006bbe:	2b00      	cmp	r3, #0
 8006bc0:	d1cf      	bne.n	8006b62 <USBD_StdDevReq+0xaa>
 8006bc2:	e784      	b.n	8006ace <USBD_StdDevReq+0x16>
          if (pdev->pDesc->GetManufacturerStrDescriptor != NULL)
 8006bc4:	f8d0 32b4 	ldr.w	r3, [r0, #692]	@ 0x2b4
 8006bc8:	689b      	ldr	r3, [r3, #8]
 8006bca:	e7f8      	b.n	8006bbe <USBD_StdDevReq+0x106>
          if (pdev->pDesc->GetProductStrDescriptor != NULL)
 8006bcc:	f8d0 32b4 	ldr.w	r3, [r0, #692]	@ 0x2b4
 8006bd0:	68db      	ldr	r3, [r3, #12]
 8006bd2:	e7f4      	b.n	8006bbe <USBD_StdDevReq+0x106>
          if (pdev->pDesc->GetSerialStrDescriptor != NULL)
 8006bd4:	f8d0 32b4 	ldr.w	r3, [r0, #692]	@ 0x2b4
 8006bd8:	691b      	ldr	r3, [r3, #16]
 8006bda:	e7f0      	b.n	8006bbe <USBD_StdDevReq+0x106>
          if (pdev->pDesc->GetConfigurationStrDescriptor != NULL)
 8006bdc:	f8d0 32b4 	ldr.w	r3, [r0, #692]	@ 0x2b4
 8006be0:	695b      	ldr	r3, [r3, #20]
 8006be2:	e7ec      	b.n	8006bbe <USBD_StdDevReq+0x106>
          if (pdev->pDesc->GetInterfaceStrDescriptor != NULL)
 8006be4:	f8d0 32b4 	ldr.w	r3, [r0, #692]	@ 0x2b4
 8006be8:	699b      	ldr	r3, [r3, #24]
 8006bea:	e7e8      	b.n	8006bbe <USBD_StdDevReq+0x106>
      if (pdev->dev_speed == USBD_SPEED_HIGH)
 8006bec:	7c03      	ldrb	r3, [r0, #16]
 8006bee:	2b00      	cmp	r3, #0
 8006bf0:	f47f af6d 	bne.w	8006ace <USBD_StdDevReq+0x16>
          pbuf = (uint8_t *)pdev->pClass[0]->GetDeviceQualifierDescriptor(&len);
 8006bf4:	f8d0 32b8 	ldr.w	r3, [r0, #696]	@ 0x2b8
 8006bf8:	f10d 0006 	add.w	r0, sp, #6
 8006bfc:	6b5b      	ldr	r3, [r3, #52]	@ 0x34
 8006bfe:	4798      	blx	r3
  if (err != 0U)
 8006c00:	e7b3      	b.n	8006b6a <USBD_StdDevReq+0xb2>
      if (pdev->dev_speed == USBD_SPEED_HIGH)
 8006c02:	7c03      	ldrb	r3, [r0, #16]
 8006c04:	2b00      	cmp	r3, #0
 8006c06:	f47f af62 	bne.w	8006ace <USBD_StdDevReq+0x16>
          pbuf = (uint8_t *)pdev->pClass[0]->GetOtherSpeedConfigDescriptor(&len);
 8006c0a:	f8d0 32b8 	ldr.w	r3, [r0, #696]	@ 0x2b8
 8006c0e:	f10d 0006 	add.w	r0, sp, #6
 8006c12:	6b1b      	ldr	r3, [r3, #48]	@ 0x30
 8006c14:	4798      	blx	r3
        pbuf[1] = USB_DESC_TYPE_OTHER_SPEED_CONFIGURATION;
 8006c16:	2307      	movs	r3, #7
 8006c18:	e7c2      	b.n	8006ba0 <USBD_StdDevReq+0xe8>
  if ((req->wIndex == 0U) && (req->wLength == 0U) && (req->wValue < 128U))
 8006c1a:	888b      	ldrh	r3, [r1, #4]
 8006c1c:	2b00      	cmp	r3, #0
 8006c1e:	f47f af56 	bne.w	8006ace <USBD_StdDevReq+0x16>
 8006c22:	88cb      	ldrh	r3, [r1, #6]
 8006c24:	2b00      	cmp	r3, #0
 8006c26:	f47f af52 	bne.w	8006ace <USBD_StdDevReq+0x16>
 8006c2a:	884d      	ldrh	r5, [r1, #2]
 8006c2c:	2d7f      	cmp	r5, #127	@ 0x7f
 8006c2e:	f63f af4e 	bhi.w	8006ace <USBD_StdDevReq+0x16>
    if (pdev->dev_state == USBD_STATE_CONFIGURED)
 8006c32:	f890 329c 	ldrb.w	r3, [r0, #668]	@ 0x29c
 8006c36:	2b03      	cmp	r3, #3
 8006c38:	f43f af49 	beq.w	8006ace <USBD_StdDevReq+0x16>
    dev_addr = (uint8_t)(req->wValue) & 0x7FU;
 8006c3c:	b2ed      	uxtb	r5, r5
      pdev->dev_address = dev_addr;
 8006c3e:	f880 529e 	strb.w	r5, [r0, #670]	@ 0x29e
      (void)USBD_LL_SetUSBAddress(pdev, dev_addr);
 8006c42:	4629      	mov	r1, r5
 8006c44:	f001 fab9 	bl	80081ba <USBD_LL_SetUSBAddress>
      (void)USBD_CtlSendStatus(pdev);
 8006c48:	4620      	mov	r0, r4
 8006c4a:	f000 f9cd 	bl	8006fe8 <USBD_CtlSendStatus>
      if (dev_addr != 0U)
 8006c4e:	b11d      	cbz	r5, 8006c58 <USBD_StdDevReq+0x1a0>
        pdev->dev_state = USBD_STATE_ADDRESSED;
 8006c50:	2302      	movs	r3, #2
          pdev->dev_state = USBD_STATE_CONFIGURED;
 8006c52:	f884 329c 	strb.w	r3, [r4, #668]	@ 0x29c
 8006c56:	e73d      	b.n	8006ad4 <USBD_StdDevReq+0x1c>
        pdev->dev_state = USBD_STATE_DEFAULT;
 8006c58:	2301      	movs	r3, #1
 8006c5a:	e7fa      	b.n	8006c52 <USBD_StdDevReq+0x19a>
  cfgidx = (uint8_t)(req->wValue);
 8006c5c:	7889      	ldrb	r1, [r1, #2]
 8006c5e:	4d47      	ldr	r5, [pc, #284]	@ (8006d7c <USBD_StdDevReq+0x2c4>)
  if (cfgidx > USBD_MAX_NUM_CONFIGURATION)
 8006c60:	2901      	cmp	r1, #1
  cfgidx = (uint8_t)(req->wValue);
 8006c62:	7029      	strb	r1, [r5, #0]
  if (cfgidx > USBD_MAX_NUM_CONFIGURATION)
 8006c64:	d903      	bls.n	8006c6e <USBD_StdDevReq+0x1b6>
    USBD_CtlError(pdev, req);
 8006c66:	f7ff ff1c 	bl	8006aa2 <USBD_CtlError.constprop.0>
    return USBD_FAIL;
 8006c6a:	2503      	movs	r5, #3
 8006c6c:	e733      	b.n	8006ad6 <USBD_StdDevReq+0x1e>
  switch (pdev->dev_state)
 8006c6e:	f890 329c 	ldrb.w	r3, [r0, #668]	@ 0x29c
 8006c72:	2b02      	cmp	r3, #2
 8006c74:	b2de      	uxtb	r6, r3
 8006c76:	d008      	beq.n	8006c8a <USBD_StdDevReq+0x1d2>
 8006c78:	2e03      	cmp	r6, #3
 8006c7a:	d017      	beq.n	8006cac <USBD_StdDevReq+0x1f4>
      USBD_CtlError(pdev, req);
 8006c7c:	f7ff ff11 	bl	8006aa2 <USBD_CtlError.constprop.0>
      (void)USBD_ClrClassConfig(pdev, cfgidx);
 8006c80:	7829      	ldrb	r1, [r5, #0]
 8006c82:	4620      	mov	r0, r4
 8006c84:	f7ff fd9f 	bl	80067c6 <USBD_ClrClassConfig>
      break;
 8006c88:	e7ef      	b.n	8006c6a <USBD_StdDevReq+0x1b2>
      if (cfgidx != 0U)
 8006c8a:	b1b1      	cbz	r1, 8006cba <USBD_StdDevReq+0x202>
        pdev->dev_config = cfgidx;
 8006c8c:	2101      	movs	r1, #1
 8006c8e:	6041      	str	r1, [r0, #4]
        ret = USBD_SetClassConfig(pdev, cfgidx);
 8006c90:	f7ff fd92 	bl	80067b8 <USBD_SetClassConfig>
        if (ret != USBD_OK)
 8006c94:	4605      	mov	r5, r0
          USBD_CtlError(pdev, req);
 8006c96:	4620      	mov	r0, r4
        if (ret != USBD_OK)
 8006c98:	b125      	cbz	r5, 8006ca4 <USBD_StdDevReq+0x1ec>
          USBD_CtlError(pdev, req);
 8006c9a:	f7ff ff02 	bl	8006aa2 <USBD_CtlError.constprop.0>
          pdev->dev_state = USBD_STATE_ADDRESSED;
 8006c9e:	f884 629c 	strb.w	r6, [r4, #668]	@ 0x29c
 8006ca2:	e718      	b.n	8006ad6 <USBD_StdDevReq+0x1e>
          (void)USBD_CtlSendStatus(pdev);
 8006ca4:	f000 f9a0 	bl	8006fe8 <USBD_CtlSendStatus>
          pdev->dev_state = USBD_STATE_CONFIGURED;
 8006ca8:	2303      	movs	r3, #3
 8006caa:	e7d2      	b.n	8006c52 <USBD_StdDevReq+0x19a>
      if (cfgidx == 0U)
 8006cac:	b949      	cbnz	r1, 8006cc2 <USBD_StdDevReq+0x20a>
        pdev->dev_state = USBD_STATE_ADDRESSED;
 8006cae:	2302      	movs	r3, #2
 8006cb0:	f880 329c 	strb.w	r3, [r0, #668]	@ 0x29c
        pdev->dev_config = cfgidx;
 8006cb4:	6041      	str	r1, [r0, #4]
        (void)USBD_ClrClassConfig(pdev, cfgidx);
 8006cb6:	f7ff fd86 	bl	80067c6 <USBD_ClrClassConfig>
        (void)USBD_CtlSendStatus(pdev);
 8006cba:	4620      	mov	r0, r4
 8006cbc:	f000 f994 	bl	8006fe8 <USBD_CtlSendStatus>
 8006cc0:	e708      	b.n	8006ad4 <USBD_StdDevReq+0x1c>
      else if (cfgidx != pdev->dev_config)
 8006cc2:	6841      	ldr	r1, [r0, #4]
 8006cc4:	2901      	cmp	r1, #1
 8006cc6:	d0f8      	beq.n	8006cba <USBD_StdDevReq+0x202>
        (void)USBD_ClrClassConfig(pdev, (uint8_t)pdev->dev_config);
 8006cc8:	b2c9      	uxtb	r1, r1
 8006cca:	f7ff fd7c 	bl	80067c6 <USBD_ClrClassConfig>
        pdev->dev_config = cfgidx;
 8006cce:	7829      	ldrb	r1, [r5, #0]
 8006cd0:	6061      	str	r1, [r4, #4]
        ret = USBD_SetClassConfig(pdev, cfgidx);
 8006cd2:	4620      	mov	r0, r4
 8006cd4:	f7ff fd70 	bl	80067b8 <USBD_SetClassConfig>
        if (ret != USBD_OK)
 8006cd8:	4605      	mov	r5, r0
 8006cda:	2800      	cmp	r0, #0
 8006cdc:	d0ed      	beq.n	8006cba <USBD_StdDevReq+0x202>
          USBD_CtlError(pdev, req);
 8006cde:	4620      	mov	r0, r4
 8006ce0:	f7ff fedf 	bl	8006aa2 <USBD_CtlError.constprop.0>
          (void)USBD_ClrClassConfig(pdev, (uint8_t)pdev->dev_config);
 8006ce4:	7921      	ldrb	r1, [r4, #4]
 8006ce6:	4620      	mov	r0, r4
 8006ce8:	f7ff fd6d 	bl	80067c6 <USBD_ClrClassConfig>
          pdev->dev_state = USBD_STATE_ADDRESSED;
 8006cec:	2302      	movs	r3, #2
 8006cee:	f884 329c 	strb.w	r3, [r4, #668]	@ 0x29c
 8006cf2:	e6f0      	b.n	8006ad6 <USBD_StdDevReq+0x1e>
  if (req->wLength != 1U)
 8006cf4:	88ca      	ldrh	r2, [r1, #6]
 8006cf6:	2a01      	cmp	r2, #1
 8006cf8:	f47f aee9 	bne.w	8006ace <USBD_StdDevReq+0x16>
    switch (pdev->dev_state)
 8006cfc:	f890 129c 	ldrb.w	r1, [r0, #668]	@ 0x29c
 8006d00:	2902      	cmp	r1, #2
 8006d02:	b2cb      	uxtb	r3, r1
 8006d04:	d807      	bhi.n	8006d16 <USBD_StdDevReq+0x25e>
 8006d06:	2b00      	cmp	r3, #0
 8006d08:	f43f aee1 	beq.w	8006ace <USBD_StdDevReq+0x16>
        pdev->dev_default_config = 0U;
 8006d0c:	4601      	mov	r1, r0
 8006d0e:	2300      	movs	r3, #0
 8006d10:	f841 3f08 	str.w	r3, [r1, #8]!
        (void)USBD_CtlSendData(pdev, (uint8_t *)&pdev->dev_default_config, 1U);
 8006d14:	e737      	b.n	8006b86 <USBD_StdDevReq+0xce>
    switch (pdev->dev_state)
 8006d16:	2b03      	cmp	r3, #3
 8006d18:	f47f aed9 	bne.w	8006ace <USBD_StdDevReq+0x16>
        (void)USBD_CtlSendData(pdev, (uint8_t *)&pdev->dev_config, 1U);
 8006d1c:	1d01      	adds	r1, r0, #4
 8006d1e:	e732      	b.n	8006b86 <USBD_StdDevReq+0xce>
  switch (pdev->dev_state)
 8006d20:	f890 329c 	ldrb.w	r3, [r0, #668]	@ 0x29c
 8006d24:	3b01      	subs	r3, #1
 8006d26:	2b02      	cmp	r3, #2
 8006d28:	f63f aed1 	bhi.w	8006ace <USBD_StdDevReq+0x16>
      if (req->wLength != 0x2U)
 8006d2c:	88ca      	ldrh	r2, [r1, #6]
 8006d2e:	2a02      	cmp	r2, #2
 8006d30:	f47f aecd 	bne.w	8006ace <USBD_StdDevReq+0x16>
      if (pdev->dev_remote_wakeup != 0U)
 8006d34:	f8d0 32a4 	ldr.w	r3, [r0, #676]	@ 0x2a4
 8006d38:	4601      	mov	r1, r0
        pdev->dev_config_status |= USB_CONFIG_REMOTE_WAKEUP;
 8006d3a:	2b00      	cmp	r3, #0
 8006d3c:	bf0c      	ite	eq
 8006d3e:	2301      	moveq	r3, #1
 8006d40:	2303      	movne	r3, #3
 8006d42:	f841 3f0c 	str.w	r3, [r1, #12]!
 8006d46:	e71e      	b.n	8006b86 <USBD_StdDevReq+0xce>
  if (req->wValue == USB_FEATURE_REMOTE_WAKEUP)
 8006d48:	884b      	ldrh	r3, [r1, #2]
 8006d4a:	2b01      	cmp	r3, #1
 8006d4c:	d102      	bne.n	8006d54 <USBD_StdDevReq+0x29c>
        pdev->dev_remote_wakeup = 0U;
 8006d4e:	f8c4 32a4 	str.w	r3, [r4, #676]	@ 0x2a4
 8006d52:	e7b2      	b.n	8006cba <USBD_StdDevReq+0x202>
  else if (req->wValue == USB_FEATURE_TEST_MODE)
 8006d54:	2b02      	cmp	r3, #2
 8006d56:	f47f aeba 	bne.w	8006ace <USBD_StdDevReq+0x16>
    pdev->dev_test_mode = (uint8_t)(req->wIndex >> 8);
 8006d5a:	888b      	ldrh	r3, [r1, #4]
 8006d5c:	0a1b      	lsrs	r3, r3, #8
 8006d5e:	f880 32a0 	strb.w	r3, [r0, #672]	@ 0x2a0
    (void)USBD_CtlSendStatus(pdev);
 8006d62:	e7aa      	b.n	8006cba <USBD_StdDevReq+0x202>
  switch (pdev->dev_state)
 8006d64:	f890 329c 	ldrb.w	r3, [r0, #668]	@ 0x29c
 8006d68:	3b01      	subs	r3, #1
 8006d6a:	2b02      	cmp	r3, #2
 8006d6c:	f63f aeaf 	bhi.w	8006ace <USBD_StdDevReq+0x16>
      if (req->wValue == USB_FEATURE_REMOTE_WAKEUP)
 8006d70:	884b      	ldrh	r3, [r1, #2]
 8006d72:	2b01      	cmp	r3, #1
 8006d74:	f47f aeae 	bne.w	8006ad4 <USBD_StdDevReq+0x1c>
        pdev->dev_remote_wakeup = 0U;
 8006d78:	2300      	movs	r3, #0
 8006d7a:	e7e8      	b.n	8006d4e <USBD_StdDevReq+0x296>
 8006d7c:	2000163c 	.word	0x2000163c

08006d80 <USBD_StdItfReq>:
{
 8006d80:	b570      	push	{r4, r5, r6, lr}
  switch (req->bmRequest & USB_REQ_TYPE_MASK)
 8006d82:	780b      	ldrb	r3, [r1, #0]
 8006d84:	f003 0260 	and.w	r2, r3, #96	@ 0x60
 8006d88:	065b      	lsls	r3, r3, #25
{
 8006d8a:	4604      	mov	r4, r0
 8006d8c:	460e      	mov	r6, r1
  switch (req->bmRequest & USB_REQ_TYPE_MASK)
 8006d8e:	d501      	bpl.n	8006d94 <USBD_StdItfReq+0x14>
 8006d90:	2a40      	cmp	r2, #64	@ 0x40
 8006d92:	d11f      	bne.n	8006dd4 <USBD_StdItfReq+0x54>
      switch (pdev->dev_state)
 8006d94:	f894 329c 	ldrb.w	r3, [r4, #668]	@ 0x29c
 8006d98:	3b01      	subs	r3, #1
 8006d9a:	2b02      	cmp	r3, #2
 8006d9c:	d81a      	bhi.n	8006dd4 <USBD_StdItfReq+0x54>
          if (LOBYTE(req->wIndex) <= USBD_MAX_NUM_INTERFACES)
 8006d9e:	7931      	ldrb	r1, [r6, #4]
 8006da0:	2901      	cmp	r1, #1
            idx = USBD_CoreFindIF(pdev, LOBYTE(req->wIndex));
 8006da2:	4620      	mov	r0, r4
          if (LOBYTE(req->wIndex) <= USBD_MAX_NUM_INTERFACES)
 8006da4:	d817      	bhi.n	8006dd6 <USBD_StdItfReq+0x56>
            idx = USBD_CoreFindIF(pdev, LOBYTE(req->wIndex));
 8006da6:	f7ff fe66 	bl	8006a76 <USBD_CoreFindIF>
            if (((uint8_t)idx != 0xFFU) && (idx < USBD_MAX_SUPPORTED_CLASS))
 8006daa:	b988      	cbnz	r0, 8006dd0 <USBD_StdItfReq+0x50>
              if (pdev->pClass[idx]->Setup != NULL)
 8006dac:	f8d4 32b8 	ldr.w	r3, [r4, #696]	@ 0x2b8
 8006db0:	689b      	ldr	r3, [r3, #8]
 8006db2:	b16b      	cbz	r3, 8006dd0 <USBD_StdItfReq+0x50>
                pdev->classId = idx;
 8006db4:	f8c4 02d4 	str.w	r0, [r4, #724]	@ 0x2d4
                ret = (USBD_StatusTypeDef)(pdev->pClass[idx]->Setup(pdev, req));
 8006db8:	4631      	mov	r1, r6
 8006dba:	4620      	mov	r0, r4
 8006dbc:	4798      	blx	r3
 8006dbe:	4605      	mov	r5, r0
            if ((req->wLength == 0U) && (ret == USBD_OK))
 8006dc0:	88f3      	ldrh	r3, [r6, #6]
 8006dc2:	b91b      	cbnz	r3, 8006dcc <USBD_StdItfReq+0x4c>
 8006dc4:	b915      	cbnz	r5, 8006dcc <USBD_StdItfReq+0x4c>
              (void)USBD_CtlSendStatus(pdev);
 8006dc6:	4620      	mov	r0, r4
 8006dc8:	f000 f90e 	bl	8006fe8 <USBD_CtlSendStatus>
}
 8006dcc:	4628      	mov	r0, r5
 8006dce:	bd70      	pop	{r4, r5, r6, pc}
                ret = USBD_FAIL;
 8006dd0:	2503      	movs	r5, #3
 8006dd2:	e7f5      	b.n	8006dc0 <USBD_StdItfReq+0x40>
          USBD_CtlError(pdev, req);
 8006dd4:	4620      	mov	r0, r4
            USBD_CtlError(pdev, req);
 8006dd6:	f7ff fe64 	bl	8006aa2 <USBD_CtlError.constprop.0>
  USBD_StatusTypeDef ret = USBD_OK;
 8006dda:	2500      	movs	r5, #0
 8006ddc:	e7f6      	b.n	8006dcc <USBD_StdItfReq+0x4c>

08006dde <USBD_StdEPReq>:
{
 8006dde:	b570      	push	{r4, r5, r6, lr}
 8006de0:	780b      	ldrb	r3, [r1, #0]
  ep_addr = LOBYTE(req->wIndex);
 8006de2:	888a      	ldrh	r2, [r1, #4]
 8006de4:	790d      	ldrb	r5, [r1, #4]
 8006de6:	f003 0360 	and.w	r3, r3, #96	@ 0x60
  switch (req->bmRequest & USB_REQ_TYPE_MASK)
 8006dea:	2b20      	cmp	r3, #32
{
 8006dec:	4604      	mov	r4, r0
 8006dee:	460e      	mov	r6, r1
  switch (req->bmRequest & USB_REQ_TYPE_MASK)
 8006df0:	d059      	beq.n	8006ea6 <USBD_StdEPReq+0xc8>
 8006df2:	2b40      	cmp	r3, #64	@ 0x40
 8006df4:	d057      	beq.n	8006ea6 <USBD_StdEPReq+0xc8>
 8006df6:	b11b      	cbz	r3, 8006e00 <USBD_StdEPReq+0x22>
              USBD_CtlError(pdev, req);
 8006df8:	4620      	mov	r0, r4
 8006dfa:	f7ff fe52 	bl	8006aa2 <USBD_CtlError.constprop.0>
              break;
 8006dfe:	e03e      	b.n	8006e7e <USBD_StdEPReq+0xa0>
      switch (req->bRequest)
 8006e00:	784b      	ldrb	r3, [r1, #1]
 8006e02:	2b01      	cmp	r3, #1
 8006e04:	d03d      	beq.n	8006e82 <USBD_StdEPReq+0xa4>
 8006e06:	2b03      	cmp	r3, #3
 8006e08:	d026      	beq.n	8006e58 <USBD_StdEPReq+0x7a>
 8006e0a:	2b00      	cmp	r3, #0
 8006e0c:	d1f4      	bne.n	8006df8 <USBD_StdEPReq+0x1a>
          switch (pdev->dev_state)
 8006e0e:	f890 329c 	ldrb.w	r3, [r0, #668]	@ 0x29c
 8006e12:	2b02      	cmp	r3, #2
 8006e14:	b2d9      	uxtb	r1, r3
 8006e16:	d062      	beq.n	8006ede <USBD_StdEPReq+0x100>
 8006e18:	2903      	cmp	r1, #3
 8006e1a:	d1ed      	bne.n	8006df8 <USBD_StdEPReq+0x1a>
                if (pdev->ep_in[ep_addr & 0xFU].is_used == 0U)
 8006e1c:	f005 030f 	and.w	r3, r5, #15
              if ((ep_addr & 0x80U) == 0x80U)
 8006e20:	f012 0f80 	tst.w	r2, #128	@ 0x80
 8006e24:	f04f 0214 	mov.w	r2, #20
                if (pdev->ep_in[ep_addr & 0xFU].is_used == 0U)
 8006e28:	fb02 0303 	mla	r3, r2, r3, r0
              if ((ep_addr & 0x80U) == 0x80U)
 8006e2c:	d067      	beq.n	8006efe <USBD_StdEPReq+0x120>
                if (pdev->ep_in[ep_addr & 0xFU].is_used == 0U)
 8006e2e:	f893 3023 	ldrb.w	r3, [r3, #35]	@ 0x23
 8006e32:	2b00      	cmp	r3, #0
 8006e34:	d0e0      	beq.n	8006df8 <USBD_StdEPReq+0x1a>
              pep = ((ep_addr & 0x80U) == 0x80U) ? &pdev->ep_in[ep_addr & 0x7FU] : \
 8006e36:	f005 067f 	and.w	r6, r5, #127	@ 0x7f
 8006e3a:	3601      	adds	r6, #1
 8006e3c:	eb06 0686 	add.w	r6, r6, r6, lsl #2
              if ((ep_addr == 0x00U) || (ep_addr == 0x80U))
 8006e40:	2d80      	cmp	r5, #128	@ 0x80
              pep = ((ep_addr & 0x80U) == 0x80U) ? &pdev->ep_in[ep_addr & 0x7FU] : \
 8006e42:	eb00 0686 	add.w	r6, r0, r6, lsl #2
              if ((ep_addr == 0x00U) || (ep_addr == 0x80U))
 8006e46:	d066      	beq.n	8006f16 <USBD_StdEPReq+0x138>
              else if (USBD_LL_IsStallEP(pdev, ep_addr) != 0U)
 8006e48:	4629      	mov	r1, r5
 8006e4a:	4620      	mov	r0, r4
 8006e4c:	f001 f964 	bl	8008118 <USBD_LL_IsStallEP>
 8006e50:	2800      	cmp	r0, #0
 8006e52:	d066      	beq.n	8006f22 <USBD_StdEPReq+0x144>
                pep->status = 0x0001U;
 8006e54:	2301      	movs	r3, #1
 8006e56:	e05f      	b.n	8006f18 <USBD_StdEPReq+0x13a>
          switch (pdev->dev_state)
 8006e58:	f890 329c 	ldrb.w	r3, [r0, #668]	@ 0x29c
 8006e5c:	2b02      	cmp	r3, #2
 8006e5e:	b2da      	uxtb	r2, r3
 8006e60:	d033      	beq.n	8006eca <USBD_StdEPReq+0xec>
 8006e62:	2a03      	cmp	r2, #3
 8006e64:	d1c8      	bne.n	8006df8 <USBD_StdEPReq+0x1a>
              if (req->wValue == USB_FEATURE_EP_HALT)
 8006e66:	884b      	ldrh	r3, [r1, #2]
 8006e68:	b933      	cbnz	r3, 8006e78 <USBD_StdEPReq+0x9a>
                if ((ep_addr != 0x00U) && (ep_addr != 0x80U) && (req->wLength == 0x00U))
 8006e6a:	0669      	lsls	r1, r5, #25
 8006e6c:	d004      	beq.n	8006e78 <USBD_StdEPReq+0x9a>
 8006e6e:	88f3      	ldrh	r3, [r6, #6]
 8006e70:	b913      	cbnz	r3, 8006e78 <USBD_StdEPReq+0x9a>
                  (void)USBD_LL_StallEP(pdev, ep_addr);
 8006e72:	4629      	mov	r1, r5
 8006e74:	f001 f98f 	bl	8008196 <USBD_LL_StallEP>
              (void)USBD_CtlSendStatus(pdev);
 8006e78:	4620      	mov	r0, r4
 8006e7a:	f000 f8b5 	bl	8006fe8 <USBD_CtlSendStatus>
}
 8006e7e:	2000      	movs	r0, #0
 8006e80:	bd70      	pop	{r4, r5, r6, pc}
          switch (pdev->dev_state)
 8006e82:	f890 329c 	ldrb.w	r3, [r0, #668]	@ 0x29c
 8006e86:	2b02      	cmp	r3, #2
 8006e88:	b2da      	uxtb	r2, r3
 8006e8a:	d01e      	beq.n	8006eca <USBD_StdEPReq+0xec>
 8006e8c:	2a03      	cmp	r2, #3
 8006e8e:	d1b3      	bne.n	8006df8 <USBD_StdEPReq+0x1a>
              if (req->wValue == USB_FEATURE_EP_HALT)
 8006e90:	884b      	ldrh	r3, [r1, #2]
 8006e92:	2b00      	cmp	r3, #0
 8006e94:	d1f3      	bne.n	8006e7e <USBD_StdEPReq+0xa0>
                if ((ep_addr & 0x7FU) != 0x00U)
 8006e96:	066b      	lsls	r3, r5, #25
 8006e98:	d002      	beq.n	8006ea0 <USBD_StdEPReq+0xc2>
                  (void)USBD_LL_ClearStallEP(pdev, ep_addr);
 8006e9a:	4629      	mov	r1, r5
 8006e9c:	f001 f984 	bl	80081a8 <USBD_LL_ClearStallEP>
                (void)USBD_CtlSendStatus(pdev);
 8006ea0:	4620      	mov	r0, r4
 8006ea2:	f000 f8a1 	bl	8006fe8 <USBD_CtlSendStatus>
                idx = USBD_CoreFindEP(pdev, ep_addr);
 8006ea6:	4629      	mov	r1, r5
 8006ea8:	4620      	mov	r0, r4
 8006eaa:	f7ff fde6 	bl	8006a7a <USBD_CoreFindEP>
                if (((uint8_t)idx != 0xFFU) && (idx < USBD_MAX_SUPPORTED_CLASS))
 8006eae:	2800      	cmp	r0, #0
 8006eb0:	d1e5      	bne.n	8006e7e <USBD_StdEPReq+0xa0>
                  if (pdev->pClass[idx]->Setup != NULL)
 8006eb2:	f8d4 32b8 	ldr.w	r3, [r4, #696]	@ 0x2b8
                  pdev->classId = idx;
 8006eb6:	f8c4 02d4 	str.w	r0, [r4, #724]	@ 0x2d4
                  if (pdev->pClass[idx]->Setup != NULL)
 8006eba:	689b      	ldr	r3, [r3, #8]
 8006ebc:	2b00      	cmp	r3, #0
 8006ebe:	d0de      	beq.n	8006e7e <USBD_StdEPReq+0xa0>
                    ret = (USBD_StatusTypeDef)(pdev->pClass[idx]->Setup(pdev, req));
 8006ec0:	4631      	mov	r1, r6
 8006ec2:	4620      	mov	r0, r4
}
 8006ec4:	e8bd 4070 	ldmia.w	sp!, {r4, r5, r6, lr}
                    ret = (USBD_StatusTypeDef)(pdev->pClass[idx]->Setup(pdev, req));
 8006ec8:	4718      	bx	r3
              if ((ep_addr != 0x00U) && (ep_addr != 0x80U))
 8006eca:	066a      	lsls	r2, r5, #25
 8006ecc:	d094      	beq.n	8006df8 <USBD_StdEPReq+0x1a>
                (void)USBD_LL_StallEP(pdev, ep_addr);
 8006ece:	4629      	mov	r1, r5
 8006ed0:	f001 f961 	bl	8008196 <USBD_LL_StallEP>
                (void)USBD_LL_StallEP(pdev, 0x80U);
 8006ed4:	2180      	movs	r1, #128	@ 0x80
 8006ed6:	4620      	mov	r0, r4
 8006ed8:	f001 f95d 	bl	8008196 <USBD_LL_StallEP>
 8006edc:	e7cf      	b.n	8006e7e <USBD_StdEPReq+0xa0>
              if ((ep_addr != 0x00U) && (ep_addr != 0x80U))
 8006ede:	0669      	lsls	r1, r5, #25
 8006ee0:	d18a      	bne.n	8006df8 <USBD_StdEPReq+0x1a>
              pep = ((ep_addr & 0x80U) == 0x80U) ? &pdev->ep_in[ep_addr & 0x7FU] : \
 8006ee2:	0613      	lsls	r3, r2, #24
 8006ee4:	bf4c      	ite	mi
 8006ee6:	f100 0114 	addmi.w	r1, r0, #20
 8006eea:	f500 71aa 	addpl.w	r1, r0, #340	@ 0x154
              pep->status = 0x0000U;
 8006eee:	2300      	movs	r3, #0
 8006ef0:	f801 3f0e 	strb.w	r3, [r1, #14]!
              (void)USBD_CtlSendData(pdev, (uint8_t *)&pep->status, 2U);
 8006ef4:	2202      	movs	r2, #2
              (void)USBD_CtlSendData(pdev, (uint8_t *)&pep->status, 2U);
 8006ef6:	4620      	mov	r0, r4
 8006ef8:	f000 f847 	bl	8006f8a <USBD_CtlSendData>
              break;
 8006efc:	e7bf      	b.n	8006e7e <USBD_StdEPReq+0xa0>
                if (pdev->ep_out[ep_addr & 0xFU].is_used == 0U)
 8006efe:	f893 3163 	ldrb.w	r3, [r3, #355]	@ 0x163
 8006f02:	2b00      	cmp	r3, #0
 8006f04:	f43f af78 	beq.w	8006df8 <USBD_StdEPReq+0x1a>
              pep = ((ep_addr & 0x80U) == 0x80U) ? &pdev->ep_in[ep_addr & 0x7FU] : \
 8006f08:	2614      	movs	r6, #20
 8006f0a:	fb06 0605 	mla	r6, r6, r5, r0
 8006f0e:	f506 76aa 	add.w	r6, r6, #340	@ 0x154
              if ((ep_addr == 0x00U) || (ep_addr == 0x80U))
 8006f12:	2d00      	cmp	r5, #0
 8006f14:	d198      	bne.n	8006e48 <USBD_StdEPReq+0x6a>
                pep->status = 0x0000U;
 8006f16:	2300      	movs	r3, #0
                pep->status = 0x0001U;
 8006f18:	73b3      	strb	r3, [r6, #14]
              (void)USBD_CtlSendData(pdev, (uint8_t *)&pep->status, 2U);
 8006f1a:	2202      	movs	r2, #2
 8006f1c:	f106 010e 	add.w	r1, r6, #14
 8006f20:	e7e9      	b.n	8006ef6 <USBD_StdEPReq+0x118>
                pep->status = 0x0000U;
 8006f22:	73b0      	strb	r0, [r6, #14]
 8006f24:	e7f9      	b.n	8006f1a <USBD_StdEPReq+0x13c>

08006f26 <USBD_ParseSetupRequest>:
  req->bmRequest = *(uint8_t *)(pbuff);
 8006f26:	780b      	ldrb	r3, [r1, #0]
 8006f28:	7003      	strb	r3, [r0, #0]
  req->bRequest = *(uint8_t *)(pbuff);
 8006f2a:	784b      	ldrb	r3, [r1, #1]
 8006f2c:	7043      	strb	r3, [r0, #1]
  req->wValue = SWAPBYTE(pbuff);
 8006f2e:	884b      	ldrh	r3, [r1, #2]
 8006f30:	8043      	strh	r3, [r0, #2]
  req->wIndex = SWAPBYTE(pbuff);
 8006f32:	888b      	ldrh	r3, [r1, #4]
 8006f34:	8083      	strh	r3, [r0, #4]
  req->wLength = SWAPBYTE(pbuff);
 8006f36:	88cb      	ldrh	r3, [r1, #6]
 8006f38:	80c3      	strh	r3, [r0, #6]
}
 8006f3a:	4770      	bx	lr

08006f3c <USBD_CtlError>:
{
 8006f3c:	b510      	push	{r4, lr}
  (void)USBD_LL_StallEP(pdev, 0x80U);
 8006f3e:	2180      	movs	r1, #128	@ 0x80
{
 8006f40:	4604      	mov	r4, r0
  (void)USBD_LL_StallEP(pdev, 0x80U);
 8006f42:	f001 f928 	bl	8008196 <USBD_LL_StallEP>
  (void)USBD_LL_StallEP(pdev, 0U);
 8006f46:	4620      	mov	r0, r4
 8006f48:	2100      	movs	r1, #0
}
 8006f4a:	e8bd 4010 	ldmia.w	sp!, {r4, lr}
  (void)USBD_LL_StallEP(pdev, 0U);
 8006f4e:	f001 b922 	b.w	8008196 <USBD_LL_StallEP>

08006f52 <USBD_GetString>:
  * @param  unicode : Formatted string buffer (unicode)
  * @param  len : descriptor length
  * @retval None
  */
void USBD_GetString(uint8_t *desc, uint8_t *unicode, uint16_t *len)
{
 8006f52:	b570      	push	{r4, r5, r6, lr}
 8006f54:	460d      	mov	r5, r1
 8006f56:	4616      	mov	r6, r2
  uint8_t idx = 0U;
  uint8_t *pdesc;

  if (desc == NULL)
 8006f58:	4604      	mov	r4, r0
 8006f5a:	b170      	cbz	r0, 8006f7a <USBD_GetString+0x28>
static uint8_t USBD_GetLen(uint8_t *buf)
{
  uint8_t  len = 0U;
  uint8_t *pbuff = buf;

  while (*pbuff != (uint8_t)'\0')
 8006f5c:	f7f9 f990 	bl	8000280 <strlen>
  *len = MIN(USBD_MAX_STR_DESC_SIZ, ((uint16_t)USBD_GetLen(pdesc) * 2U) + 2U);
 8006f60:	b2c3      	uxtb	r3, r0
 8006f62:	3301      	adds	r3, #1
 8006f64:	005b      	lsls	r3, r3, #1
 8006f66:	8033      	strh	r3, [r6, #0]
  unicode[idx] = *(uint8_t *)len;
 8006f68:	702b      	strb	r3, [r5, #0]
  unicode[idx] = USB_DESC_TYPE_STRING;
 8006f6a:	2303      	movs	r3, #3
 8006f6c:	706b      	strb	r3, [r5, #1]
  while (*pdesc != (uint8_t)'\0')
 8006f6e:	3c01      	subs	r4, #1
  idx++;
 8006f70:	2302      	movs	r3, #2
    unicode[idx] = 0U;
 8006f72:	2100      	movs	r1, #0
  while (*pdesc != (uint8_t)'\0')
 8006f74:	f814 2f01 	ldrb.w	r2, [r4, #1]!
 8006f78:	b902      	cbnz	r2, 8006f7c <USBD_GetString+0x2a>
}
 8006f7a:	bd70      	pop	{r4, r5, r6, pc}
    unicode[idx] = *pdesc;
 8006f7c:	54ea      	strb	r2, [r5, r3]
    idx++;
 8006f7e:	1c5a      	adds	r2, r3, #1
    unicode[idx] = 0U;
 8006f80:	b2d2      	uxtb	r2, r2
    idx++;
 8006f82:	3302      	adds	r3, #2
    unicode[idx] = 0U;
 8006f84:	54a9      	strb	r1, [r5, r2]
    idx++;
 8006f86:	b2db      	uxtb	r3, r3
 8006f88:	e7f4      	b.n	8006f74 <USBD_GetString+0x22>

08006f8a <USBD_CtlSendData>:
  * @param  len: length of data to be sent
  * @retval status
  */
USBD_StatusTypeDef USBD_CtlSendData(USBD_HandleTypeDef *pdev,
                                    uint8_t *pbuf, uint32_t len)
{
 8006f8a:	b510      	push	{r4, lr}
 8006f8c:	4613      	mov	r3, r2
  /* Set EP0 State */
  pdev->ep0_state = USBD_EP0_DATA_IN;
 8006f8e:	2202      	movs	r2, #2
 8006f90:	f8c0 2294 	str.w	r2, [r0, #660]	@ 0x294
  pdev->ep_in[0].total_length = len;
 8006f94:	6143      	str	r3, [r0, #20]
#else
  pdev->ep_in[0].rem_length = len;
#endif /* USBD_AVOID_PACKET_SPLIT_MPS */

  /* Start the transfer */
  (void)USBD_LL_Transmit(pdev, 0x00U, pbuf, len);
 8006f96:	460a      	mov	r2, r1
  pdev->ep_in[0].pbuffer = pbuf;
 8006f98:	6241      	str	r1, [r0, #36]	@ 0x24
  pdev->ep_in[0].rem_length = len;
 8006f9a:	6183      	str	r3, [r0, #24]
  (void)USBD_LL_Transmit(pdev, 0x00U, pbuf, len);
 8006f9c:	2100      	movs	r1, #0
 8006f9e:	f001 f915 	bl	80081cc <USBD_LL_Transmit>

  return USBD_OK;
}
 8006fa2:	2000      	movs	r0, #0
 8006fa4:	bd10      	pop	{r4, pc}

08006fa6 <USBD_CtlContinueSendData>:
  * @param  len: length of data to be sent
  * @retval status
  */
USBD_StatusTypeDef USBD_CtlContinueSendData(USBD_HandleTypeDef *pdev,
                                            uint8_t *pbuf, uint32_t len)
{
 8006fa6:	b508      	push	{r3, lr}
 8006fa8:	4613      	mov	r3, r2
  /* Start the next transfer */
  (void)USBD_LL_Transmit(pdev, 0x00U, pbuf, len);
 8006faa:	460a      	mov	r2, r1
 8006fac:	2100      	movs	r1, #0
 8006fae:	f001 f90d 	bl	80081cc <USBD_LL_Transmit>

  return USBD_OK;
}
 8006fb2:	2000      	movs	r0, #0
 8006fb4:	bd08      	pop	{r3, pc}

08006fb6 <USBD_CtlPrepareRx>:
  * @param  len: length of data to be received
  * @retval status
  */
USBD_StatusTypeDef USBD_CtlPrepareRx(USBD_HandleTypeDef *pdev,
                                     uint8_t *pbuf, uint32_t len)
{
 8006fb6:	b510      	push	{r4, lr}
 8006fb8:	4613      	mov	r3, r2
  /* Set EP0 State */
  pdev->ep0_state = USBD_EP0_DATA_OUT;
 8006fba:	2203      	movs	r2, #3
 8006fbc:	f8c0 2294 	str.w	r2, [r0, #660]	@ 0x294
  pdev->ep_out[0].total_length = len;
 8006fc0:	f8c0 3154 	str.w	r3, [r0, #340]	@ 0x154
#else
  pdev->ep_out[0].rem_length = len;
#endif /* USBD_AVOID_PACKET_SPLIT_MPS */

  /* Start the transfer */
  (void)USBD_LL_PrepareReceive(pdev, 0U, pbuf, len);
 8006fc4:	460a      	mov	r2, r1
  pdev->ep_out[0].pbuffer = pbuf;
 8006fc6:	f8c0 1164 	str.w	r1, [r0, #356]	@ 0x164
  pdev->ep_out[0].rem_length = len;
 8006fca:	f8c0 3158 	str.w	r3, [r0, #344]	@ 0x158
  (void)USBD_LL_PrepareReceive(pdev, 0U, pbuf, len);
 8006fce:	2100      	movs	r1, #0
 8006fd0:	f001 f905 	bl	80081de <USBD_LL_PrepareReceive>

  return USBD_OK;
}
 8006fd4:	2000      	movs	r0, #0
 8006fd6:	bd10      	pop	{r4, pc}

08006fd8 <USBD_CtlContinueRx>:
  * @param  len: length of data to be received
  * @retval status
  */
USBD_StatusTypeDef USBD_CtlContinueRx(USBD_HandleTypeDef *pdev,
                                      uint8_t *pbuf, uint32_t len)
{
 8006fd8:	b508      	push	{r3, lr}
 8006fda:	4613      	mov	r3, r2
  (void)USBD_LL_PrepareReceive(pdev, 0U, pbuf, len);
 8006fdc:	460a      	mov	r2, r1
 8006fde:	2100      	movs	r1, #0
 8006fe0:	f001 f8fd 	bl	80081de <USBD_LL_PrepareReceive>

  return USBD_OK;
}
 8006fe4:	2000      	movs	r0, #0
 8006fe6:	bd08      	pop	{r3, pc}

08006fe8 <USBD_CtlSendStatus>:
  *         send zero lzngth packet on the ctl pipe
  * @param  pdev: device instance
  * @retval status
  */
USBD_StatusTypeDef USBD_CtlSendStatus(USBD_HandleTypeDef *pdev)
{
 8006fe8:	b508      	push	{r3, lr}
  /* Set EP0 State */
  pdev->ep0_state = USBD_EP0_STATUS_IN;
 8006fea:	2204      	movs	r2, #4

  /* Start the transfer */
  (void)USBD_LL_Transmit(pdev, 0x00U, NULL, 0U);
 8006fec:	2300      	movs	r3, #0
  pdev->ep0_state = USBD_EP0_STATUS_IN;
 8006fee:	f8c0 2294 	str.w	r2, [r0, #660]	@ 0x294
  (void)USBD_LL_Transmit(pdev, 0x00U, NULL, 0U);
 8006ff2:	4619      	mov	r1, r3
 8006ff4:	461a      	mov	r2, r3
 8006ff6:	f001 f8e9 	bl	80081cc <USBD_LL_Transmit>

  return USBD_OK;
}
 8006ffa:	2000      	movs	r0, #0
 8006ffc:	bd08      	pop	{r3, pc}

08006ffe <USBD_CtlReceiveStatus>:
  *         receive zero lzngth packet on the ctl pipe
  * @param  pdev: device instance
  * @retval status
  */
USBD_StatusTypeDef USBD_CtlReceiveStatus(USBD_HandleTypeDef *pdev)
{
 8006ffe:	b508      	push	{r3, lr}
  /* Set EP0 State */
  pdev->ep0_state = USBD_EP0_STATUS_OUT;
 8007000:	2205      	movs	r2, #5

  /* Start the transfer */
  (void)USBD_LL_PrepareReceive(pdev, 0U, NULL, 0U);
 8007002:	2300      	movs	r3, #0
  pdev->ep0_state = USBD_EP0_STATUS_OUT;
 8007004:	f8c0 2294 	str.w	r2, [r0, #660]	@ 0x294
  (void)USBD_LL_PrepareReceive(pdev, 0U, NULL, 0U);
 8007008:	4619      	mov	r1, r3
 800700a:	461a      	mov	r2, r3
 800700c:	f001 f8e7 	bl	80081de <USBD_LL_PrepareReceive>

  return USBD_OK;
}
 8007010:	2000      	movs	r0, #0
 8007012:	bd08      	pop	{r3, pc}

08007014 <osKernelStart>:
* @param  argument      pointer that is passed to the thread function as start argument.
* @retval status code that indicates the execution status of the function
* @note   MUST REMAIN UNCHANGED: \b osKernelStart shall be consistent in every CMSIS-RTOS.
*/
osStatus osKernelStart (void)
{
 8007014:	b508      	push	{r3, lr}
  vTaskStartScheduler();
 8007016:	f000 fa4d 	bl	80074b4 <vTaskStartScheduler>
  
  return osOK;
}
 800701a:	2000      	movs	r0, #0
 800701c:	bd08      	pop	{r3, pc}

0800701e <osThreadCreate>:
* @param  argument      pointer that is passed to the thread function as start argument.
* @retval thread ID for reference by other functions or NULL in case of error.
* @note   MUST REMAIN UNCHANGED: \b osThreadCreate shall be consistent in every CMSIS-RTOS.
*/
osThreadId osThreadCreate (const osThreadDef_t *thread_def, void *argument)
{
 800701e:	b570      	push	{r4, r5, r6, lr}
 8007020:	4605      	mov	r5, r0
  TaskHandle_t handle;
  
#if( configSUPPORT_STATIC_ALLOCATION == 1 ) &&  ( configSUPPORT_DYNAMIC_ALLOCATION == 1 )
  if((thread_def->buffer != NULL) && (thread_def->controlblock != NULL)) {
 8007022:	6946      	ldr	r6, [r0, #20]
    handle = xTaskCreateStatic((TaskFunction_t)thread_def->pthread,(const portCHAR *)thread_def->name,
              thread_def->stacksize, argument, makeFreeRtosPriority(thread_def->tpriority),
 8007024:	692a      	ldr	r2, [r5, #16]
 8007026:	f9b5 4008 	ldrsh.w	r4, [r5, #8]
{
 800702a:	460b      	mov	r3, r1
 800702c:	b086      	sub	sp, #24
    handle = xTaskCreateStatic((TaskFunction_t)thread_def->pthread,(const portCHAR *)thread_def->name,
 800702e:	e9d0 1000 	ldrd	r1, r0, [r0]
  if((thread_def->buffer != NULL) && (thread_def->controlblock != NULL)) {
 8007032:	b176      	cbz	r6, 8007052 <osThreadCreate+0x34>
 8007034:	69ad      	ldr	r5, [r5, #24]
 8007036:	b165      	cbz	r5, 8007052 <osThreadCreate+0x34>
  if (priority != osPriorityError) {
 8007038:	2c84      	cmp	r4, #132	@ 0x84
    fpriority += (priority - osPriorityIdle);
 800703a:	bf14      	ite	ne
 800703c:	3403      	addne	r4, #3
  unsigned portBASE_TYPE fpriority = tskIDLE_PRIORITY;
 800703e:	2400      	moveq	r4, #0
    handle = xTaskCreateStatic((TaskFunction_t)thread_def->pthread,(const portCHAR *)thread_def->name,
 8007040:	e9cd 6501 	strd	r6, r5, [sp, #4]
 8007044:	9400      	str	r4, [sp, #0]
 8007046:	f000 f9cf 	bl	80073e8 <xTaskCreateStatic>
 800704a:	9005      	str	r0, [sp, #20]
                   &handle) != pdPASS)  {
    return NULL;
  }     
#endif
  
  return handle;
 800704c:	9805      	ldr	r0, [sp, #20]
}
 800704e:	b006      	add	sp, #24
 8007050:	bd70      	pop	{r4, r5, r6, pc}
  if (priority != osPriorityError) {
 8007052:	2c84      	cmp	r4, #132	@ 0x84
    fpriority += (priority - osPriorityIdle);
 8007054:	bf14      	ite	ne
 8007056:	3403      	addne	r4, #3
  unsigned portBASE_TYPE fpriority = tskIDLE_PRIORITY;
 8007058:	2400      	moveq	r4, #0
    if (xTaskCreate((TaskFunction_t)thread_def->pthread,(const portCHAR *)thread_def->name,
 800705a:	ad05      	add	r5, sp, #20
 800705c:	e9cd 4500 	strd	r4, r5, [sp]
 8007060:	b292      	uxth	r2, r2
 8007062:	f000 f9f9 	bl	8007458 <xTaskCreate>
 8007066:	2801      	cmp	r0, #1
 8007068:	d0f0      	beq.n	800704c <osThreadCreate+0x2e>
      return NULL;
 800706a:	2000      	movs	r0, #0
 800706c:	e7ef      	b.n	800704e <osThreadCreate+0x30>

0800706e <vListInitialise>:
void vListInitialise( List_t * const pxList )
{
	/* The list structure contains a list item which is used to mark the
	end of the list.  To initialise the list the list end is inserted
	as the only list entry. */
	pxList->pxIndex = ( ListItem_t * ) &( pxList->xListEnd );			/*lint !e826 !e740 !e9087 The mini list structure is used as the list end to save RAM.  This is checked and valid. */
 800706e:	f100 0308 	add.w	r3, r0, #8

	/* The list end value is the highest possible value in the list to
	ensure it remains at the end of the list. */
	pxList->xListEnd.xItemValue = portMAX_DELAY;
 8007072:	f04f 32ff 	mov.w	r2, #4294967295

	/* The list end next and previous pointers point to itself so we know
	when the list is empty. */
	pxList->xListEnd.pxNext = ( ListItem_t * ) &( pxList->xListEnd );	/*lint !e826 !e740 !e9087 The mini list structure is used as the list end to save RAM.  This is checked and valid. */
 8007076:	e9c0 2302 	strd	r2, r3, [r0, #8]
	pxList->pxIndex = ( ListItem_t * ) &( pxList->xListEnd );			/*lint !e826 !e740 !e9087 The mini list structure is used as the list end to save RAM.  This is checked and valid. */
 800707a:	6043      	str	r3, [r0, #4]
	pxList->xListEnd.pxPrevious = ( ListItem_t * ) &( pxList->xListEnd );/*lint !e826 !e740 !e9087 The mini list structure is used as the list end to save RAM.  This is checked and valid. */
 800707c:	6103      	str	r3, [r0, #16]

	pxList->uxNumberOfItems = ( UBaseType_t ) 0U;
 800707e:	2300      	movs	r3, #0
 8007080:	6003      	str	r3, [r0, #0]

	/* Write known values into the list if
	configUSE_LIST_DATA_INTEGRITY_CHECK_BYTES is set to 1. */
	listSET_LIST_INTEGRITY_CHECK_1_VALUE( pxList );
	listSET_LIST_INTEGRITY_CHECK_2_VALUE( pxList );
}
 8007082:	4770      	bx	lr

08007084 <vListInitialiseItem>:
/*-----------------------------------------------------------*/

void vListInitialiseItem( ListItem_t * const pxItem )
{
	/* Make sure the list item is not recorded as being on a list. */
	pxItem->pxContainer = NULL;
 8007084:	2300      	movs	r3, #0
 8007086:	6103      	str	r3, [r0, #16]

	/* Write known values into the list item if
	configUSE_LIST_DATA_INTEGRITY_CHECK_BYTES is set to 1. */
	listSET_FIRST_LIST_ITEM_INTEGRITY_CHECK_VALUE( pxItem );
	listSET_SECOND_LIST_ITEM_INTEGRITY_CHECK_VALUE( pxItem );
}
 8007088:	4770      	bx	lr

0800708a <vListInsertEnd>:
/*-----------------------------------------------------------*/

void vListInsertEnd( List_t * const pxList, ListItem_t * const pxNewListItem )
{
ListItem_t * const pxIndex = pxList->pxIndex;
 800708a:	6843      	ldr	r3, [r0, #4]
	listTEST_LIST_ITEM_INTEGRITY( pxNewListItem );

	/* Insert a new list item into pxList, but rather than sort the list,
	makes the new list item the last item to be removed by a call to
	listGET_OWNER_OF_NEXT_ENTRY(). */
	pxNewListItem->pxNext = pxIndex;
 800708c:	604b      	str	r3, [r1, #4]
	pxNewListItem->pxPrevious = pxIndex->pxPrevious;
 800708e:	689a      	ldr	r2, [r3, #8]
 8007090:	608a      	str	r2, [r1, #8]

	/* Only used during decision coverage testing. */
	mtCOVERAGE_TEST_DELAY();

	pxIndex->pxPrevious->pxNext = pxNewListItem;
 8007092:	6051      	str	r1, [r2, #4]
	pxIndex->pxPrevious = pxNewListItem;
 8007094:	6099      	str	r1, [r3, #8]

	/* Remember which list the item is in. */
	pxNewListItem->pxContainer = pxList;

	( pxList->uxNumberOfItems )++;
 8007096:	6803      	ldr	r3, [r0, #0]
	pxNewListItem->pxContainer = pxList;
 8007098:	6108      	str	r0, [r1, #16]
	( pxList->uxNumberOfItems )++;
 800709a:	3301      	adds	r3, #1
 800709c:	6003      	str	r3, [r0, #0]
}
 800709e:	4770      	bx	lr

080070a0 <vListInsert>:
/*-----------------------------------------------------------*/

void vListInsert( List_t * const pxList, ListItem_t * const pxNewListItem )
{
 80070a0:	b530      	push	{r4, r5, lr}
ListItem_t *pxIterator;
const TickType_t xValueOfInsertion = pxNewListItem->xItemValue;
 80070a2:	680c      	ldr	r4, [r1, #0]
	new list item should be placed after it.  This ensures that TCBs which are
	stored in ready lists (all of which have the same xItemValue value) get a
	share of the CPU.  However, if the xItemValue is the same as the back marker
	the iteration loop below will not end.  Therefore the value is checked
	first, and the algorithm slightly modified if necessary. */
	if( xValueOfInsertion == portMAX_DELAY )
 80070a4:	1c63      	adds	r3, r4, #1
 80070a6:	d10a      	bne.n	80070be <vListInsert+0x1e>
	{
		pxIterator = pxList->xListEnd.pxPrevious;
 80070a8:	6903      	ldr	r3, [r0, #16]
			/* There is nothing to do here, just iterating to the wanted
			insertion position. */
		}
	}

	pxNewListItem->pxNext = pxIterator->pxNext;
 80070aa:	685a      	ldr	r2, [r3, #4]
 80070ac:	604a      	str	r2, [r1, #4]
	pxNewListItem->pxNext->pxPrevious = pxNewListItem;
 80070ae:	6091      	str	r1, [r2, #8]
	pxNewListItem->pxPrevious = pxIterator;
 80070b0:	608b      	str	r3, [r1, #8]
	pxIterator->pxNext = pxNewListItem;
 80070b2:	6059      	str	r1, [r3, #4]

	/* Remember which list the item is in.  This allows fast removal of the
	item later. */
	pxNewListItem->pxContainer = pxList;

	( pxList->uxNumberOfItems )++;
 80070b4:	6803      	ldr	r3, [r0, #0]
	pxNewListItem->pxContainer = pxList;
 80070b6:	6108      	str	r0, [r1, #16]
	( pxList->uxNumberOfItems )++;
 80070b8:	3301      	adds	r3, #1
 80070ba:	6003      	str	r3, [r0, #0]
}
 80070bc:	bd30      	pop	{r4, r5, pc}
		for( pxIterator = ( ListItem_t * ) &( pxList->xListEnd ); pxIterator->pxNext->xItemValue <= xValueOfInsertion; pxIterator = pxIterator->pxNext ) /*lint !e826 !e740 !e9087 The mini list structure is used as the list end to save RAM.  This is checked and valid. *//*lint !e440 The iterator moves to a different value, not xValueOfInsertion. */
 80070be:	f100 0208 	add.w	r2, r0, #8
 80070c2:	4613      	mov	r3, r2
 80070c4:	6852      	ldr	r2, [r2, #4]
 80070c6:	6815      	ldr	r5, [r2, #0]
 80070c8:	42a5      	cmp	r5, r4
 80070ca:	d9fa      	bls.n	80070c2 <vListInsert+0x22>
 80070cc:	e7ed      	b.n	80070aa <vListInsert+0xa>

080070ce <uxListRemove>:
{
/* The list item knows which list it is in.  Obtain the list from the list
item. */
List_t * const pxList = pxItemToRemove->pxContainer;

	pxItemToRemove->pxNext->pxPrevious = pxItemToRemove->pxPrevious;
 80070ce:	e9d0 1201 	ldrd	r1, r2, [r0, #4]
List_t * const pxList = pxItemToRemove->pxContainer;
 80070d2:	6903      	ldr	r3, [r0, #16]
	pxItemToRemove->pxNext->pxPrevious = pxItemToRemove->pxPrevious;
 80070d4:	608a      	str	r2, [r1, #8]
	pxItemToRemove->pxPrevious->pxNext = pxItemToRemove->pxNext;
 80070d6:	6051      	str	r1, [r2, #4]

	/* Only used during decision coverage testing. */
	mtCOVERAGE_TEST_DELAY();

	/* Make sure the index is left pointing to a valid item. */
	if( pxList->pxIndex == pxItemToRemove )
 80070d8:	6859      	ldr	r1, [r3, #4]
 80070da:	4281      	cmp	r1, r0
	{
		pxList->pxIndex = pxItemToRemove->pxPrevious;
 80070dc:	bf08      	it	eq
 80070de:	605a      	streq	r2, [r3, #4]
	else
	{
		mtCOVERAGE_TEST_MARKER();
	}

	pxItemToRemove->pxContainer = NULL;
 80070e0:	2200      	movs	r2, #0
 80070e2:	6102      	str	r2, [r0, #16]
	( pxList->uxNumberOfItems )--;
 80070e4:	681a      	ldr	r2, [r3, #0]
 80070e6:	3a01      	subs	r2, #1
 80070e8:	601a      	str	r2, [r3, #0]

	return pxList->uxNumberOfItems;
 80070ea:	6818      	ldr	r0, [r3, #0]
}
 80070ec:	4770      	bx	lr
	...

080070f0 <prvAddNewTaskToReadyList>:
	}
}
/*-----------------------------------------------------------*/

static void prvAddNewTaskToReadyList( TCB_t *pxNewTCB )
{
 80070f0:	e92d 41f0 	stmdb	sp!, {r4, r5, r6, r7, r8, lr}
 80070f4:	4604      	mov	r4, r0
	/* Ensure interrupts don't access the task lists while the lists are being
	updated. */
	taskENTER_CRITICAL();
 80070f6:	f000 fc55 	bl	80079a4 <vPortEnterCritical>
	{
		uxCurrentNumberOfTasks++;
 80070fa:	4b2f      	ldr	r3, [pc, #188]	@ (80071b8 <prvAddNewTaskToReadyList+0xc8>)
		if( pxCurrentTCB == NULL )
 80070fc:	4e2f      	ldr	r6, [pc, #188]	@ (80071bc <prvAddNewTaskToReadyList+0xcc>)
		uxCurrentNumberOfTasks++;
 80070fe:	681a      	ldr	r2, [r3, #0]
 8007100:	4f2f      	ldr	r7, [pc, #188]	@ (80071c0 <prvAddNewTaskToReadyList+0xd0>)
 8007102:	3201      	adds	r2, #1
 8007104:	601a      	str	r2, [r3, #0]
		if( pxCurrentTCB == NULL )
 8007106:	6835      	ldr	r5, [r6, #0]
 8007108:	2d00      	cmp	r5, #0
 800710a:	d14a      	bne.n	80071a2 <prvAddNewTaskToReadyList+0xb2>
		{
			/* There are no other tasks, or all the other tasks are in
			the suspended state - make this the current task. */
			pxCurrentTCB = pxNewTCB;
 800710c:	6034      	str	r4, [r6, #0]

			if( uxCurrentNumberOfTasks == ( UBaseType_t ) 1 )
 800710e:	681b      	ldr	r3, [r3, #0]
 8007110:	2b01      	cmp	r3, #1
 8007112:	d11f      	bne.n	8007154 <prvAddNewTaskToReadyList+0x64>
 8007114:	46b8      	mov	r8, r7
{
UBaseType_t uxPriority;

	for( uxPriority = ( UBaseType_t ) 0U; uxPriority < ( UBaseType_t ) configMAX_PRIORITIES; uxPriority++ )
	{
		vListInitialise( &( pxReadyTasksLists[ uxPriority ] ) );
 8007116:	4640      	mov	r0, r8
	for( uxPriority = ( UBaseType_t ) 0U; uxPriority < ( UBaseType_t ) configMAX_PRIORITIES; uxPriority++ )
 8007118:	3501      	adds	r5, #1
		vListInitialise( &( pxReadyTasksLists[ uxPriority ] ) );
 800711a:	f7ff ffa8 	bl	800706e <vListInitialise>
	for( uxPriority = ( UBaseType_t ) 0U; uxPriority < ( UBaseType_t ) configMAX_PRIORITIES; uxPriority++ )
 800711e:	2d07      	cmp	r5, #7
 8007120:	f108 0814 	add.w	r8, r8, #20
 8007124:	d1f7      	bne.n	8007116 <prvAddNewTaskToReadyList+0x26>
	}

	vListInitialise( &xDelayedTaskList1 );
 8007126:	f8df 80c0 	ldr.w	r8, [pc, #192]	@ 80071e8 <prvAddNewTaskToReadyList+0xf8>
	vListInitialise( &xDelayedTaskList2 );
 800712a:	4d26      	ldr	r5, [pc, #152]	@ (80071c4 <prvAddNewTaskToReadyList+0xd4>)
	vListInitialise( &xDelayedTaskList1 );
 800712c:	4640      	mov	r0, r8
 800712e:	f7ff ff9e 	bl	800706e <vListInitialise>
	vListInitialise( &xDelayedTaskList2 );
 8007132:	4628      	mov	r0, r5
 8007134:	f7ff ff9b 	bl	800706e <vListInitialise>
	vListInitialise( &xPendingReadyList );
 8007138:	4823      	ldr	r0, [pc, #140]	@ (80071c8 <prvAddNewTaskToReadyList+0xd8>)
 800713a:	f7ff ff98 	bl	800706e <vListInitialise>

	#if ( INCLUDE_vTaskDelete == 1 )
	{
		vListInitialise( &xTasksWaitingTermination );
 800713e:	4823      	ldr	r0, [pc, #140]	@ (80071cc <prvAddNewTaskToReadyList+0xdc>)
 8007140:	f7ff ff95 	bl	800706e <vListInitialise>
	}
	#endif /* INCLUDE_vTaskDelete */

	#if ( INCLUDE_vTaskSuspend == 1 )
	{
		vListInitialise( &xSuspendedTaskList );
 8007144:	4822      	ldr	r0, [pc, #136]	@ (80071d0 <prvAddNewTaskToReadyList+0xe0>)
 8007146:	f7ff ff92 	bl	800706e <vListInitialise>
	}
	#endif /* INCLUDE_vTaskSuspend */

	/* Start with pxDelayedTaskList using list1 and the pxOverflowDelayedTaskList
	using list2. */
	pxDelayedTaskList = &xDelayedTaskList1;
 800714a:	4b22      	ldr	r3, [pc, #136]	@ (80071d4 <prvAddNewTaskToReadyList+0xe4>)
 800714c:	f8c3 8000 	str.w	r8, [r3]
	pxOverflowDelayedTaskList = &xDelayedTaskList2;
 8007150:	4b21      	ldr	r3, [pc, #132]	@ (80071d8 <prvAddNewTaskToReadyList+0xe8>)
 8007152:	601d      	str	r5, [r3, #0]
		uxTaskNumber++;
 8007154:	4a21      	ldr	r2, [pc, #132]	@ (80071dc <prvAddNewTaskToReadyList+0xec>)
		prvAddTaskToReadyList( pxNewTCB );
 8007156:	4922      	ldr	r1, [pc, #136]	@ (80071e0 <prvAddNewTaskToReadyList+0xf0>)
		uxTaskNumber++;
 8007158:	6813      	ldr	r3, [r2, #0]
		prvAddTaskToReadyList( pxNewTCB );
 800715a:	6808      	ldr	r0, [r1, #0]
		uxTaskNumber++;
 800715c:	3301      	adds	r3, #1
 800715e:	6013      	str	r3, [r2, #0]
		prvAddTaskToReadyList( pxNewTCB );
 8007160:	6ae2      	ldr	r2, [r4, #44]	@ 0x2c
 8007162:	2301      	movs	r3, #1
 8007164:	4093      	lsls	r3, r2
 8007166:	4303      	orrs	r3, r0
 8007168:	2014      	movs	r0, #20
 800716a:	600b      	str	r3, [r1, #0]
 800716c:	fb00 7002 	mla	r0, r0, r2, r7
 8007170:	1d21      	adds	r1, r4, #4
 8007172:	f7ff ff8a 	bl	800708a <vListInsertEnd>
	taskEXIT_CRITICAL();
 8007176:	f000 fc35 	bl	80079e4 <vPortExitCritical>
	if( xSchedulerRunning != pdFALSE )
 800717a:	4b1a      	ldr	r3, [pc, #104]	@ (80071e4 <prvAddNewTaskToReadyList+0xf4>)
 800717c:	681b      	ldr	r3, [r3, #0]
 800717e:	b173      	cbz	r3, 800719e <prvAddNewTaskToReadyList+0xae>
		if( pxCurrentTCB->uxPriority < pxNewTCB->uxPriority )
 8007180:	6833      	ldr	r3, [r6, #0]
 8007182:	6ada      	ldr	r2, [r3, #44]	@ 0x2c
 8007184:	6ae3      	ldr	r3, [r4, #44]	@ 0x2c
 8007186:	429a      	cmp	r2, r3
 8007188:	d209      	bcs.n	800719e <prvAddNewTaskToReadyList+0xae>
			taskYIELD_IF_USING_PREEMPTION();
 800718a:	f04f 23e0 	mov.w	r3, #3758153728	@ 0xe000e000
 800718e:	f04f 5280 	mov.w	r2, #268435456	@ 0x10000000
 8007192:	f8c3 2d04 	str.w	r2, [r3, #3332]	@ 0xd04
 8007196:	f3bf 8f4f 	dsb	sy
 800719a:	f3bf 8f6f 	isb	sy
}
 800719e:	e8bd 81f0 	ldmia.w	sp!, {r4, r5, r6, r7, r8, pc}
			if( xSchedulerRunning == pdFALSE )
 80071a2:	4b10      	ldr	r3, [pc, #64]	@ (80071e4 <prvAddNewTaskToReadyList+0xf4>)
 80071a4:	681a      	ldr	r2, [r3, #0]
				if( pxCurrentTCB->uxPriority <= pxNewTCB->uxPriority )
 80071a6:	6ae3      	ldr	r3, [r4, #44]	@ 0x2c
			if( xSchedulerRunning == pdFALSE )
 80071a8:	2a00      	cmp	r2, #0
 80071aa:	d1d3      	bne.n	8007154 <prvAddNewTaskToReadyList+0x64>
				if( pxCurrentTCB->uxPriority <= pxNewTCB->uxPriority )
 80071ac:	6832      	ldr	r2, [r6, #0]
 80071ae:	6ad2      	ldr	r2, [r2, #44]	@ 0x2c
 80071b0:	429a      	cmp	r2, r3
					pxCurrentTCB = pxNewTCB;
 80071b2:	bf98      	it	ls
 80071b4:	6034      	strls	r4, [r6, #0]
 80071b6:	e7cd      	b.n	8007154 <prvAddNewTaskToReadyList+0x64>
 80071b8:	20001664 	.word	0x20001664
 80071bc:	20001764 	.word	0x20001764
 80071c0:	200016d8 	.word	0x200016d8
 80071c4:	200016b0 	.word	0x200016b0
 80071c8:	20001694 	.word	0x20001694
 80071cc:	20001680 	.word	0x20001680
 80071d0:	20001668 	.word	0x20001668
 80071d4:	200016ac 	.word	0x200016ac
 80071d8:	200016a8 	.word	0x200016a8
 80071dc:	20001648 	.word	0x20001648
 80071e0:	2000165c 	.word	0x2000165c
 80071e4:	20001658 	.word	0x20001658
 80071e8:	200016c4 	.word	0x200016c4

080071ec <prvAddCurrentTaskToDelayedList>:

#endif
/*-----------------------------------------------------------*/

static void prvAddCurrentTaskToDelayedList( TickType_t xTicksToWait, const BaseType_t xCanBlockIndefinitely )
{
 80071ec:	b5f8      	push	{r3, r4, r5, r6, r7, lr}
TickType_t xTimeToWake;
const TickType_t xConstTickCount = xTickCount;
 80071ee:	4b1a      	ldr	r3, [pc, #104]	@ (8007258 <prvAddCurrentTaskToDelayedList+0x6c>)
	}
	#endif

	/* Remove the task from the ready list before adding it to the blocked list
	as the same list item is used for both lists. */
	if( uxListRemove( &( pxCurrentTCB->xStateListItem ) ) == ( UBaseType_t ) 0 )
 80071f0:	4d1a      	ldr	r5, [pc, #104]	@ (800725c <prvAddCurrentTaskToDelayedList+0x70>)
const TickType_t xConstTickCount = xTickCount;
 80071f2:	681c      	ldr	r4, [r3, #0]
{
 80071f4:	4606      	mov	r6, r0
	if( uxListRemove( &( pxCurrentTCB->xStateListItem ) ) == ( UBaseType_t ) 0 )
 80071f6:	6828      	ldr	r0, [r5, #0]
 80071f8:	3004      	adds	r0, #4
{
 80071fa:	460f      	mov	r7, r1
	if( uxListRemove( &( pxCurrentTCB->xStateListItem ) ) == ( UBaseType_t ) 0 )
 80071fc:	f7ff ff67 	bl	80070ce <uxListRemove>
 8007200:	b940      	cbnz	r0, 8007214 <prvAddCurrentTaskToDelayedList+0x28>
	{
		/* The current task must be in a ready list, so there is no need to
		check, and the port reset macro can be called directly. */
		portRESET_READY_PRIORITY( pxCurrentTCB->uxPriority, uxTopReadyPriority ); /*lint !e931 pxCurrentTCB cannot change as it is the calling task.  pxCurrentTCB->uxPriority and uxTopReadyPriority cannot change as called with scheduler suspended or in a critical section. */
 8007202:	682a      	ldr	r2, [r5, #0]
 8007204:	4916      	ldr	r1, [pc, #88]	@ (8007260 <prvAddCurrentTaskToDelayedList+0x74>)
 8007206:	6ad0      	ldr	r0, [r2, #44]	@ 0x2c
 8007208:	680b      	ldr	r3, [r1, #0]
 800720a:	2201      	movs	r2, #1
 800720c:	4082      	lsls	r2, r0
 800720e:	ea23 0302 	bic.w	r3, r3, r2
 8007212:	600b      	str	r3, [r1, #0]
		mtCOVERAGE_TEST_MARKER();
	}

	#if ( INCLUDE_vTaskSuspend == 1 )
	{
		if( ( xTicksToWait == portMAX_DELAY ) && ( xCanBlockIndefinitely != pdFALSE ) )
 8007214:	1c73      	adds	r3, r6, #1
 8007216:	d107      	bne.n	8007228 <prvAddCurrentTaskToDelayedList+0x3c>
 8007218:	b137      	cbz	r7, 8007228 <prvAddCurrentTaskToDelayedList+0x3c>
		{
			/* Add the task to the suspended task list instead of a delayed task
			list to ensure it is not woken by a timing event.  It will block
			indefinitely. */
			vListInsertEnd( &xSuspendedTaskList, &( pxCurrentTCB->xStateListItem ) );
 800721a:	6829      	ldr	r1, [r5, #0]
 800721c:	4811      	ldr	r0, [pc, #68]	@ (8007264 <prvAddCurrentTaskToDelayedList+0x78>)

		/* Avoid compiler warning when INCLUDE_vTaskSuspend is not 1. */
		( void ) xCanBlockIndefinitely;
	}
	#endif /* INCLUDE_vTaskSuspend */
}
 800721e:	e8bd 40f8 	ldmia.w	sp!, {r3, r4, r5, r6, r7, lr}
			vListInsertEnd( &xSuspendedTaskList, &( pxCurrentTCB->xStateListItem ) );
 8007222:	3104      	adds	r1, #4
 8007224:	f7ff bf31 	b.w	800708a <vListInsertEnd>
			listSET_LIST_ITEM_VALUE( &( pxCurrentTCB->xStateListItem ), xTimeToWake );
 8007228:	682b      	ldr	r3, [r5, #0]
 800722a:	19a4      	adds	r4, r4, r6
 800722c:	605c      	str	r4, [r3, #4]
			if( xTimeToWake < xConstTickCount )
 800722e:	d307      	bcc.n	8007240 <prvAddCurrentTaskToDelayedList+0x54>
				vListInsert( pxOverflowDelayedTaskList, &( pxCurrentTCB->xStateListItem ) );
 8007230:	4b0d      	ldr	r3, [pc, #52]	@ (8007268 <prvAddCurrentTaskToDelayedList+0x7c>)
 8007232:	6818      	ldr	r0, [r3, #0]
 8007234:	6829      	ldr	r1, [r5, #0]
}
 8007236:	e8bd 40f8 	ldmia.w	sp!, {r3, r4, r5, r6, r7, lr}
				vListInsert( pxOverflowDelayedTaskList, &( pxCurrentTCB->xStateListItem ) );
 800723a:	3104      	adds	r1, #4
 800723c:	f7ff bf30 	b.w	80070a0 <vListInsert>
				vListInsert( pxDelayedTaskList, &( pxCurrentTCB->xStateListItem ) );
 8007240:	4b0a      	ldr	r3, [pc, #40]	@ (800726c <prvAddCurrentTaskToDelayedList+0x80>)
 8007242:	6818      	ldr	r0, [r3, #0]
 8007244:	6829      	ldr	r1, [r5, #0]
 8007246:	3104      	adds	r1, #4
 8007248:	f7ff ff2a 	bl	80070a0 <vListInsert>
				if( xTimeToWake < xNextTaskUnblockTime )
 800724c:	4b08      	ldr	r3, [pc, #32]	@ (8007270 <prvAddCurrentTaskToDelayedList+0x84>)
 800724e:	681a      	ldr	r2, [r3, #0]
 8007250:	42a2      	cmp	r2, r4
					xNextTaskUnblockTime = xTimeToWake;
 8007252:	bf88      	it	hi
 8007254:	601c      	strhi	r4, [r3, #0]
}
 8007256:	bdf8      	pop	{r3, r4, r5, r6, r7, pc}
 8007258:	20001660 	.word	0x20001660
 800725c:	20001764 	.word	0x20001764
 8007260:	2000165c 	.word	0x2000165c
 8007264:	20001668 	.word	0x20001668
 8007268:	200016a8 	.word	0x200016a8
 800726c:	200016ac 	.word	0x200016ac
 8007270:	20001644 	.word	0x20001644

08007274 <prvResetNextTaskUnblockTime>:
	if( listLIST_IS_EMPTY( pxDelayedTaskList ) != pdFALSE )
 8007274:	4a06      	ldr	r2, [pc, #24]	@ (8007290 <prvResetNextTaskUnblockTime+0x1c>)
 8007276:	6813      	ldr	r3, [r2, #0]
 8007278:	6819      	ldr	r1, [r3, #0]
 800727a:	4b06      	ldr	r3, [pc, #24]	@ (8007294 <prvResetNextTaskUnblockTime+0x20>)
 800727c:	b919      	cbnz	r1, 8007286 <prvResetNextTaskUnblockTime+0x12>
		xNextTaskUnblockTime = portMAX_DELAY;
 800727e:	f04f 32ff 	mov.w	r2, #4294967295
		xNextTaskUnblockTime = listGET_LIST_ITEM_VALUE( &( ( pxTCB )->xStateListItem ) );
 8007282:	601a      	str	r2, [r3, #0]
}
 8007284:	4770      	bx	lr
		( pxTCB ) = listGET_OWNER_OF_HEAD_ENTRY( pxDelayedTaskList ); /*lint !e9079 void * is used as this macro is used with timers and co-routines too.  Alignment is known to be fine as the type of the pointer stored and retrieved is the same. */
 8007286:	6812      	ldr	r2, [r2, #0]
 8007288:	68d2      	ldr	r2, [r2, #12]
		xNextTaskUnblockTime = listGET_LIST_ITEM_VALUE( &( ( pxTCB )->xStateListItem ) );
 800728a:	68d2      	ldr	r2, [r2, #12]
 800728c:	6852      	ldr	r2, [r2, #4]
 800728e:	e7f8      	b.n	8007282 <prvResetNextTaskUnblockTime+0xe>
 8007290:	200016ac 	.word	0x200016ac
 8007294:	20001644 	.word	0x20001644

08007298 <prvDeleteTCB>:
	{
 8007298:	b510      	push	{r4, lr}
 800729a:	4604      	mov	r4, r0
			_reclaim_reent( &( pxTCB->xNewLib_reent ) );
 800729c:	3050      	adds	r0, #80	@ 0x50
 800729e:	f002 fe1b 	bl	8009ed8 <_reclaim_reent>
			if( pxTCB->ucStaticallyAllocated == tskDYNAMICALLY_ALLOCATED_STACK_AND_TCB )
 80072a2:	f894 30a1 	ldrb.w	r3, [r4, #161]	@ 0xa1
 80072a6:	b93b      	cbnz	r3, 80072b8 <prvDeleteTCB+0x20>
				vPortFree( pxTCB->pxStack );
 80072a8:	6b20      	ldr	r0, [r4, #48]	@ 0x30
 80072aa:	f000 fd4b 	bl	8007d44 <vPortFree>
				vPortFree( pxTCB );
 80072ae:	4620      	mov	r0, r4
	}
 80072b0:	e8bd 4010 	ldmia.w	sp!, {r4, lr}
				vPortFree( pxTCB );
 80072b4:	f000 bd46 	b.w	8007d44 <vPortFree>
			else if( pxTCB->ucStaticallyAllocated == tskSTATICALLY_ALLOCATED_STACK_ONLY )
 80072b8:	2b01      	cmp	r3, #1
 80072ba:	d0f8      	beq.n	80072ae <prvDeleteTCB+0x16>
				configASSERT( pxTCB->ucStaticallyAllocated == tskSTATICALLY_ALLOCATED_STACK_AND_TCB	);
 80072bc:	2b02      	cmp	r3, #2
 80072be:	d008      	beq.n	80072d2 <prvDeleteTCB+0x3a>

portFORCE_INLINE static void vPortRaiseBASEPRI( void )
{
uint32_t ulNewBASEPRI;

	__asm volatile
 80072c0:	f04f 0350 	mov.w	r3, #80	@ 0x50
 80072c4:	f383 8811 	msr	BASEPRI, r3
 80072c8:	f3bf 8f6f 	isb	sy
 80072cc:	f3bf 8f4f 	dsb	sy
 80072d0:	e7fe      	b.n	80072d0 <prvDeleteTCB+0x38>
	}
 80072d2:	bd10      	pop	{r4, pc}

080072d4 <prvIdleTask>:
{
 80072d4:	b580      	push	{r7, lr}
		while( uxDeletedTasksWaitingCleanUp > ( UBaseType_t ) 0U )
 80072d6:	4c13      	ldr	r4, [pc, #76]	@ (8007324 <prvIdleTask+0x50>)
				pxTCB = listGET_OWNER_OF_HEAD_ENTRY( ( &xTasksWaitingTermination ) ); /*lint !e9079 void * is used as this macro is used with timers and co-routines too.  Alignment is known to be fine as the type of the pointer stored and retrieved is the same. */
 80072d8:	4f13      	ldr	r7, [pc, #76]	@ (8007328 <prvIdleTask+0x54>)
				--uxCurrentNumberOfTasks;
 80072da:	4d14      	ldr	r5, [pc, #80]	@ (800732c <prvIdleTask+0x58>)
		while( uxDeletedTasksWaitingCleanUp > ( UBaseType_t ) 0U )
 80072dc:	6823      	ldr	r3, [r4, #0]
 80072de:	b973      	cbnz	r3, 80072fe <prvIdleTask+0x2a>
			if( listCURRENT_LIST_LENGTH( &( pxReadyTasksLists[ tskIDLE_PRIORITY ] ) ) > ( UBaseType_t ) 1 )
 80072e0:	4b13      	ldr	r3, [pc, #76]	@ (8007330 <prvIdleTask+0x5c>)
 80072e2:	681b      	ldr	r3, [r3, #0]
 80072e4:	2b01      	cmp	r3, #1
 80072e6:	d9f8      	bls.n	80072da <prvIdleTask+0x6>
				taskYIELD();
 80072e8:	f04f 23e0 	mov.w	r3, #3758153728	@ 0xe000e000
 80072ec:	f04f 5280 	mov.w	r2, #268435456	@ 0x10000000
 80072f0:	f8c3 2d04 	str.w	r2, [r3, #3332]	@ 0xd04
 80072f4:	f3bf 8f4f 	dsb	sy
 80072f8:	f3bf 8f6f 	isb	sy
 80072fc:	e7ed      	b.n	80072da <prvIdleTask+0x6>
			taskENTER_CRITICAL();
 80072fe:	f000 fb51 	bl	80079a4 <vPortEnterCritical>
				pxTCB = listGET_OWNER_OF_HEAD_ENTRY( ( &xTasksWaitingTermination ) ); /*lint !e9079 void * is used as this macro is used with timers and co-routines too.  Alignment is known to be fine as the type of the pointer stored and retrieved is the same. */
 8007302:	68fb      	ldr	r3, [r7, #12]
 8007304:	68de      	ldr	r6, [r3, #12]
				( void ) uxListRemove( &( pxTCB->xStateListItem ) );
 8007306:	1d30      	adds	r0, r6, #4
 8007308:	f7ff fee1 	bl	80070ce <uxListRemove>
				--uxCurrentNumberOfTasks;
 800730c:	682b      	ldr	r3, [r5, #0]
 800730e:	3b01      	subs	r3, #1
 8007310:	602b      	str	r3, [r5, #0]
				--uxDeletedTasksWaitingCleanUp;
 8007312:	6823      	ldr	r3, [r4, #0]
 8007314:	3b01      	subs	r3, #1
 8007316:	6023      	str	r3, [r4, #0]
			taskEXIT_CRITICAL();
 8007318:	f000 fb64 	bl	80079e4 <vPortExitCritical>
			prvDeleteTCB( pxTCB );
 800731c:	4630      	mov	r0, r6
 800731e:	f7ff ffbb 	bl	8007298 <prvDeleteTCB>
 8007322:	e7db      	b.n	80072dc <prvIdleTask+0x8>
 8007324:	2000167c 	.word	0x2000167c
 8007328:	20001680 	.word	0x20001680
 800732c:	20001664 	.word	0x20001664
 8007330:	200016d8 	.word	0x200016d8

08007334 <prvInitialiseNewTask.constprop.0>:
static void prvInitialiseNewTask( 	TaskFunction_t pxTaskCode,
 8007334:	e92d 47f0 	stmdb	sp!, {r4, r5, r6, r7, r8, r9, sl, lr}
 8007338:	e9dd 8409 	ldrd	r8, r4, [sp, #36]	@ 0x24
 800733c:	461f      	mov	r7, r3
		pxTopOfStack = &( pxNewTCB->pxStack[ ulStackDepth - ( uint32_t ) 1 ] );
 800733e:	f102 4280 	add.w	r2, r2, #1073741824	@ 0x40000000
 8007342:	6b23      	ldr	r3, [r4, #48]	@ 0x30
 8007344:	3a01      	subs	r2, #1
 8007346:	eb03 0382 	add.w	r3, r3, r2, lsl #2
		pxTopOfStack = ( StackType_t * ) ( ( ( portPOINTER_SIZE_TYPE ) pxTopOfStack ) & ( ~( ( portPOINTER_SIZE_TYPE ) portBYTE_ALIGNMENT_MASK ) ) ); /*lint !e923 !e9033 !e9078 MISRA exception.  Avoiding casts between pointers and integers is not practical.  Size differences accounted for using portPOINTER_SIZE_TYPE type.  Checked by assert(). */
 800734a:	f023 0907 	bic.w	r9, r3, #7
static void prvInitialiseNewTask( 	TaskFunction_t pxTaskCode,
 800734e:	4606      	mov	r6, r0
			pxNewTCB->pxEndOfStack = pxTopOfStack;
 8007350:	f8c4 9044 	str.w	r9, [r4, #68]	@ 0x44
	if( pcName != NULL )
 8007354:	2900      	cmp	r1, #0
 8007356:	d041      	beq.n	80073dc <prvInitialiseNewTask.constprop.0+0xa8>
 8007358:	1e4b      	subs	r3, r1, #1
 800735a:	f104 0233 	add.w	r2, r4, #51	@ 0x33
 800735e:	310f      	adds	r1, #15
			pxNewTCB->pcTaskName[ x ] = pcName[ x ];
 8007360:	f813 0f01 	ldrb.w	r0, [r3, #1]!
 8007364:	f802 0f01 	strb.w	r0, [r2, #1]!
			if( pcName[ x ] == ( char ) 0x00 )
 8007368:	b108      	cbz	r0, 800736e <prvInitialiseNewTask.constprop.0+0x3a>
		for( x = ( UBaseType_t ) 0; x < ( UBaseType_t ) configMAX_TASK_NAME_LEN; x++ )
 800736a:	428b      	cmp	r3, r1
 800736c:	d1f8      	bne.n	8007360 <prvInitialiseNewTask.constprop.0+0x2c>
		pxNewTCB->pcTaskName[ configMAX_TASK_NAME_LEN - 1 ] = '\0';
 800736e:	2300      	movs	r3, #0
 8007370:	f884 3043 	strb.w	r3, [r4, #67]	@ 0x43
	if( uxPriority >= ( UBaseType_t ) configMAX_PRIORITIES )
 8007374:	9d08      	ldr	r5, [sp, #32]
 8007376:	2d06      	cmp	r5, #6
 8007378:	bf28      	it	cs
 800737a:	2506      	movcs	r5, #6
		pxNewTCB->uxMutexesHeld = 0;
 800737c:	f04f 0a00 	mov.w	sl, #0
	pxNewTCB->uxPriority = uxPriority;
 8007380:	62e5      	str	r5, [r4, #44]	@ 0x2c
		pxNewTCB->uxBasePriority = uxPriority;
 8007382:	64a5      	str	r5, [r4, #72]	@ 0x48
	vListInitialiseItem( &( pxNewTCB->xStateListItem ) );
 8007384:	1d20      	adds	r0, r4, #4
		pxNewTCB->uxMutexesHeld = 0;
 8007386:	f8c4 a04c 	str.w	sl, [r4, #76]	@ 0x4c
	vListInitialiseItem( &( pxNewTCB->xStateListItem ) );
 800738a:	f7ff fe7b 	bl	8007084 <vListInitialiseItem>
	listSET_LIST_ITEM_VALUE( &( pxNewTCB->xEventListItem ), ( TickType_t ) configMAX_PRIORITIES - ( TickType_t ) uxPriority ); /*lint !e961 MISRA exception as the casts are only redundant for some ports. */
 800738e:	f1c5 0507 	rsb	r5, r5, #7
	vListInitialiseItem( &( pxNewTCB->xEventListItem ) );
 8007392:	f104 0018 	add.w	r0, r4, #24
 8007396:	f7ff fe75 	bl	8007084 <vListInitialiseItem>
		pxNewTCB->ulNotifiedValue = 0;
 800739a:	f8c4 a09c 	str.w	sl, [r4, #156]	@ 0x9c
		_REENT_INIT_PTR( ( &( pxNewTCB->xNewLib_reent ) ) );
 800739e:	224c      	movs	r2, #76	@ 0x4c
 80073a0:	4651      	mov	r1, sl
	listSET_LIST_ITEM_OWNER( &( pxNewTCB->xStateListItem ), pxNewTCB );
 80073a2:	6124      	str	r4, [r4, #16]
	listSET_LIST_ITEM_VALUE( &( pxNewTCB->xEventListItem ), ( TickType_t ) configMAX_PRIORITIES - ( TickType_t ) uxPriority ); /*lint !e961 MISRA exception as the casts are only redundant for some ports. */
 80073a4:	61a5      	str	r5, [r4, #24]
	listSET_LIST_ITEM_OWNER( &( pxNewTCB->xEventListItem ), pxNewTCB );
 80073a6:	6264      	str	r4, [r4, #36]	@ 0x24
		pxNewTCB->ucNotifyState = taskNOT_WAITING_NOTIFICATION;
 80073a8:	f884 a0a0 	strb.w	sl, [r4, #160]	@ 0xa0
		_REENT_INIT_PTR( ( &( pxNewTCB->xNewLib_reent ) ) );
 80073ac:	f104 0050 	add.w	r0, r4, #80	@ 0x50
 80073b0:	f002 fd75 	bl	8009e9e <memset>
 80073b4:	4b0b      	ldr	r3, [pc, #44]	@ (80073e4 <prvInitialiseNewTask.constprop.0+0xb0>)
 80073b6:	6563      	str	r3, [r4, #84]	@ 0x54
 80073b8:	f103 0268 	add.w	r2, r3, #104	@ 0x68
 80073bc:	33d0      	adds	r3, #208	@ 0xd0
 80073be:	65a2      	str	r2, [r4, #88]	@ 0x58
 80073c0:	65e3      	str	r3, [r4, #92]	@ 0x5c
			pxNewTCB->pxTopOfStack = pxPortInitialiseStack( pxTopOfStack, pxTaskCode, pvParameters );
 80073c2:	463a      	mov	r2, r7
 80073c4:	4631      	mov	r1, r6
 80073c6:	4648      	mov	r0, r9
 80073c8:	f000 fac0 	bl	800794c <pxPortInitialiseStack>
 80073cc:	6020      	str	r0, [r4, #0]
	if( pxCreatedTask != NULL )
 80073ce:	f1b8 0f00 	cmp.w	r8, #0
 80073d2:	d001      	beq.n	80073d8 <prvInitialiseNewTask.constprop.0+0xa4>
		*pxCreatedTask = ( TaskHandle_t ) pxNewTCB;
 80073d4:	f8c8 4000 	str.w	r4, [r8]
}
 80073d8:	e8bd 87f0 	ldmia.w	sp!, {r4, r5, r6, r7, r8, r9, sl, pc}
		pxNewTCB->pcTaskName[ 0 ] = 0x00;
 80073dc:	f884 1034 	strb.w	r1, [r4, #52]	@ 0x34
 80073e0:	e7c8      	b.n	8007374 <prvInitialiseNewTask.constprop.0+0x40>
 80073e2:	bf00      	nop
 80073e4:	20006f70 	.word	0x20006f70

080073e8 <xTaskCreateStatic>:
	{
 80073e8:	b570      	push	{r4, r5, r6, lr}
 80073ea:	b086      	sub	sp, #24
 80073ec:	e9dd 540b 	ldrd	r5, r4, [sp, #44]	@ 0x2c
		configASSERT( puxStackBuffer != NULL );
 80073f0:	b945      	cbnz	r5, 8007404 <xTaskCreateStatic+0x1c>
 80073f2:	f04f 0350 	mov.w	r3, #80	@ 0x50
 80073f6:	f383 8811 	msr	BASEPRI, r3
 80073fa:	f3bf 8f6f 	isb	sy
 80073fe:	f3bf 8f4f 	dsb	sy
 8007402:	e7fe      	b.n	8007402 <xTaskCreateStatic+0x1a>
		configASSERT( pxTaskBuffer != NULL );
 8007404:	b944      	cbnz	r4, 8007418 <xTaskCreateStatic+0x30>
 8007406:	f04f 0350 	mov.w	r3, #80	@ 0x50
 800740a:	f383 8811 	msr	BASEPRI, r3
 800740e:	f3bf 8f6f 	isb	sy
 8007412:	f3bf 8f4f 	dsb	sy
 8007416:	e7fe      	b.n	8007416 <xTaskCreateStatic+0x2e>
			volatile size_t xSize = sizeof( StaticTask_t );
 8007418:	26a4      	movs	r6, #164	@ 0xa4
 800741a:	9605      	str	r6, [sp, #20]
			configASSERT( xSize == sizeof( TCB_t ) );
 800741c:	9e05      	ldr	r6, [sp, #20]
 800741e:	2ea4      	cmp	r6, #164	@ 0xa4
 8007420:	d008      	beq.n	8007434 <xTaskCreateStatic+0x4c>
 8007422:	f04f 0350 	mov.w	r3, #80	@ 0x50
 8007426:	f383 8811 	msr	BASEPRI, r3
 800742a:	f3bf 8f6f 	isb	sy
 800742e:	f3bf 8f4f 	dsb	sy
 8007432:	e7fe      	b.n	8007432 <xTaskCreateStatic+0x4a>
			pxNewTCB->pxStack = ( StackType_t * ) puxStackBuffer;
 8007434:	6325      	str	r5, [r4, #48]	@ 0x30
				pxNewTCB->ucStaticallyAllocated = tskSTATICALLY_ALLOCATED_STACK_AND_TCB;
 8007436:	2502      	movs	r5, #2
 8007438:	f884 50a1 	strb.w	r5, [r4, #161]	@ 0xa1
			prvInitialiseNewTask( pxTaskCode, pcName, ulStackDepth, pvParameters, uxPriority, &xReturn, pxNewTCB, NULL );
 800743c:	ad04      	add	r5, sp, #16
 800743e:	9501      	str	r5, [sp, #4]
 8007440:	9d0a      	ldr	r5, [sp, #40]	@ 0x28
 8007442:	9402      	str	r4, [sp, #8]
 8007444:	9500      	str	r5, [sp, #0]
			( void ) xSize; /* Prevent lint warning when configASSERT() is not used. */
 8007446:	9e05      	ldr	r6, [sp, #20]
			prvInitialiseNewTask( pxTaskCode, pcName, ulStackDepth, pvParameters, uxPriority, &xReturn, pxNewTCB, NULL );
 8007448:	f7ff ff74 	bl	8007334 <prvInitialiseNewTask.constprop.0>
			prvAddNewTaskToReadyList( pxNewTCB );
 800744c:	4620      	mov	r0, r4
 800744e:	f7ff fe4f 	bl	80070f0 <prvAddNewTaskToReadyList>
	}
 8007452:	9804      	ldr	r0, [sp, #16]
 8007454:	b006      	add	sp, #24
 8007456:	bd70      	pop	{r4, r5, r6, pc}

08007458 <xTaskCreate>:
	{
 8007458:	e92d 43f0 	stmdb	sp!, {r4, r5, r6, r7, r8, r9, lr}
 800745c:	4607      	mov	r7, r0
 800745e:	b085      	sub	sp, #20
			pxStack = pvPortMalloc( ( ( ( size_t ) usStackDepth ) * sizeof( StackType_t ) ) ); /*lint !e9079 All values returned by pvPortMalloc() have at least the alignment required by the MCU's stack and this allocation is the stack. */
 8007460:	0090      	lsls	r0, r2, #2
	{
 8007462:	4688      	mov	r8, r1
 8007464:	4616      	mov	r6, r2
 8007466:	4699      	mov	r9, r3
			pxStack = pvPortMalloc( ( ( ( size_t ) usStackDepth ) * sizeof( StackType_t ) ) ); /*lint !e9079 All values returned by pvPortMalloc() have at least the alignment required by the MCU's stack and this allocation is the stack. */
 8007468:	f000 fbd4 	bl	8007c14 <pvPortMalloc>
			if( pxStack != NULL )
 800746c:	4605      	mov	r5, r0
 800746e:	b920      	cbnz	r0, 800747a <xTaskCreate+0x22>
			xReturn = errCOULD_NOT_ALLOCATE_REQUIRED_MEMORY;
 8007470:	f04f 30ff 	mov.w	r0, #4294967295
	}
 8007474:	b005      	add	sp, #20
 8007476:	e8bd 83f0 	ldmia.w	sp!, {r4, r5, r6, r7, r8, r9, pc}
				pxNewTCB = ( TCB_t * ) pvPortMalloc( sizeof( TCB_t ) ); /*lint !e9087 !e9079 All values returned by pvPortMalloc() have at least the alignment required by the MCU's stack, and the first member of TCB_t is always a pointer to the task's stack. */
 800747a:	20a4      	movs	r0, #164	@ 0xa4
 800747c:	f000 fbca 	bl	8007c14 <pvPortMalloc>
				if( pxNewTCB != NULL )
 8007480:	4604      	mov	r4, r0
 8007482:	b198      	cbz	r0, 80074ac <xTaskCreate+0x54>
				pxNewTCB->ucStaticallyAllocated = tskDYNAMICALLY_ALLOCATED_STACK_AND_TCB;
 8007484:	2300      	movs	r3, #0
 8007486:	f880 30a1 	strb.w	r3, [r0, #161]	@ 0xa1
			prvInitialiseNewTask( pxTaskCode, pcName, ( uint32_t ) usStackDepth, pvParameters, uxPriority, pxCreatedTask, pxNewTCB, NULL );
 800748a:	9b0d      	ldr	r3, [sp, #52]	@ 0x34
					pxNewTCB->pxStack = pxStack;
 800748c:	6305      	str	r5, [r0, #48]	@ 0x30
			prvInitialiseNewTask( pxTaskCode, pcName, ( uint32_t ) usStackDepth, pvParameters, uxPriority, pxCreatedTask, pxNewTCB, NULL );
 800748e:	9301      	str	r3, [sp, #4]
 8007490:	9b0c      	ldr	r3, [sp, #48]	@ 0x30
 8007492:	9002      	str	r0, [sp, #8]
 8007494:	9300      	str	r3, [sp, #0]
 8007496:	4632      	mov	r2, r6
 8007498:	464b      	mov	r3, r9
 800749a:	4641      	mov	r1, r8
 800749c:	4638      	mov	r0, r7
 800749e:	f7ff ff49 	bl	8007334 <prvInitialiseNewTask.constprop.0>
			prvAddNewTaskToReadyList( pxNewTCB );
 80074a2:	4620      	mov	r0, r4
 80074a4:	f7ff fe24 	bl	80070f0 <prvAddNewTaskToReadyList>
			xReturn = pdPASS;
 80074a8:	2001      	movs	r0, #1
 80074aa:	e7e3      	b.n	8007474 <xTaskCreate+0x1c>
					vPortFree( pxStack );
 80074ac:	4628      	mov	r0, r5
 80074ae:	f000 fc49 	bl	8007d44 <vPortFree>
		if( pxNewTCB != NULL )
 80074b2:	e7dd      	b.n	8007470 <xTaskCreate+0x18>

080074b4 <vTaskStartScheduler>:
{
 80074b4:	b510      	push	{r4, lr}
 80074b6:	b088      	sub	sp, #32
		StaticTask_t *pxIdleTaskTCBBuffer = NULL;
 80074b8:	2400      	movs	r4, #0
		vApplicationGetIdleTaskMemory( &pxIdleTaskTCBBuffer, &pxIdleTaskStackBuffer, &ulIdleTaskStackSize );
 80074ba:	aa07      	add	r2, sp, #28
 80074bc:	a906      	add	r1, sp, #24
 80074be:	a805      	add	r0, sp, #20
		StackType_t *pxIdleTaskStackBuffer = NULL;
 80074c0:	e9cd 4405 	strd	r4, r4, [sp, #20]
		vApplicationGetIdleTaskMemory( &pxIdleTaskTCBBuffer, &pxIdleTaskStackBuffer, &ulIdleTaskStackSize );
 80074c4:	f7fa f852 	bl	800156c <vApplicationGetIdleTaskMemory>
		xIdleTaskHandle = xTaskCreateStatic(	prvIdleTask,
 80074c8:	9b05      	ldr	r3, [sp, #20]
 80074ca:	9302      	str	r3, [sp, #8]
 80074cc:	9b06      	ldr	r3, [sp, #24]
 80074ce:	9a07      	ldr	r2, [sp, #28]
 80074d0:	4912      	ldr	r1, [pc, #72]	@ (800751c <vTaskStartScheduler+0x68>)
 80074d2:	4813      	ldr	r0, [pc, #76]	@ (8007520 <vTaskStartScheduler+0x6c>)
 80074d4:	e9cd 4300 	strd	r4, r3, [sp]
 80074d8:	4623      	mov	r3, r4
 80074da:	f7ff ff85 	bl	80073e8 <xTaskCreateStatic>
		if( xIdleTaskHandle != NULL )
 80074de:	b1d0      	cbz	r0, 8007516 <vTaskStartScheduler+0x62>
 80074e0:	f04f 0350 	mov.w	r3, #80	@ 0x50
 80074e4:	f383 8811 	msr	BASEPRI, r3
 80074e8:	f3bf 8f6f 	isb	sy
 80074ec:	f3bf 8f4f 	dsb	sy
			_impure_ptr = &( pxCurrentTCB->xNewLib_reent );
 80074f0:	4b0c      	ldr	r3, [pc, #48]	@ (8007524 <vTaskStartScheduler+0x70>)
 80074f2:	4a0d      	ldr	r2, [pc, #52]	@ (8007528 <vTaskStartScheduler+0x74>)
 80074f4:	681b      	ldr	r3, [r3, #0]
 80074f6:	3350      	adds	r3, #80	@ 0x50
 80074f8:	6013      	str	r3, [r2, #0]
		xNextTaskUnblockTime = portMAX_DELAY;
 80074fa:	4b0c      	ldr	r3, [pc, #48]	@ (800752c <vTaskStartScheduler+0x78>)
 80074fc:	f04f 32ff 	mov.w	r2, #4294967295
 8007500:	601a      	str	r2, [r3, #0]
		xSchedulerRunning = pdTRUE;
 8007502:	4b0b      	ldr	r3, [pc, #44]	@ (8007530 <vTaskStartScheduler+0x7c>)
 8007504:	2201      	movs	r2, #1
 8007506:	601a      	str	r2, [r3, #0]
		xTickCount = ( TickType_t ) configINITIAL_TICK_COUNT;
 8007508:	4b0a      	ldr	r3, [pc, #40]	@ (8007534 <vTaskStartScheduler+0x80>)
 800750a:	601c      	str	r4, [r3, #0]
}
 800750c:	b008      	add	sp, #32
 800750e:	e8bd 4010 	ldmia.w	sp!, {r4, lr}
		if( xPortStartScheduler() != pdFALSE )
 8007512:	f000 bad7 	b.w	8007ac4 <xPortStartScheduler>
}
 8007516:	b008      	add	sp, #32
 8007518:	bd10      	pop	{r4, pc}
 800751a:	bf00      	nop
 800751c:	0800c251 	.word	0x0800c251
 8007520:	080072d5 	.word	0x080072d5
 8007524:	20001764 	.word	0x20001764
 8007528:	2000010c 	.word	0x2000010c
 800752c:	20001644 	.word	0x20001644
 8007530:	20001658 	.word	0x20001658
 8007534:	20001660 	.word	0x20001660

08007538 <vTaskSuspendAll>:
	++uxSchedulerSuspended;
 8007538:	4a02      	ldr	r2, [pc, #8]	@ (8007544 <vTaskSuspendAll+0xc>)
 800753a:	6813      	ldr	r3, [r2, #0]
 800753c:	3301      	adds	r3, #1
 800753e:	6013      	str	r3, [r2, #0]
}
 8007540:	4770      	bx	lr
 8007542:	bf00      	nop
 8007544:	20001640 	.word	0x20001640

08007548 <xTaskGetTickCount>:
		xTicks = xTickCount;
 8007548:	4b01      	ldr	r3, [pc, #4]	@ (8007550 <xTaskGetTickCount+0x8>)
 800754a:	6818      	ldr	r0, [r3, #0]
}
 800754c:	4770      	bx	lr
 800754e:	bf00      	nop
 8007550:	20001660 	.word	0x20001660

08007554 <xTaskIncrementTick>:
	if( uxSchedulerSuspended == ( UBaseType_t ) pdFALSE )
 8007554:	4b41      	ldr	r3, [pc, #260]	@ (800765c <xTaskIncrementTick+0x108>)
 8007556:	681b      	ldr	r3, [r3, #0]
{
 8007558:	e92d 4ff7 	stmdb	sp!, {r0, r1, r2, r4, r5, r6, r7, r8, r9, sl, fp, lr}
	if( uxSchedulerSuspended == ( UBaseType_t ) pdFALSE )
 800755c:	2b00      	cmp	r3, #0
 800755e:	d175      	bne.n	800764c <xTaskIncrementTick+0xf8>
		const TickType_t xConstTickCount = xTickCount + ( TickType_t ) 1;
 8007560:	4b3f      	ldr	r3, [pc, #252]	@ (8007660 <xTaskIncrementTick+0x10c>)
 8007562:	681c      	ldr	r4, [r3, #0]
 8007564:	3401      	adds	r4, #1
		xTickCount = xConstTickCount;
 8007566:	601c      	str	r4, [r3, #0]
		if( xConstTickCount == ( TickType_t ) 0U ) /*lint !e774 'if' does not always evaluate to false as it is looking for an overflow. */
 8007568:	b9bc      	cbnz	r4, 800759a <xTaskIncrementTick+0x46>
			taskSWITCH_DELAYED_LISTS();
 800756a:	4b3e      	ldr	r3, [pc, #248]	@ (8007664 <xTaskIncrementTick+0x110>)
 800756c:	681a      	ldr	r2, [r3, #0]
 800756e:	6812      	ldr	r2, [r2, #0]
 8007570:	b142      	cbz	r2, 8007584 <xTaskIncrementTick+0x30>
 8007572:	f04f 0350 	mov.w	r3, #80	@ 0x50
 8007576:	f383 8811 	msr	BASEPRI, r3
 800757a:	f3bf 8f6f 	isb	sy
 800757e:	f3bf 8f4f 	dsb	sy
 8007582:	e7fe      	b.n	8007582 <xTaskIncrementTick+0x2e>
 8007584:	4a38      	ldr	r2, [pc, #224]	@ (8007668 <xTaskIncrementTick+0x114>)
 8007586:	6819      	ldr	r1, [r3, #0]
 8007588:	6810      	ldr	r0, [r2, #0]
 800758a:	6018      	str	r0, [r3, #0]
 800758c:	6011      	str	r1, [r2, #0]
 800758e:	4a37      	ldr	r2, [pc, #220]	@ (800766c <xTaskIncrementTick+0x118>)
 8007590:	6813      	ldr	r3, [r2, #0]
 8007592:	3301      	adds	r3, #1
 8007594:	6013      	str	r3, [r2, #0]
 8007596:	f7ff fe6d 	bl	8007274 <prvResetNextTaskUnblockTime>
		if( xConstTickCount >= xNextTaskUnblockTime )
 800759a:	4d35      	ldr	r5, [pc, #212]	@ (8007670 <xTaskIncrementTick+0x11c>)
 800759c:	4e35      	ldr	r6, [pc, #212]	@ (8007674 <xTaskIncrementTick+0x120>)
 800759e:	682b      	ldr	r3, [r5, #0]
 80075a0:	4f35      	ldr	r7, [pc, #212]	@ (8007678 <xTaskIncrementTick+0x124>)
 80075a2:	429c      	cmp	r4, r3
BaseType_t xSwitchRequired = pdFALSE;
 80075a4:	f04f 0b00 	mov.w	fp, #0
		if( xConstTickCount >= xNextTaskUnblockTime )
 80075a8:	d212      	bcs.n	80075d0 <xTaskIncrementTick+0x7c>
			if( listCURRENT_LIST_LENGTH( &( pxReadyTasksLists[ pxCurrentTCB->uxPriority ] ) ) > ( UBaseType_t ) 1 )
 80075aa:	683a      	ldr	r2, [r7, #0]
 80075ac:	6ad2      	ldr	r2, [r2, #44]	@ 0x2c
 80075ae:	2114      	movs	r1, #20
 80075b0:	434a      	muls	r2, r1
 80075b2:	58b2      	ldr	r2, [r6, r2]
				xSwitchRequired = pdTRUE;
 80075b4:	2a02      	cmp	r2, #2
			if( xYieldPending != pdFALSE )
 80075b6:	4a31      	ldr	r2, [pc, #196]	@ (800767c <xTaskIncrementTick+0x128>)
 80075b8:	6812      	ldr	r2, [r2, #0]
				xSwitchRequired = pdTRUE;
 80075ba:	bf28      	it	cs
 80075bc:	f04f 0b01 	movcs.w	fp, #1
				xSwitchRequired = pdTRUE;
 80075c0:	2a00      	cmp	r2, #0
 80075c2:	bf18      	it	ne
 80075c4:	f04f 0b01 	movne.w	fp, #1
}
 80075c8:	4658      	mov	r0, fp
 80075ca:	b003      	add	sp, #12
 80075cc:	e8bd 8ff0 	ldmia.w	sp!, {r4, r5, r6, r7, r8, r9, sl, fp, pc}
				if( listLIST_IS_EMPTY( pxDelayedTaskList ) != pdFALSE )
 80075d0:	f8df a090 	ldr.w	sl, [pc, #144]	@ 8007664 <xTaskIncrementTick+0x110>
					prvAddTaskToReadyList( pxTCB );
 80075d4:	f8df 90ac 	ldr.w	r9, [pc, #172]	@ 8007684 <xTaskIncrementTick+0x130>
				if( listLIST_IS_EMPTY( pxDelayedTaskList ) != pdFALSE )
 80075d8:	f8da 2000 	ldr.w	r2, [sl]
 80075dc:	6812      	ldr	r2, [r2, #0]
 80075de:	b91a      	cbnz	r2, 80075e8 <xTaskIncrementTick+0x94>
					xNextTaskUnblockTime = portMAX_DELAY; /*lint !e961 MISRA exception as the casts are only redundant for some ports. */
 80075e0:	f04f 32ff 	mov.w	r2, #4294967295
 80075e4:	602a      	str	r2, [r5, #0]
					break;
 80075e6:	e7e0      	b.n	80075aa <xTaskIncrementTick+0x56>
					pxTCB = listGET_OWNER_OF_HEAD_ENTRY( pxDelayedTaskList ); /*lint !e9079 void * is used as this macro is used with timers and co-routines too.  Alignment is known to be fine as the type of the pointer stored and retrieved is the same. */
 80075e8:	f8da 2000 	ldr.w	r2, [sl]
 80075ec:	68d2      	ldr	r2, [r2, #12]
 80075ee:	f8d2 800c 	ldr.w	r8, [r2, #12]
					xItemValue = listGET_LIST_ITEM_VALUE( &( pxTCB->xStateListItem ) );
 80075f2:	f8d8 1004 	ldr.w	r1, [r8, #4]
					if( xConstTickCount < xItemValue )
 80075f6:	428c      	cmp	r4, r1
 80075f8:	d201      	bcs.n	80075fe <xTaskIncrementTick+0xaa>
						xNextTaskUnblockTime = xItemValue;
 80075fa:	6029      	str	r1, [r5, #0]
						break; /*lint !e9011 Code structure here is deedmed easier to understand with multiple breaks. */
 80075fc:	e7d5      	b.n	80075aa <xTaskIncrementTick+0x56>
					( void ) uxListRemove( &( pxTCB->xStateListItem ) );
 80075fe:	f108 0304 	add.w	r3, r8, #4
 8007602:	4618      	mov	r0, r3
 8007604:	9301      	str	r3, [sp, #4]
 8007606:	f7ff fd62 	bl	80070ce <uxListRemove>
					if( listLIST_ITEM_CONTAINER( &( pxTCB->xEventListItem ) ) != NULL )
 800760a:	f8d8 1028 	ldr.w	r1, [r8, #40]	@ 0x28
 800760e:	b119      	cbz	r1, 8007618 <xTaskIncrementTick+0xc4>
						( void ) uxListRemove( &( pxTCB->xEventListItem ) );
 8007610:	f108 0018 	add.w	r0, r8, #24
 8007614:	f7ff fd5b 	bl	80070ce <uxListRemove>
					prvAddTaskToReadyList( pxTCB );
 8007618:	f8d8 002c 	ldr.w	r0, [r8, #44]	@ 0x2c
 800761c:	f8d9 3000 	ldr.w	r3, [r9]
 8007620:	2201      	movs	r2, #1
 8007622:	fa02 f100 	lsl.w	r1, r2, r0
 8007626:	4319      	orrs	r1, r3
 8007628:	f04f 0c14 	mov.w	ip, #20
 800762c:	f8c9 1000 	str.w	r1, [r9]
 8007630:	fb0c 6000 	mla	r0, ip, r0, r6
 8007634:	9901      	ldr	r1, [sp, #4]
 8007636:	f7ff fd28 	bl	800708a <vListInsertEnd>
						if( pxTCB->uxPriority >= pxCurrentTCB->uxPriority )
 800763a:	6838      	ldr	r0, [r7, #0]
 800763c:	f8d8 102c 	ldr.w	r1, [r8, #44]	@ 0x2c
 8007640:	6ac2      	ldr	r2, [r0, #44]	@ 0x2c
							xSwitchRequired = pdTRUE;
 8007642:	4291      	cmp	r1, r2
 8007644:	bf28      	it	cs
 8007646:	f04f 0b01 	movcs.w	fp, #1
 800764a:	e7c5      	b.n	80075d8 <xTaskIncrementTick+0x84>
		++xPendedTicks;
 800764c:	4a0c      	ldr	r2, [pc, #48]	@ (8007680 <xTaskIncrementTick+0x12c>)
 800764e:	6813      	ldr	r3, [r2, #0]
 8007650:	3301      	adds	r3, #1
 8007652:	6013      	str	r3, [r2, #0]
BaseType_t xSwitchRequired = pdFALSE;
 8007654:	f04f 0b00 	mov.w	fp, #0
 8007658:	e7b6      	b.n	80075c8 <xTaskIncrementTick+0x74>
 800765a:	bf00      	nop
 800765c:	20001640 	.word	0x20001640
 8007660:	20001660 	.word	0x20001660
 8007664:	200016ac 	.word	0x200016ac
 8007668:	200016a8 	.word	0x200016a8
 800766c:	2000164c 	.word	0x2000164c
 8007670:	20001644 	.word	0x20001644
 8007674:	200016d8 	.word	0x200016d8
 8007678:	20001764 	.word	0x20001764
 800767c:	20001650 	.word	0x20001650
 8007680:	20001654 	.word	0x20001654
 8007684:	2000165c 	.word	0x2000165c

08007688 <xTaskResumeAll>:
{
 8007688:	e92d 43f8 	stmdb	sp!, {r3, r4, r5, r6, r7, r8, r9, lr}
	configASSERT( uxSchedulerSuspended );
 800768c:	4c31      	ldr	r4, [pc, #196]	@ (8007754 <xTaskResumeAll+0xcc>)
 800768e:	6823      	ldr	r3, [r4, #0]
 8007690:	b943      	cbnz	r3, 80076a4 <xTaskResumeAll+0x1c>
 8007692:	f04f 0350 	mov.w	r3, #80	@ 0x50
 8007696:	f383 8811 	msr	BASEPRI, r3
 800769a:	f3bf 8f6f 	isb	sy
 800769e:	f3bf 8f4f 	dsb	sy
 80076a2:	e7fe      	b.n	80076a2 <xTaskResumeAll+0x1a>
	taskENTER_CRITICAL();
 80076a4:	f000 f97e 	bl	80079a4 <vPortEnterCritical>
		--uxSchedulerSuspended;
 80076a8:	6823      	ldr	r3, [r4, #0]
 80076aa:	3b01      	subs	r3, #1
 80076ac:	6023      	str	r3, [r4, #0]
		if( uxSchedulerSuspended == ( UBaseType_t ) pdFALSE )
 80076ae:	6824      	ldr	r4, [r4, #0]
 80076b0:	b12c      	cbz	r4, 80076be <xTaskResumeAll+0x36>
BaseType_t xAlreadyYielded = pdFALSE;
 80076b2:	2400      	movs	r4, #0
	taskEXIT_CRITICAL();
 80076b4:	f000 f996 	bl	80079e4 <vPortExitCritical>
}
 80076b8:	4620      	mov	r0, r4
 80076ba:	e8bd 83f8 	ldmia.w	sp!, {r3, r4, r5, r6, r7, r8, r9, pc}
			if( uxCurrentNumberOfTasks > ( UBaseType_t ) 0U )
 80076be:	4b26      	ldr	r3, [pc, #152]	@ (8007758 <xTaskResumeAll+0xd0>)
 80076c0:	681b      	ldr	r3, [r3, #0]
 80076c2:	2b00      	cmp	r3, #0
 80076c4:	d0f5      	beq.n	80076b2 <xTaskResumeAll+0x2a>
				while( listLIST_IS_EMPTY( &xPendingReadyList ) == pdFALSE )
 80076c6:	4d25      	ldr	r5, [pc, #148]	@ (800775c <xTaskResumeAll+0xd4>)
					prvAddTaskToReadyList( pxTCB );
 80076c8:	4e25      	ldr	r6, [pc, #148]	@ (8007760 <xTaskResumeAll+0xd8>)
 80076ca:	f8df 80a4 	ldr.w	r8, [pc, #164]	@ 8007770 <xTaskResumeAll+0xe8>
 80076ce:	e01f      	b.n	8007710 <xTaskResumeAll+0x88>
					pxTCB = listGET_OWNER_OF_HEAD_ENTRY( ( &xPendingReadyList ) ); /*lint !e9079 void * is used as this macro is used with timers and co-routines too.  Alignment is known to be fine as the type of the pointer stored and retrieved is the same. */
 80076d0:	68eb      	ldr	r3, [r5, #12]
 80076d2:	68dc      	ldr	r4, [r3, #12]
					( void ) uxListRemove( &( pxTCB->xStateListItem ) );
 80076d4:	f104 0904 	add.w	r9, r4, #4
					( void ) uxListRemove( &( pxTCB->xEventListItem ) );
 80076d8:	f104 0018 	add.w	r0, r4, #24
 80076dc:	f7ff fcf7 	bl	80070ce <uxListRemove>
					( void ) uxListRemove( &( pxTCB->xStateListItem ) );
 80076e0:	4648      	mov	r0, r9
 80076e2:	f7ff fcf4 	bl	80070ce <uxListRemove>
					prvAddTaskToReadyList( pxTCB );
 80076e6:	6ae2      	ldr	r2, [r4, #44]	@ 0x2c
 80076e8:	6831      	ldr	r1, [r6, #0]
 80076ea:	2701      	movs	r7, #1
 80076ec:	fa07 f302 	lsl.w	r3, r7, r2
 80076f0:	2014      	movs	r0, #20
 80076f2:	430b      	orrs	r3, r1
 80076f4:	fb00 8002 	mla	r0, r0, r2, r8
 80076f8:	4649      	mov	r1, r9
 80076fa:	6033      	str	r3, [r6, #0]
 80076fc:	f7ff fcc5 	bl	800708a <vListInsertEnd>
					if( pxTCB->uxPriority >= pxCurrentTCB->uxPriority )
 8007700:	4b18      	ldr	r3, [pc, #96]	@ (8007764 <xTaskResumeAll+0xdc>)
 8007702:	6ae2      	ldr	r2, [r4, #44]	@ 0x2c
 8007704:	681b      	ldr	r3, [r3, #0]
 8007706:	6adb      	ldr	r3, [r3, #44]	@ 0x2c
 8007708:	429a      	cmp	r2, r3
 800770a:	d301      	bcc.n	8007710 <xTaskResumeAll+0x88>
						xYieldPending = pdTRUE;
 800770c:	4b16      	ldr	r3, [pc, #88]	@ (8007768 <xTaskResumeAll+0xe0>)
 800770e:	601f      	str	r7, [r3, #0]
				while( listLIST_IS_EMPTY( &xPendingReadyList ) == pdFALSE )
 8007710:	682b      	ldr	r3, [r5, #0]
 8007712:	2b00      	cmp	r3, #0
 8007714:	d1dc      	bne.n	80076d0 <xTaskResumeAll+0x48>
				if( pxTCB != NULL )
 8007716:	b10c      	cbz	r4, 800771c <xTaskResumeAll+0x94>
					prvResetNextTaskUnblockTime();
 8007718:	f7ff fdac 	bl	8007274 <prvResetNextTaskUnblockTime>
					TickType_t xPendedCounts = xPendedTicks; /* Non-volatile copy. */
 800771c:	4d13      	ldr	r5, [pc, #76]	@ (800776c <xTaskResumeAll+0xe4>)
 800771e:	682c      	ldr	r4, [r5, #0]
					if( xPendedCounts > ( TickType_t ) 0U )
 8007720:	b144      	cbz	r4, 8007734 <xTaskResumeAll+0xac>
								xYieldPending = pdTRUE;
 8007722:	4e11      	ldr	r6, [pc, #68]	@ (8007768 <xTaskResumeAll+0xe0>)
 8007724:	2701      	movs	r7, #1
							if( xTaskIncrementTick() != pdFALSE )
 8007726:	f7ff ff15 	bl	8007554 <xTaskIncrementTick>
 800772a:	b100      	cbz	r0, 800772e <xTaskResumeAll+0xa6>
								xYieldPending = pdTRUE;
 800772c:	6037      	str	r7, [r6, #0]
						} while( xPendedCounts > ( TickType_t ) 0U );
 800772e:	3c01      	subs	r4, #1
 8007730:	d1f9      	bne.n	8007726 <xTaskResumeAll+0x9e>
						xPendedTicks = 0;
 8007732:	602c      	str	r4, [r5, #0]
				if( xYieldPending != pdFALSE )
 8007734:	4b0c      	ldr	r3, [pc, #48]	@ (8007768 <xTaskResumeAll+0xe0>)
 8007736:	681b      	ldr	r3, [r3, #0]
 8007738:	2b00      	cmp	r3, #0
 800773a:	d0ba      	beq.n	80076b2 <xTaskResumeAll+0x2a>
					taskYIELD_IF_USING_PREEMPTION();
 800773c:	f04f 23e0 	mov.w	r3, #3758153728	@ 0xe000e000
 8007740:	f04f 5280 	mov.w	r2, #268435456	@ 0x10000000
 8007744:	f8c3 2d04 	str.w	r2, [r3, #3332]	@ 0xd04
 8007748:	f3bf 8f4f 	dsb	sy
 800774c:	f3bf 8f6f 	isb	sy
						xAlreadyYielded = pdTRUE;
 8007750:	2401      	movs	r4, #1
 8007752:	e7af      	b.n	80076b4 <xTaskResumeAll+0x2c>
 8007754:	20001640 	.word	0x20001640
 8007758:	20001664 	.word	0x20001664
 800775c:	20001694 	.word	0x20001694
 8007760:	2000165c 	.word	0x2000165c
 8007764:	20001764 	.word	0x20001764
 8007768:	20001650 	.word	0x20001650
 800776c:	20001654 	.word	0x20001654
 8007770:	200016d8 	.word	0x200016d8

08007774 <vTaskDelayUntil>:
	{
 8007774:	b510      	push	{r4, lr}
		configASSERT( pxPreviousWakeTime );
 8007776:	b940      	cbnz	r0, 800778a <vTaskDelayUntil+0x16>
 8007778:	f04f 0350 	mov.w	r3, #80	@ 0x50
 800777c:	f383 8811 	msr	BASEPRI, r3
 8007780:	f3bf 8f6f 	isb	sy
 8007784:	f3bf 8f4f 	dsb	sy
 8007788:	e7fe      	b.n	8007788 <vTaskDelayUntil+0x14>
		configASSERT( ( xTimeIncrement > 0U ) );
 800778a:	b941      	cbnz	r1, 800779e <vTaskDelayUntil+0x2a>
 800778c:	f04f 0350 	mov.w	r3, #80	@ 0x50
 8007790:	f383 8811 	msr	BASEPRI, r3
 8007794:	f3bf 8f6f 	isb	sy
 8007798:	f3bf 8f4f 	dsb	sy
 800779c:	e7fe      	b.n	800779c <vTaskDelayUntil+0x28>
		configASSERT( uxSchedulerSuspended == 0 );
 800779e:	4b18      	ldr	r3, [pc, #96]	@ (8007800 <vTaskDelayUntil+0x8c>)
 80077a0:	681b      	ldr	r3, [r3, #0]
 80077a2:	b143      	cbz	r3, 80077b6 <vTaskDelayUntil+0x42>
 80077a4:	f04f 0350 	mov.w	r3, #80	@ 0x50
 80077a8:	f383 8811 	msr	BASEPRI, r3
 80077ac:	f3bf 8f6f 	isb	sy
 80077b0:	f3bf 8f4f 	dsb	sy
 80077b4:	e7fe      	b.n	80077b4 <vTaskDelayUntil+0x40>
		vTaskSuspendAll();
 80077b6:	f7ff febf 	bl	8007538 <vTaskSuspendAll>
			const TickType_t xConstTickCount = xTickCount;
 80077ba:	4b12      	ldr	r3, [pc, #72]	@ (8007804 <vTaskDelayUntil+0x90>)
			xTimeToWake = *pxPreviousWakeTime + xTimeIncrement;
 80077bc:	6804      	ldr	r4, [r0, #0]
			const TickType_t xConstTickCount = xTickCount;
 80077be:	681a      	ldr	r2, [r3, #0]
			xTimeToWake = *pxPreviousWakeTime + xTimeIncrement;
 80077c0:	1863      	adds	r3, r4, r1
 80077c2:	bf2c      	ite	cs
 80077c4:	2101      	movcs	r1, #1
 80077c6:	2100      	movcc	r1, #0
			if( xConstTickCount < *pxPreviousWakeTime )
 80077c8:	4294      	cmp	r4, r2
 80077ca:	d90f      	bls.n	80077ec <vTaskDelayUntil+0x78>
				if( ( xTimeToWake < *pxPreviousWakeTime ) && ( xTimeToWake > xConstTickCount ) )
 80077cc:	b979      	cbnz	r1, 80077ee <vTaskDelayUntil+0x7a>
			*pxPreviousWakeTime = xTimeToWake;
 80077ce:	6003      	str	r3, [r0, #0]
		xAlreadyYielded = xTaskResumeAll();
 80077d0:	f7ff ff5a 	bl	8007688 <xTaskResumeAll>
		if( xAlreadyYielded == pdFALSE )
 80077d4:	b948      	cbnz	r0, 80077ea <vTaskDelayUntil+0x76>
			portYIELD_WITHIN_API();
 80077d6:	f04f 23e0 	mov.w	r3, #3758153728	@ 0xe000e000
 80077da:	f04f 5280 	mov.w	r2, #268435456	@ 0x10000000
 80077de:	f8c3 2d04 	str.w	r2, [r3, #3332]	@ 0xd04
 80077e2:	f3bf 8f4f 	dsb	sy
 80077e6:	f3bf 8f6f 	isb	sy
	}
 80077ea:	bd10      	pop	{r4, pc}
				if( ( xTimeToWake < *pxPreviousWakeTime ) || ( xTimeToWake > xConstTickCount ) )
 80077ec:	b909      	cbnz	r1, 80077f2 <vTaskDelayUntil+0x7e>
 80077ee:	429a      	cmp	r2, r3
 80077f0:	d2ed      	bcs.n	80077ce <vTaskDelayUntil+0x5a>
			*pxPreviousWakeTime = xTimeToWake;
 80077f2:	6003      	str	r3, [r0, #0]
				prvAddCurrentTaskToDelayedList( xTimeToWake - xConstTickCount, pdFALSE );
 80077f4:	2100      	movs	r1, #0
 80077f6:	1a98      	subs	r0, r3, r2
 80077f8:	f7ff fcf8 	bl	80071ec <prvAddCurrentTaskToDelayedList>
 80077fc:	e7e8      	b.n	80077d0 <vTaskDelayUntil+0x5c>
 80077fe:	bf00      	nop
 8007800:	20001640 	.word	0x20001640
 8007804:	20001660 	.word	0x20001660

08007808 <vTaskDelay>:
	{
 8007808:	b508      	push	{r3, lr}
		if( xTicksToDelay > ( TickType_t ) 0U )
 800780a:	b950      	cbnz	r0, 8007822 <vTaskDelay+0x1a>
			portYIELD_WITHIN_API();
 800780c:	f04f 23e0 	mov.w	r3, #3758153728	@ 0xe000e000
 8007810:	f04f 5280 	mov.w	r2, #268435456	@ 0x10000000
 8007814:	f8c3 2d04 	str.w	r2, [r3, #3332]	@ 0xd04
 8007818:	f3bf 8f4f 	dsb	sy
 800781c:	f3bf 8f6f 	isb	sy
	}
 8007820:	bd08      	pop	{r3, pc}
			configASSERT( uxSchedulerSuspended == 0 );
 8007822:	4b0a      	ldr	r3, [pc, #40]	@ (800784c <vTaskDelay+0x44>)
 8007824:	6819      	ldr	r1, [r3, #0]
 8007826:	b141      	cbz	r1, 800783a <vTaskDelay+0x32>
 8007828:	f04f 0350 	mov.w	r3, #80	@ 0x50
 800782c:	f383 8811 	msr	BASEPRI, r3
 8007830:	f3bf 8f6f 	isb	sy
 8007834:	f3bf 8f4f 	dsb	sy
 8007838:	e7fe      	b.n	8007838 <vTaskDelay+0x30>
			vTaskSuspendAll();
 800783a:	f7ff fe7d 	bl	8007538 <vTaskSuspendAll>
				prvAddCurrentTaskToDelayedList( xTicksToDelay, pdFALSE );
 800783e:	f7ff fcd5 	bl	80071ec <prvAddCurrentTaskToDelayedList>
			xAlreadyYielded = xTaskResumeAll();
 8007842:	f7ff ff21 	bl	8007688 <xTaskResumeAll>
		if( xAlreadyYielded == pdFALSE )
 8007846:	2800      	cmp	r0, #0
 8007848:	d0e0      	beq.n	800780c <vTaskDelay+0x4>
 800784a:	e7e9      	b.n	8007820 <vTaskDelay+0x18>
 800784c:	20001640 	.word	0x20001640

08007850 <vTaskSwitchContext>:
	if( uxSchedulerSuspended != ( UBaseType_t ) pdFALSE )
 8007850:	4b19      	ldr	r3, [pc, #100]	@ (80078b8 <vTaskSwitchContext+0x68>)
 8007852:	681a      	ldr	r2, [r3, #0]
 8007854:	4b19      	ldr	r3, [pc, #100]	@ (80078bc <vTaskSwitchContext+0x6c>)
{
 8007856:	b510      	push	{r4, lr}
	if( uxSchedulerSuspended != ( UBaseType_t ) pdFALSE )
 8007858:	b112      	cbz	r2, 8007860 <vTaskSwitchContext+0x10>
		xYieldPending = pdTRUE;
 800785a:	2201      	movs	r2, #1
 800785c:	601a      	str	r2, [r3, #0]
}
 800785e:	bd10      	pop	{r4, pc}
		xYieldPending = pdFALSE;
 8007860:	601a      	str	r2, [r3, #0]
		taskSELECT_HIGHEST_PRIORITY_TASK(); /*lint !e9079 void * is used as this macro is used with timers and co-routines too.  Alignment is known to be fine as the type of the pointer stored and retrieved is the same. */
 8007862:	4b17      	ldr	r3, [pc, #92]	@ (80078c0 <vTaskSwitchContext+0x70>)
 8007864:	681a      	ldr	r2, [r3, #0]
		__asm volatile ( "clz %0, %1" : "=r" ( ucReturn ) : "r" ( ulBitmap ) : "memory" );
 8007866:	fab2 f282 	clz	r2, r2
 800786a:	b2d2      	uxtb	r2, r2
 800786c:	f1c2 021f 	rsb	r2, r2, #31
 8007870:	2314      	movs	r3, #20
 8007872:	4914      	ldr	r1, [pc, #80]	@ (80078c4 <vTaskSwitchContext+0x74>)
 8007874:	4353      	muls	r3, r2
 8007876:	18c8      	adds	r0, r1, r3
 8007878:	58cc      	ldr	r4, [r1, r3]
 800787a:	b944      	cbnz	r4, 800788e <vTaskSwitchContext+0x3e>
	__asm volatile
 800787c:	f04f 0350 	mov.w	r3, #80	@ 0x50
 8007880:	f383 8811 	msr	BASEPRI, r3
 8007884:	f3bf 8f6f 	isb	sy
 8007888:	f3bf 8f4f 	dsb	sy
 800788c:	e7fe      	b.n	800788c <vTaskSwitchContext+0x3c>
 800788e:	6844      	ldr	r4, [r0, #4]
 8007890:	3308      	adds	r3, #8
 8007892:	6864      	ldr	r4, [r4, #4]
 8007894:	6044      	str	r4, [r0, #4]
 8007896:	440b      	add	r3, r1
 8007898:	429c      	cmp	r4, r3
 800789a:	bf04      	itt	eq
 800789c:	6863      	ldreq	r3, [r4, #4]
 800789e:	6043      	streq	r3, [r0, #4]
 80078a0:	2314      	movs	r3, #20
 80078a2:	fb03 1102 	mla	r1, r3, r2, r1
 80078a6:	684b      	ldr	r3, [r1, #4]
 80078a8:	68da      	ldr	r2, [r3, #12]
 80078aa:	4b07      	ldr	r3, [pc, #28]	@ (80078c8 <vTaskSwitchContext+0x78>)
 80078ac:	601a      	str	r2, [r3, #0]
			_impure_ptr = &( pxCurrentTCB->xNewLib_reent );
 80078ae:	681b      	ldr	r3, [r3, #0]
 80078b0:	4a06      	ldr	r2, [pc, #24]	@ (80078cc <vTaskSwitchContext+0x7c>)
 80078b2:	3350      	adds	r3, #80	@ 0x50
 80078b4:	6013      	str	r3, [r2, #0]
}
 80078b6:	e7d2      	b.n	800785e <vTaskSwitchContext+0xe>
 80078b8:	20001640 	.word	0x20001640
 80078bc:	20001650 	.word	0x20001650
 80078c0:	2000165c 	.word	0x2000165c
 80078c4:	200016d8 	.word	0x200016d8
 80078c8:	20001764 	.word	0x20001764
 80078cc:	2000010c 	.word	0x2000010c

080078d0 <prvPortStartFirstTask>:
{
	/* Start the first task.  This also clears the bit that indicates the FPU is
	in use in case the FPU was used before the scheduler was started - which
	would otherwise result in the unnecessary leaving of space in the SVC stack
	for lazy saving of FPU registers. */
	__asm volatile(
 80078d0:	4808      	ldr	r0, [pc, #32]	@ (80078f4 <prvPortStartFirstTask+0x24>)
 80078d2:	6800      	ldr	r0, [r0, #0]
 80078d4:	6800      	ldr	r0, [r0, #0]
 80078d6:	f380 8808 	msr	MSP, r0
 80078da:	f04f 0000 	mov.w	r0, #0
 80078de:	f380 8814 	msr	CONTROL, r0
 80078e2:	b662      	cpsie	i
 80078e4:	b661      	cpsie	f
 80078e6:	f3bf 8f4f 	dsb	sy
 80078ea:	f3bf 8f6f 	isb	sy
 80078ee:	df00      	svc	0
 80078f0:	bf00      	nop
					" dsb					\n"
					" isb					\n"
					" svc 0					\n" /* System call to start first task. */
					" nop					\n"
				);
}
 80078f2:	0000      	.short	0x0000
 80078f4:	e000ed08 	.word	0xe000ed08

080078f8 <vPortEnableVFP>:
/*-----------------------------------------------------------*/

/* This is a naked function. */
static void vPortEnableVFP( void )
{
	__asm volatile
 80078f8:	f8df 000c 	ldr.w	r0, [pc, #12]	@ 8007908 <vPortEnableVFP+0x10>
 80078fc:	6801      	ldr	r1, [r0, #0]
 80078fe:	f441 0170 	orr.w	r1, r1, #15728640	@ 0xf00000
 8007902:	6001      	str	r1, [r0, #0]
 8007904:	4770      	bx	lr
		"								\n"
		"	orr r1, r1, #( 0xf << 20 )	\n" /* Enable CP10 and CP11 coprocessors, then save back. */
		"	str r1, [r0]				\n"
		"	bx r14						"
	);
}
 8007906:	0000      	.short	0x0000
 8007908:	e000ed88 	.word	0xe000ed88

0800790c <prvTaskExitError>:
{
 800790c:	b082      	sub	sp, #8
volatile uint32_t ulDummy = 0;
 800790e:	2300      	movs	r3, #0
 8007910:	9301      	str	r3, [sp, #4]
	configASSERT( uxCriticalNesting == ~0UL );
 8007912:	4b0d      	ldr	r3, [pc, #52]	@ (8007948 <prvTaskExitError+0x3c>)
 8007914:	681b      	ldr	r3, [r3, #0]
 8007916:	3301      	adds	r3, #1
 8007918:	d008      	beq.n	800792c <prvTaskExitError+0x20>
 800791a:	f04f 0350 	mov.w	r3, #80	@ 0x50
 800791e:	f383 8811 	msr	BASEPRI, r3
 8007922:	f3bf 8f6f 	isb	sy
 8007926:	f3bf 8f4f 	dsb	sy
 800792a:	e7fe      	b.n	800792a <prvTaskExitError+0x1e>
 800792c:	f04f 0350 	mov.w	r3, #80	@ 0x50
 8007930:	f383 8811 	msr	BASEPRI, r3
 8007934:	f3bf 8f6f 	isb	sy
 8007938:	f3bf 8f4f 	dsb	sy
	while( ulDummy == 0 )
 800793c:	9b01      	ldr	r3, [sp, #4]
 800793e:	2b00      	cmp	r3, #0
 8007940:	d0fc      	beq.n	800793c <prvTaskExitError+0x30>
}
 8007942:	b002      	add	sp, #8
 8007944:	4770      	bx	lr
 8007946:	bf00      	nop
 8007948:	20000098 	.word	0x20000098

0800794c <pxPortInitialiseStack>:
	*pxTopOfStack = portINITIAL_XPSR;	/* xPSR */
 800794c:	f04f 7380 	mov.w	r3, #16777216	@ 0x1000000
 8007950:	f840 3c04 	str.w	r3, [r0, #-4]
	*pxTopOfStack = ( StackType_t ) portTASK_RETURN_ADDRESS;	/* LR */
 8007954:	4b07      	ldr	r3, [pc, #28]	@ (8007974 <pxPortInitialiseStack+0x28>)
 8007956:	f840 3c0c 	str.w	r3, [r0, #-12]
	*pxTopOfStack = ( ( StackType_t ) pxCode ) & portSTART_ADDRESS_MASK;	/* PC */
 800795a:	f021 0101 	bic.w	r1, r1, #1
	*pxTopOfStack = portINITIAL_EXC_RETURN;
 800795e:	f06f 0302 	mvn.w	r3, #2
	*pxTopOfStack = ( ( StackType_t ) pxCode ) & portSTART_ADDRESS_MASK;	/* PC */
 8007962:	f840 1c08 	str.w	r1, [r0, #-8]
	*pxTopOfStack = ( StackType_t ) pvParameters;	/* R0 */
 8007966:	f840 2c20 	str.w	r2, [r0, #-32]
	*pxTopOfStack = portINITIAL_EXC_RETURN;
 800796a:	f840 3c24 	str.w	r3, [r0, #-36]
}
 800796e:	3844      	subs	r0, #68	@ 0x44
 8007970:	4770      	bx	lr
 8007972:	bf00      	nop
 8007974:	0800790d 	.word	0x0800790d
	...

08007980 <SVC_Handler>:
	__asm volatile (
 8007980:	4b07      	ldr	r3, [pc, #28]	@ (80079a0 <pxCurrentTCBConst2>)
 8007982:	6819      	ldr	r1, [r3, #0]
 8007984:	6808      	ldr	r0, [r1, #0]
 8007986:	e8b0 4ff0 	ldmia.w	r0!, {r4, r5, r6, r7, r8, r9, sl, fp, lr}
 800798a:	f380 8809 	msr	PSP, r0
 800798e:	f3bf 8f6f 	isb	sy
 8007992:	f04f 0000 	mov.w	r0, #0
 8007996:	f380 8811 	msr	BASEPRI, r0
 800799a:	4770      	bx	lr
 800799c:	f3af 8000 	nop.w

080079a0 <pxCurrentTCBConst2>:
 80079a0:	20001764 	.word	0x20001764

080079a4 <vPortEnterCritical>:
 80079a4:	f04f 0350 	mov.w	r3, #80	@ 0x50
 80079a8:	f383 8811 	msr	BASEPRI, r3
 80079ac:	f3bf 8f6f 	isb	sy
 80079b0:	f3bf 8f4f 	dsb	sy
	uxCriticalNesting++;
 80079b4:	4a0a      	ldr	r2, [pc, #40]	@ (80079e0 <vPortEnterCritical+0x3c>)
 80079b6:	6813      	ldr	r3, [r2, #0]
 80079b8:	3301      	adds	r3, #1
	if( uxCriticalNesting == 1 )
 80079ba:	2b01      	cmp	r3, #1
	uxCriticalNesting++;
 80079bc:	6013      	str	r3, [r2, #0]
	if( uxCriticalNesting == 1 )
 80079be:	d10e      	bne.n	80079de <vPortEnterCritical+0x3a>
		configASSERT( ( portNVIC_INT_CTRL_REG & portVECTACTIVE_MASK ) == 0 );
 80079c0:	f04f 23e0 	mov.w	r3, #3758153728	@ 0xe000e000
 80079c4:	f8d3 3d04 	ldr.w	r3, [r3, #3332]	@ 0xd04
 80079c8:	b2db      	uxtb	r3, r3
 80079ca:	b143      	cbz	r3, 80079de <vPortEnterCritical+0x3a>
 80079cc:	f04f 0350 	mov.w	r3, #80	@ 0x50
 80079d0:	f383 8811 	msr	BASEPRI, r3
 80079d4:	f3bf 8f6f 	isb	sy
 80079d8:	f3bf 8f4f 	dsb	sy
 80079dc:	e7fe      	b.n	80079dc <vPortEnterCritical+0x38>
}
 80079de:	4770      	bx	lr
 80079e0:	20000098 	.word	0x20000098

080079e4 <vPortExitCritical>:
	configASSERT( uxCriticalNesting );
 80079e4:	4a08      	ldr	r2, [pc, #32]	@ (8007a08 <vPortExitCritical+0x24>)
 80079e6:	6813      	ldr	r3, [r2, #0]
 80079e8:	b943      	cbnz	r3, 80079fc <vPortExitCritical+0x18>
 80079ea:	f04f 0350 	mov.w	r3, #80	@ 0x50
 80079ee:	f383 8811 	msr	BASEPRI, r3
 80079f2:	f3bf 8f6f 	isb	sy
 80079f6:	f3bf 8f4f 	dsb	sy
 80079fa:	e7fe      	b.n	80079fa <vPortExitCritical+0x16>
	uxCriticalNesting--;
 80079fc:	3b01      	subs	r3, #1
 80079fe:	6013      	str	r3, [r2, #0]
	if( uxCriticalNesting == 0 )
 8007a00:	b90b      	cbnz	r3, 8007a06 <vPortExitCritical+0x22>
}
/*-----------------------------------------------------------*/

portFORCE_INLINE static void vPortSetBASEPRI( uint32_t ulNewMaskValue )
{
	__asm volatile
 8007a02:	f383 8811 	msr	BASEPRI, r3
}
 8007a06:	4770      	bx	lr
 8007a08:	20000098 	.word	0x20000098
 8007a0c:	00000000 	.word	0x00000000

08007a10 <PendSV_Handler>:
	__asm volatile
 8007a10:	f3ef 8009 	mrs	r0, PSP
 8007a14:	f3bf 8f6f 	isb	sy
 8007a18:	4b15      	ldr	r3, [pc, #84]	@ (8007a70 <pxCurrentTCBConst>)
 8007a1a:	681a      	ldr	r2, [r3, #0]
 8007a1c:	f01e 0f10 	tst.w	lr, #16
 8007a20:	bf08      	it	eq
 8007a22:	ed20 8a10 	vstmdbeq	r0!, {s16-s31}
 8007a26:	e920 4ff0 	stmdb	r0!, {r4, r5, r6, r7, r8, r9, sl, fp, lr}
 8007a2a:	6010      	str	r0, [r2, #0]
 8007a2c:	e92d 0009 	stmdb	sp!, {r0, r3}
 8007a30:	f04f 0050 	mov.w	r0, #80	@ 0x50
 8007a34:	f380 8811 	msr	BASEPRI, r0
 8007a38:	f3bf 8f4f 	dsb	sy
 8007a3c:	f3bf 8f6f 	isb	sy
 8007a40:	f7ff ff06 	bl	8007850 <vTaskSwitchContext>
 8007a44:	f04f 0000 	mov.w	r0, #0
 8007a48:	f380 8811 	msr	BASEPRI, r0
 8007a4c:	bc09      	pop	{r0, r3}
 8007a4e:	6819      	ldr	r1, [r3, #0]
 8007a50:	6808      	ldr	r0, [r1, #0]
 8007a52:	e8b0 4ff0 	ldmia.w	r0!, {r4, r5, r6, r7, r8, r9, sl, fp, lr}
 8007a56:	f01e 0f10 	tst.w	lr, #16
 8007a5a:	bf08      	it	eq
 8007a5c:	ecb0 8a10 	vldmiaeq	r0!, {s16-s31}
 8007a60:	f380 8809 	msr	PSP, r0
 8007a64:	f3bf 8f6f 	isb	sy
 8007a68:	4770      	bx	lr
 8007a6a:	bf00      	nop
 8007a6c:	f3af 8000 	nop.w

08007a70 <pxCurrentTCBConst>:
 8007a70:	20001764 	.word	0x20001764

08007a74 <SysTick_Handler>:
{
 8007a74:	b508      	push	{r3, lr}
	__asm volatile
 8007a76:	f04f 0350 	mov.w	r3, #80	@ 0x50
 8007a7a:	f383 8811 	msr	BASEPRI, r3
 8007a7e:	f3bf 8f6f 	isb	sy
 8007a82:	f3bf 8f4f 	dsb	sy
		if( xTaskIncrementTick() != pdFALSE )
 8007a86:	f7ff fd65 	bl	8007554 <xTaskIncrementTick>
 8007a8a:	b128      	cbz	r0, 8007a98 <SysTick_Handler+0x24>
			portNVIC_INT_CTRL_REG = portNVIC_PENDSVSET_BIT;
 8007a8c:	f04f 23e0 	mov.w	r3, #3758153728	@ 0xe000e000
 8007a90:	f04f 5280 	mov.w	r2, #268435456	@ 0x10000000
 8007a94:	f8c3 2d04 	str.w	r2, [r3, #3332]	@ 0xd04
	__asm volatile
 8007a98:	2300      	movs	r3, #0
 8007a9a:	f383 8811 	msr	BASEPRI, r3
}
 8007a9e:	bd08      	pop	{r3, pc}

08007aa0 <vPortSetupTimerInterrupt>:
	portNVIC_SYSTICK_CTRL_REG = 0UL;
 8007aa0:	f04f 22e0 	mov.w	r2, #3758153728	@ 0xe000e000
 8007aa4:	2300      	movs	r3, #0
 8007aa6:	6113      	str	r3, [r2, #16]
	portNVIC_SYSTICK_CURRENT_VALUE_REG = 0UL;
 8007aa8:	6193      	str	r3, [r2, #24]
	portNVIC_SYSTICK_LOAD_REG = ( configSYSTICK_CLOCK_HZ / configTICK_RATE_HZ ) - 1UL;
 8007aaa:	4b05      	ldr	r3, [pc, #20]	@ (8007ac0 <vPortSetupTimerInterrupt+0x20>)
 8007aac:	f44f 717a 	mov.w	r1, #1000	@ 0x3e8
 8007ab0:	681b      	ldr	r3, [r3, #0]
 8007ab2:	fbb3 f3f1 	udiv	r3, r3, r1
 8007ab6:	3b01      	subs	r3, #1
 8007ab8:	6153      	str	r3, [r2, #20]
	portNVIC_SYSTICK_CTRL_REG = ( portNVIC_SYSTICK_CLK_BIT | portNVIC_SYSTICK_INT_BIT | portNVIC_SYSTICK_ENABLE_BIT );
 8007aba:	2307      	movs	r3, #7
 8007abc:	6113      	str	r3, [r2, #16]
}
 8007abe:	4770      	bx	lr
 8007ac0:	20000004 	.word	0x20000004

08007ac4 <xPortStartScheduler>:
	configASSERT( portCPUID != portCORTEX_M7_r0p1_ID );
 8007ac4:	f04f 23e0 	mov.w	r3, #3758153728	@ 0xe000e000
{
 8007ac8:	b537      	push	{r0, r1, r2, r4, r5, lr}
	configASSERT( portCPUID != portCORTEX_M7_r0p1_ID );
 8007aca:	f8d3 1d00 	ldr.w	r1, [r3, #3328]	@ 0xd00
 8007ace:	4a38      	ldr	r2, [pc, #224]	@ (8007bb0 <xPortStartScheduler+0xec>)
 8007ad0:	4291      	cmp	r1, r2
 8007ad2:	d108      	bne.n	8007ae6 <xPortStartScheduler+0x22>
	__asm volatile
 8007ad4:	f04f 0350 	mov.w	r3, #80	@ 0x50
 8007ad8:	f383 8811 	msr	BASEPRI, r3
 8007adc:	f3bf 8f6f 	isb	sy
 8007ae0:	f3bf 8f4f 	dsb	sy
 8007ae4:	e7fe      	b.n	8007ae4 <xPortStartScheduler+0x20>
	configASSERT( portCPUID != portCORTEX_M7_r0p0_ID );
 8007ae6:	f8d3 2d00 	ldr.w	r2, [r3, #3328]	@ 0xd00
 8007aea:	4b32      	ldr	r3, [pc, #200]	@ (8007bb4 <xPortStartScheduler+0xf0>)
 8007aec:	429a      	cmp	r2, r3
 8007aee:	d108      	bne.n	8007b02 <xPortStartScheduler+0x3e>
 8007af0:	f04f 0350 	mov.w	r3, #80	@ 0x50
 8007af4:	f383 8811 	msr	BASEPRI, r3
 8007af8:	f3bf 8f6f 	isb	sy
 8007afc:	f3bf 8f4f 	dsb	sy
 8007b00:	e7fe      	b.n	8007b00 <xPortStartScheduler+0x3c>
		ulOriginalPriority = *pucFirstUserPriorityRegister;
 8007b02:	4b2d      	ldr	r3, [pc, #180]	@ (8007bb8 <xPortStartScheduler+0xf4>)
 8007b04:	781a      	ldrb	r2, [r3, #0]
 8007b06:	b2d2      	uxtb	r2, r2
 8007b08:	9201      	str	r2, [sp, #4]
		*pucFirstUserPriorityRegister = portMAX_8_BIT_VALUE;
 8007b0a:	22ff      	movs	r2, #255	@ 0xff
 8007b0c:	701a      	strb	r2, [r3, #0]
		ucMaxPriorityValue = *pucFirstUserPriorityRegister;
 8007b0e:	781b      	ldrb	r3, [r3, #0]
		ucMaxSysCallPriority = configMAX_SYSCALL_INTERRUPT_PRIORITY & ucMaxPriorityValue;
 8007b10:	4a2a      	ldr	r2, [pc, #168]	@ (8007bbc <xPortStartScheduler+0xf8>)
		ucMaxPriorityValue = *pucFirstUserPriorityRegister;
 8007b12:	b2db      	uxtb	r3, r3
 8007b14:	f88d 3003 	strb.w	r3, [sp, #3]
		ucMaxSysCallPriority = configMAX_SYSCALL_INTERRUPT_PRIORITY & ucMaxPriorityValue;
 8007b18:	f89d 3003 	ldrb.w	r3, [sp, #3]
 8007b1c:	f003 0350 	and.w	r3, r3, #80	@ 0x50
 8007b20:	7013      	strb	r3, [r2, #0]
		ulMaxPRIGROUPValue = portMAX_PRIGROUP_BITS;
 8007b22:	4a27      	ldr	r2, [pc, #156]	@ (8007bc0 <xPortStartScheduler+0xfc>)
 8007b24:	2307      	movs	r3, #7
 8007b26:	6013      	str	r3, [r2, #0]
		while( ( ucMaxPriorityValue & portTOP_BIT_OF_BYTE ) == portTOP_BIT_OF_BYTE )
 8007b28:	f89d 1003 	ldrb.w	r1, [sp, #3]
			ulMaxPRIGROUPValue--;
 8007b2c:	6813      	ldr	r3, [r2, #0]
		while( ( ucMaxPriorityValue & portTOP_BIT_OF_BYTE ) == portTOP_BIT_OF_BYTE )
 8007b2e:	0609      	lsls	r1, r1, #24
 8007b30:	d40a      	bmi.n	8007b48 <xPortStartScheduler+0x84>
			configASSERT( ( portMAX_PRIGROUP_BITS - ulMaxPRIGROUPValue ) == configPRIO_BITS );
 8007b32:	2b03      	cmp	r3, #3
 8007b34:	d011      	beq.n	8007b5a <xPortStartScheduler+0x96>
 8007b36:	f04f 0350 	mov.w	r3, #80	@ 0x50
 8007b3a:	f383 8811 	msr	BASEPRI, r3
 8007b3e:	f3bf 8f6f 	isb	sy
 8007b42:	f3bf 8f4f 	dsb	sy
 8007b46:	e7fe      	b.n	8007b46 <xPortStartScheduler+0x82>
			ulMaxPRIGROUPValue--;
 8007b48:	3b01      	subs	r3, #1
 8007b4a:	6013      	str	r3, [r2, #0]
			ucMaxPriorityValue <<= ( uint8_t ) 0x01;
 8007b4c:	f89d 3003 	ldrb.w	r3, [sp, #3]
 8007b50:	005b      	lsls	r3, r3, #1
 8007b52:	b2db      	uxtb	r3, r3
 8007b54:	f88d 3003 	strb.w	r3, [sp, #3]
 8007b58:	e7e6      	b.n	8007b28 <xPortStartScheduler+0x64>
		ulMaxPRIGROUPValue &= portPRIORITY_GROUP_MASK;
 8007b5a:	f44f 7340 	mov.w	r3, #768	@ 0x300
 8007b5e:	6013      	str	r3, [r2, #0]
		*pucFirstUserPriorityRegister = ulOriginalPriority;
 8007b60:	9b01      	ldr	r3, [sp, #4]
 8007b62:	4a15      	ldr	r2, [pc, #84]	@ (8007bb8 <xPortStartScheduler+0xf4>)
	portNVIC_SYSPRI2_REG |= portNVIC_PENDSV_PRI;
 8007b64:	f04f 24e0 	mov.w	r4, #3758153728	@ 0xe000e000
		*pucFirstUserPriorityRegister = ulOriginalPriority;
 8007b68:	b2db      	uxtb	r3, r3
 8007b6a:	7013      	strb	r3, [r2, #0]
	portNVIC_SYSPRI2_REG |= portNVIC_PENDSV_PRI;
 8007b6c:	f8d4 3d20 	ldr.w	r3, [r4, #3360]	@ 0xd20
 8007b70:	f443 0370 	orr.w	r3, r3, #15728640	@ 0xf00000
 8007b74:	f8c4 3d20 	str.w	r3, [r4, #3360]	@ 0xd20
	portNVIC_SYSPRI2_REG |= portNVIC_SYSTICK_PRI;
 8007b78:	f8d4 3d20 	ldr.w	r3, [r4, #3360]	@ 0xd20
 8007b7c:	f043 4370 	orr.w	r3, r3, #4026531840	@ 0xf0000000
 8007b80:	f8c4 3d20 	str.w	r3, [r4, #3360]	@ 0xd20
	vPortSetupTimerInterrupt();
 8007b84:	f7ff ff8c 	bl	8007aa0 <vPortSetupTimerInterrupt>
	uxCriticalNesting = 0;
 8007b88:	4b0e      	ldr	r3, [pc, #56]	@ (8007bc4 <xPortStartScheduler+0x100>)
 8007b8a:	2500      	movs	r5, #0
 8007b8c:	601d      	str	r5, [r3, #0]
	vPortEnableVFP();
 8007b8e:	f7ff feb3 	bl	80078f8 <vPortEnableVFP>
	*( portFPCCR ) |= portASPEN_AND_LSPEN_BITS;
 8007b92:	f8d4 3f34 	ldr.w	r3, [r4, #3892]	@ 0xf34
 8007b96:	f043 4340 	orr.w	r3, r3, #3221225472	@ 0xc0000000
 8007b9a:	f8c4 3f34 	str.w	r3, [r4, #3892]	@ 0xf34
	prvPortStartFirstTask();
 8007b9e:	f7ff fe97 	bl	80078d0 <prvPortStartFirstTask>
	vTaskSwitchContext();
 8007ba2:	f7ff fe55 	bl	8007850 <vTaskSwitchContext>
	prvTaskExitError();
 8007ba6:	f7ff feb1 	bl	800790c <prvTaskExitError>
}
 8007baa:	4628      	mov	r0, r5
 8007bac:	b003      	add	sp, #12
 8007bae:	bd30      	pop	{r4, r5, pc}
 8007bb0:	410fc271 	.word	0x410fc271
 8007bb4:	410fc270 	.word	0x410fc270
 8007bb8:	e000e400 	.word	0xe000e400
 8007bbc:	2000176c 	.word	0x2000176c
 8007bc0:	20001768 	.word	0x20001768
 8007bc4:	20000098 	.word	0x20000098

08007bc8 <prvInsertBlockIntoFreeList>:
	xBlockAllocatedBit = ( ( size_t ) 1 ) << ( ( sizeof( size_t ) * heapBITS_PER_BYTE ) - 1 );
}
/*-----------------------------------------------------------*/

static void prvInsertBlockIntoFreeList( BlockLink_t *pxBlockToInsert )
{
 8007bc8:	b510      	push	{r4, lr}
BlockLink_t *pxIterator;
uint8_t *puc;

	/* Iterate through the list until a block is found that has a higher address
	than the block being inserted. */
	for( pxIterator = &xStart; pxIterator->pxNextFreeBlock < pxBlockToInsert; pxIterator = pxIterator->pxNextFreeBlock )
 8007bca:	4b10      	ldr	r3, [pc, #64]	@ (8007c0c <prvInsertBlockIntoFreeList+0x44>)
 8007bcc:	461a      	mov	r2, r3
 8007bce:	681b      	ldr	r3, [r3, #0]
 8007bd0:	4283      	cmp	r3, r0
 8007bd2:	d3fb      	bcc.n	8007bcc <prvInsertBlockIntoFreeList+0x4>
	}

	/* Do the block being inserted, and the block it is being inserted after
	make a contiguous block of memory? */
	puc = ( uint8_t * ) pxIterator;
	if( ( puc + pxIterator->xBlockSize ) == ( uint8_t * ) pxBlockToInsert )
 8007bd4:	6854      	ldr	r4, [r2, #4]
 8007bd6:	1911      	adds	r1, r2, r4
 8007bd8:	4288      	cmp	r0, r1
	{
		pxIterator->xBlockSize += pxBlockToInsert->xBlockSize;
 8007bda:	bf01      	itttt	eq
 8007bdc:	6841      	ldreq	r1, [r0, #4]
		pxBlockToInsert = pxIterator;
 8007bde:	4610      	moveq	r0, r2
		pxIterator->xBlockSize += pxBlockToInsert->xBlockSize;
 8007be0:	1909      	addeq	r1, r1, r4
 8007be2:	6051      	streq	r1, [r2, #4]
	}

	/* Do the block being inserted, and the block it is being inserted before
	make a contiguous block of memory? */
	puc = ( uint8_t * ) pxBlockToInsert;
	if( ( puc + pxBlockToInsert->xBlockSize ) == ( uint8_t * ) pxIterator->pxNextFreeBlock )
 8007be4:	6844      	ldr	r4, [r0, #4]
 8007be6:	1901      	adds	r1, r0, r4
 8007be8:	428b      	cmp	r3, r1
 8007bea:	d10c      	bne.n	8007c06 <prvInsertBlockIntoFreeList+0x3e>
	{
		if( pxIterator->pxNextFreeBlock != pxEnd )
 8007bec:	4908      	ldr	r1, [pc, #32]	@ (8007c10 <prvInsertBlockIntoFreeList+0x48>)
 8007bee:	6809      	ldr	r1, [r1, #0]
 8007bf0:	428b      	cmp	r3, r1
 8007bf2:	d003      	beq.n	8007bfc <prvInsertBlockIntoFreeList+0x34>
		{
			/* Form one big block from the two blocks. */
			pxBlockToInsert->xBlockSize += pxIterator->pxNextFreeBlock->xBlockSize;
 8007bf4:	6859      	ldr	r1, [r3, #4]
 8007bf6:	4421      	add	r1, r4
 8007bf8:	6041      	str	r1, [r0, #4]
			pxBlockToInsert->pxNextFreeBlock = pxIterator->pxNextFreeBlock->pxNextFreeBlock;
 8007bfa:	6819      	ldr	r1, [r3, #0]
		}
		else
		{
			pxBlockToInsert->pxNextFreeBlock = pxEnd;
 8007bfc:	6001      	str	r1, [r0, #0]

	/* If the block being inserted plugged a gab, so was merged with the block
	before and the block after, then it's pxNextFreeBlock pointer will have
	already been set, and should not be set here as that would make it point
	to itself. */
	if( pxIterator != pxBlockToInsert )
 8007bfe:	4290      	cmp	r0, r2
	{
		pxIterator->pxNextFreeBlock = pxBlockToInsert;
 8007c00:	bf18      	it	ne
 8007c02:	6010      	strne	r0, [r2, #0]
	}
	else
	{
		mtCOVERAGE_TEST_MARKER();
	}
}
 8007c04:	bd10      	pop	{r4, pc}
 8007c06:	4619      	mov	r1, r3
 8007c08:	e7f8      	b.n	8007bfc <prvInsertBlockIntoFreeList+0x34>
 8007c0a:	bf00      	nop
 8007c0c:	20001788 	.word	0x20001788
 8007c10:	20001784 	.word	0x20001784

08007c14 <pvPortMalloc>:
{
 8007c14:	e92d 41f0 	stmdb	sp!, {r4, r5, r6, r7, r8, lr}
 8007c18:	4604      	mov	r4, r0
	vTaskSuspendAll();
 8007c1a:	f7ff fc8d 	bl	8007538 <vTaskSuspendAll>
		if( pxEnd == NULL )
 8007c1e:	4942      	ldr	r1, [pc, #264]	@ (8007d28 <pvPortMalloc+0x114>)
 8007c20:	4d42      	ldr	r5, [pc, #264]	@ (8007d2c <pvPortMalloc+0x118>)
 8007c22:	680b      	ldr	r3, [r1, #0]
 8007c24:	bb0b      	cbnz	r3, 8007c6a <pvPortMalloc+0x56>
	uxAddress = ( size_t ) ucHeap;
 8007c26:	4a42      	ldr	r2, [pc, #264]	@ (8007d30 <pvPortMalloc+0x11c>)
	if( ( uxAddress & portBYTE_ALIGNMENT_MASK ) != 0 )
 8007c28:	0756      	lsls	r6, r2, #29
		uxAddress += ( portBYTE_ALIGNMENT - 1 );
 8007c2a:	bf1f      	itttt	ne
 8007c2c:	1dd0      	addne	r0, r2, #7
		uxAddress &= ~( ( size_t ) portBYTE_ALIGNMENT_MASK );
 8007c2e:	f020 0007 	bicne.w	r0, r0, #7
		xTotalHeapSize -= uxAddress - ( size_t ) ucHeap;
 8007c32:	f502 5270 	addne.w	r2, r2, #15360	@ 0x3c00
 8007c36:	1a13      	subne	r3, r2, r0
size_t xTotalHeapSize = configTOTAL_HEAP_SIZE;
 8007c38:	bf0c      	ite	eq
 8007c3a:	f44f 5370 	moveq.w	r3, #15360	@ 0x3c00
		uxAddress &= ~( ( size_t ) portBYTE_ALIGNMENT_MASK );
 8007c3e:	4602      	movne	r2, r0
	uxAddress = ( ( size_t ) pucAlignedHeap ) + xTotalHeapSize;
 8007c40:	4413      	add	r3, r2
	xStart.pxNextFreeBlock = ( void * ) pucAlignedHeap;
 8007c42:	4e3c      	ldr	r6, [pc, #240]	@ (8007d34 <pvPortMalloc+0x120>)
	uxAddress -= xHeapStructSize;
 8007c44:	3b08      	subs	r3, #8
	uxAddress &= ~( ( size_t ) portBYTE_ALIGNMENT_MASK );
 8007c46:	f023 0307 	bic.w	r3, r3, #7
	xStart.xBlockSize = ( size_t ) 0;
 8007c4a:	2000      	movs	r0, #0
 8007c4c:	6070      	str	r0, [r6, #4]
	xStart.pxNextFreeBlock = ( void * ) pucAlignedHeap;
 8007c4e:	6032      	str	r2, [r6, #0]
	pxEnd->pxNextFreeBlock = NULL;
 8007c50:	e9c3 0000 	strd	r0, r0, [r3]
	pxFirstFreeBlock->xBlockSize = uxAddress - ( size_t ) pxFirstFreeBlock;
 8007c54:	1a98      	subs	r0, r3, r2
	pxFirstFreeBlock->pxNextFreeBlock = pxEnd;
 8007c56:	e9c2 3000 	strd	r3, r0, [r2]
	pxEnd = ( void * ) uxAddress;
 8007c5a:	600b      	str	r3, [r1, #0]
	xMinimumEverFreeBytesRemaining = pxFirstFreeBlock->xBlockSize;
 8007c5c:	4b36      	ldr	r3, [pc, #216]	@ (8007d38 <pvPortMalloc+0x124>)
 8007c5e:	6018      	str	r0, [r3, #0]
	xFreeBytesRemaining = pxFirstFreeBlock->xBlockSize;
 8007c60:	4b36      	ldr	r3, [pc, #216]	@ (8007d3c <pvPortMalloc+0x128>)
 8007c62:	6018      	str	r0, [r3, #0]
	xBlockAllocatedBit = ( ( size_t ) 1 ) << ( ( sizeof( size_t ) * heapBITS_PER_BYTE ) - 1 );
 8007c64:	f04f 4300 	mov.w	r3, #2147483648	@ 0x80000000
 8007c68:	602b      	str	r3, [r5, #0]
		if( ( xWantedSize & xBlockAllocatedBit ) == 0 )
 8007c6a:	682e      	ldr	r6, [r5, #0]
 8007c6c:	4226      	tst	r6, r4
 8007c6e:	d155      	bne.n	8007d1c <pvPortMalloc+0x108>
			if( xWantedSize > 0 )
 8007c70:	2c00      	cmp	r4, #0
 8007c72:	d046      	beq.n	8007d02 <pvPortMalloc+0xee>
				xWantedSize += xHeapStructSize;
 8007c74:	f104 0308 	add.w	r3, r4, #8
				if( ( xWantedSize & portBYTE_ALIGNMENT_MASK ) != 0x00 )
 8007c78:	0760      	lsls	r0, r4, #29
					xWantedSize += ( portBYTE_ALIGNMENT - ( xWantedSize & portBYTE_ALIGNMENT_MASK ) );
 8007c7a:	bf1c      	itt	ne
 8007c7c:	f023 0307 	bicne.w	r3, r3, #7
 8007c80:	3308      	addne	r3, #8
			if( ( xWantedSize > 0 ) && ( xWantedSize <= xFreeBytesRemaining ) )
 8007c82:	2b00      	cmp	r3, #0
 8007c84:	d04a      	beq.n	8007d1c <pvPortMalloc+0x108>
 8007c86:	4f2d      	ldr	r7, [pc, #180]	@ (8007d3c <pvPortMalloc+0x128>)
 8007c88:	683c      	ldr	r4, [r7, #0]
 8007c8a:	429c      	cmp	r4, r3
 8007c8c:	d346      	bcc.n	8007d1c <pvPortMalloc+0x108>
				pxBlock = xStart.pxNextFreeBlock;
 8007c8e:	4a29      	ldr	r2, [pc, #164]	@ (8007d34 <pvPortMalloc+0x120>)
 8007c90:	6815      	ldr	r5, [r2, #0]
				while( ( pxBlock->xBlockSize < xWantedSize ) && ( pxBlock->pxNextFreeBlock != NULL ) )
 8007c92:	6868      	ldr	r0, [r5, #4]
 8007c94:	4298      	cmp	r0, r3
 8007c96:	d204      	bcs.n	8007ca2 <pvPortMalloc+0x8e>
 8007c98:	f8d5 c000 	ldr.w	ip, [r5]
 8007c9c:	f1bc 0f00 	cmp.w	ip, #0
 8007ca0:	d115      	bne.n	8007cce <pvPortMalloc+0xba>
				if( pxBlock != pxEnd )
 8007ca2:	6809      	ldr	r1, [r1, #0]
 8007ca4:	42a9      	cmp	r1, r5
 8007ca6:	d039      	beq.n	8007d1c <pvPortMalloc+0x108>
					pxPreviousBlock->pxNextFreeBlock = pxBlock->pxNextFreeBlock;
 8007ca8:	6829      	ldr	r1, [r5, #0]
					pvReturn = ( void * ) ( ( ( uint8_t * ) pxPreviousBlock->pxNextFreeBlock ) + xHeapStructSize );
 8007caa:	f8d2 8000 	ldr.w	r8, [r2]
					pxPreviousBlock->pxNextFreeBlock = pxBlock->pxNextFreeBlock;
 8007cae:	6011      	str	r1, [r2, #0]
					if( ( pxBlock->xBlockSize - xWantedSize ) > heapMINIMUM_BLOCK_SIZE )
 8007cb0:	1ac2      	subs	r2, r0, r3
 8007cb2:	2a10      	cmp	r2, #16
 8007cb4:	d912      	bls.n	8007cdc <pvPortMalloc+0xc8>
						pxNewBlockLink = ( void * ) ( ( ( uint8_t * ) pxBlock ) + xWantedSize );
 8007cb6:	18e8      	adds	r0, r5, r3
						configASSERT( ( ( ( size_t ) pxNewBlockLink ) & portBYTE_ALIGNMENT_MASK ) == 0 );
 8007cb8:	0741      	lsls	r1, r0, #29
 8007cba:	d00b      	beq.n	8007cd4 <pvPortMalloc+0xc0>
 8007cbc:	f04f 0350 	mov.w	r3, #80	@ 0x50
 8007cc0:	f383 8811 	msr	BASEPRI, r3
 8007cc4:	f3bf 8f6f 	isb	sy
 8007cc8:	f3bf 8f4f 	dsb	sy
 8007ccc:	e7fe      	b.n	8007ccc <pvPortMalloc+0xb8>
					pxPreviousBlock = pxBlock;
 8007cce:	462a      	mov	r2, r5
					pxBlock = pxBlock->pxNextFreeBlock;
 8007cd0:	4665      	mov	r5, ip
 8007cd2:	e7de      	b.n	8007c92 <pvPortMalloc+0x7e>
						pxNewBlockLink->xBlockSize = pxBlock->xBlockSize - xWantedSize;
 8007cd4:	6042      	str	r2, [r0, #4]
						pxBlock->xBlockSize = xWantedSize;
 8007cd6:	606b      	str	r3, [r5, #4]
						prvInsertBlockIntoFreeList( pxNewBlockLink );
 8007cd8:	f7ff ff76 	bl	8007bc8 <prvInsertBlockIntoFreeList>
					xFreeBytesRemaining -= pxBlock->xBlockSize;
 8007cdc:	686a      	ldr	r2, [r5, #4]
					if( xFreeBytesRemaining < xMinimumEverFreeBytesRemaining )
 8007cde:	4916      	ldr	r1, [pc, #88]	@ (8007d38 <pvPortMalloc+0x124>)
					xFreeBytesRemaining -= pxBlock->xBlockSize;
 8007ce0:	1aa4      	subs	r4, r4, r2
					pxBlock->xBlockSize |= xBlockAllocatedBit;
 8007ce2:	4316      	orrs	r6, r2
					xNumberOfSuccessfulAllocations++;
 8007ce4:	4a16      	ldr	r2, [pc, #88]	@ (8007d40 <pvPortMalloc+0x12c>)
					if( xFreeBytesRemaining < xMinimumEverFreeBytesRemaining )
 8007ce6:	6808      	ldr	r0, [r1, #0]
					xFreeBytesRemaining -= pxBlock->xBlockSize;
 8007ce8:	603c      	str	r4, [r7, #0]
					pxBlock->pxNextFreeBlock = NULL;
 8007cea:	2300      	movs	r3, #0
 8007cec:	602b      	str	r3, [r5, #0]
					xNumberOfSuccessfulAllocations++;
 8007cee:	6813      	ldr	r3, [r2, #0]
					pxBlock->xBlockSize |= xBlockAllocatedBit;
 8007cf0:	606e      	str	r6, [r5, #4]
					if( xFreeBytesRemaining < xMinimumEverFreeBytesRemaining )
 8007cf2:	4284      	cmp	r4, r0
					xNumberOfSuccessfulAllocations++;
 8007cf4:	f103 0301 	add.w	r3, r3, #1
						xMinimumEverFreeBytesRemaining = xFreeBytesRemaining;
 8007cf8:	bf38      	it	cc
 8007cfa:	600c      	strcc	r4, [r1, #0]
					xNumberOfSuccessfulAllocations++;
 8007cfc:	6013      	str	r3, [r2, #0]
					pvReturn = ( void * ) ( ( ( uint8_t * ) pxPreviousBlock->pxNextFreeBlock ) + xHeapStructSize );
 8007cfe:	f108 0408 	add.w	r4, r8, #8
	( void ) xTaskResumeAll();
 8007d02:	f7ff fcc1 	bl	8007688 <xTaskResumeAll>
	configASSERT( ( ( ( size_t ) pvReturn ) & ( size_t ) portBYTE_ALIGNMENT_MASK ) == 0 );
 8007d06:	0763      	lsls	r3, r4, #29
 8007d08:	d00a      	beq.n	8007d20 <pvPortMalloc+0x10c>
 8007d0a:	f04f 0350 	mov.w	r3, #80	@ 0x50
 8007d0e:	f383 8811 	msr	BASEPRI, r3
 8007d12:	f3bf 8f6f 	isb	sy
 8007d16:	f3bf 8f4f 	dsb	sy
 8007d1a:	e7fe      	b.n	8007d1a <pvPortMalloc+0x106>
void *pvReturn = NULL;
 8007d1c:	2400      	movs	r4, #0
 8007d1e:	e7f0      	b.n	8007d02 <pvPortMalloc+0xee>
}
 8007d20:	4620      	mov	r0, r4
 8007d22:	e8bd 81f0 	ldmia.w	sp!, {r4, r5, r6, r7, r8, pc}
 8007d26:	bf00      	nop
 8007d28:	20001784 	.word	0x20001784
 8007d2c:	20001770 	.word	0x20001770
 8007d30:	20001790 	.word	0x20001790
 8007d34:	20001788 	.word	0x20001788
 8007d38:	2000177c 	.word	0x2000177c
 8007d3c:	20001780 	.word	0x20001780
 8007d40:	20001778 	.word	0x20001778

08007d44 <vPortFree>:
{
 8007d44:	b510      	push	{r4, lr}
	if( pv != NULL )
 8007d46:	4604      	mov	r4, r0
 8007d48:	b390      	cbz	r0, 8007db0 <vPortFree+0x6c>
		configASSERT( ( pxLink->xBlockSize & xBlockAllocatedBit ) != 0 );
 8007d4a:	4a1a      	ldr	r2, [pc, #104]	@ (8007db4 <vPortFree+0x70>)
 8007d4c:	f850 3c04 	ldr.w	r3, [r0, #-4]
 8007d50:	6812      	ldr	r2, [r2, #0]
 8007d52:	4213      	tst	r3, r2
 8007d54:	d108      	bne.n	8007d68 <vPortFree+0x24>
 8007d56:	f04f 0350 	mov.w	r3, #80	@ 0x50
 8007d5a:	f383 8811 	msr	BASEPRI, r3
 8007d5e:	f3bf 8f6f 	isb	sy
 8007d62:	f3bf 8f4f 	dsb	sy
 8007d66:	e7fe      	b.n	8007d66 <vPortFree+0x22>
		configASSERT( pxLink->pxNextFreeBlock == NULL );
 8007d68:	f850 1c08 	ldr.w	r1, [r0, #-8]
 8007d6c:	b141      	cbz	r1, 8007d80 <vPortFree+0x3c>
 8007d6e:	f04f 0350 	mov.w	r3, #80	@ 0x50
 8007d72:	f383 8811 	msr	BASEPRI, r3
 8007d76:	f3bf 8f6f 	isb	sy
 8007d7a:	f3bf 8f4f 	dsb	sy
 8007d7e:	e7fe      	b.n	8007d7e <vPortFree+0x3a>
				pxLink->xBlockSize &= ~xBlockAllocatedBit;
 8007d80:	ea23 0302 	bic.w	r3, r3, r2
 8007d84:	f840 3c04 	str.w	r3, [r0, #-4]
				vTaskSuspendAll();
 8007d88:	f7ff fbd6 	bl	8007538 <vTaskSuspendAll>
					xFreeBytesRemaining += pxLink->xBlockSize;
 8007d8c:	4a0a      	ldr	r2, [pc, #40]	@ (8007db8 <vPortFree+0x74>)
 8007d8e:	f854 3c04 	ldr.w	r3, [r4, #-4]
 8007d92:	6811      	ldr	r1, [r2, #0]
					prvInsertBlockIntoFreeList( ( ( BlockLink_t * ) pxLink ) );
 8007d94:	f1a4 0008 	sub.w	r0, r4, #8
					xFreeBytesRemaining += pxLink->xBlockSize;
 8007d98:	440b      	add	r3, r1
 8007d9a:	6013      	str	r3, [r2, #0]
					prvInsertBlockIntoFreeList( ( ( BlockLink_t * ) pxLink ) );
 8007d9c:	f7ff ff14 	bl	8007bc8 <prvInsertBlockIntoFreeList>
					xNumberOfSuccessfulFrees++;
 8007da0:	4a06      	ldr	r2, [pc, #24]	@ (8007dbc <vPortFree+0x78>)
 8007da2:	6813      	ldr	r3, [r2, #0]
}
 8007da4:	e8bd 4010 	ldmia.w	sp!, {r4, lr}
					xNumberOfSuccessfulFrees++;
 8007da8:	3301      	adds	r3, #1
 8007daa:	6013      	str	r3, [r2, #0]
				( void ) xTaskResumeAll();
 8007dac:	f7ff bc6c 	b.w	8007688 <xTaskResumeAll>
}
 8007db0:	bd10      	pop	{r4, pc}
 8007db2:	bf00      	nop
 8007db4:	20001770 	.word	0x20001770
 8007db8:	20001780 	.word	0x20001780
 8007dbc:	20001774 	.word	0x20001774

08007dc0 <MX_USB_DEVICE_Init>:
/**
  * Init USB device Library, add supported class and start the library
  * @retval None
  */
void MX_USB_DEVICE_Init(void)
{
 8007dc0:	b508      	push	{r3, lr}
  /* USER CODE BEGIN USB_DEVICE_Init_PreTreatment */

  /* USER CODE END USB_DEVICE_Init_PreTreatment */

  /* Init Device Library, add supported class and start the library. */
  if (USBD_Init(&hUsbDeviceFS, &FS_Desc, DEVICE_FS) != USBD_OK)
 8007dc2:	490f      	ldr	r1, [pc, #60]	@ (8007e00 <MX_USB_DEVICE_Init+0x40>)
 8007dc4:	480f      	ldr	r0, [pc, #60]	@ (8007e04 <MX_USB_DEVICE_Init+0x44>)
 8007dc6:	2200      	movs	r2, #0
 8007dc8:	f7fe fcc8 	bl	800675c <USBD_Init>
 8007dcc:	b108      	cbz	r0, 8007dd2 <MX_USB_DEVICE_Init+0x12>
  {
    Error_Handler();
 8007dce:	f7fa fbbd 	bl	800254c <Error_Handler>
  }
  if (USBD_RegisterClass(&hUsbDeviceFS, &USBD_CDC) != USBD_OK)
 8007dd2:	490d      	ldr	r1, [pc, #52]	@ (8007e08 <MX_USB_DEVICE_Init+0x48>)
 8007dd4:	480b      	ldr	r0, [pc, #44]	@ (8007e04 <MX_USB_DEVICE_Init+0x44>)
 8007dd6:	f7fe fcd4 	bl	8006782 <USBD_RegisterClass>
 8007dda:	b108      	cbz	r0, 8007de0 <MX_USB_DEVICE_Init+0x20>
  {
    Error_Handler();
 8007ddc:	f7fa fbb6 	bl	800254c <Error_Handler>
  }
  if (USBD_CDC_RegisterInterface(&hUsbDeviceFS, &USBD_Interface_fops_FS) != USBD_OK)
 8007de0:	490a      	ldr	r1, [pc, #40]	@ (8007e0c <MX_USB_DEVICE_Init+0x4c>)
 8007de2:	4808      	ldr	r0, [pc, #32]	@ (8007e04 <MX_USB_DEVICE_Init+0x44>)
 8007de4:	f7fe fc64 	bl	80066b0 <USBD_CDC_RegisterInterface>
 8007de8:	b108      	cbz	r0, 8007dee <MX_USB_DEVICE_Init+0x2e>
  {
    Error_Handler();
 8007dea:	f7fa fbaf 	bl	800254c <Error_Handler>
  }
  if (USBD_Start(&hUsbDeviceFS) != USBD_OK)
 8007dee:	4805      	ldr	r0, [pc, #20]	@ (8007e04 <MX_USB_DEVICE_Init+0x44>)
 8007df0:	f7fe fce0 	bl	80067b4 <USBD_Start>
 8007df4:	b118      	cbz	r0, 8007dfe <MX_USB_DEVICE_Init+0x3e>
  }

  /* USER CODE BEGIN USB_DEVICE_Init_PostTreatment */

  /* USER CODE END USB_DEVICE_Init_PostTreatment */
}
 8007df6:	e8bd 4008 	ldmia.w	sp!, {r3, lr}
    Error_Handler();
 8007dfa:	f7fa bba7 	b.w	800254c <Error_Handler>
}
 8007dfe:	bd08      	pop	{r3, pc}
 8007e00:	200000e4 	.word	0x200000e4
 8007e04:	20005390 	.word	0x20005390
 8007e08:	20000054 	.word	0x20000054
 8007e0c:	2000009c 	.word	0x2000009c

08007e10 <CDC_DeInit_FS>:
static int8_t CDC_DeInit_FS(void)
{
  /* USER CODE BEGIN 4 */
  return (USBD_OK);
  /* USER CODE END 4 */
}
 8007e10:	2000      	movs	r0, #0
 8007e12:	4770      	bx	lr

08007e14 <CDC_Control_FS>:
    break;
  }

  return (USBD_OK);
  /* USER CODE END 5 */
}
 8007e14:	2000      	movs	r0, #0
 8007e16:	4770      	bx	lr

08007e18 <CDC_TransmitCplt_FS>:
  UNUSED(Buf);
  UNUSED(Len);
  UNUSED(epnum);
  /* USER CODE END 13 */
  return result;
}
 8007e18:	2000      	movs	r0, #0
 8007e1a:	4770      	bx	lr

08007e1c <CDC_Receive_FS>:
{
 8007e1c:	b538      	push	{r3, r4, r5, lr}
   USBD_CDC_SetRxBuffer(&hUsbDeviceFS, &Buf[0]);
 8007e1e:	4d07      	ldr	r5, [pc, #28]	@ (8007e3c <CDC_Receive_FS+0x20>)
   CDC_ReceiveCallback(Buf, *Len);
 8007e20:	6809      	ldr	r1, [r1, #0]
{
 8007e22:	4604      	mov	r4, r0
   CDC_ReceiveCallback(Buf, *Len);
 8007e24:	f7f9 fed6 	bl	8001bd4 <CDC_ReceiveCallback>
   USBD_CDC_SetRxBuffer(&hUsbDeviceFS, &Buf[0]);
 8007e28:	4621      	mov	r1, r4
 8007e2a:	4628      	mov	r0, r5
 8007e2c:	f7fe fc59 	bl	80066e2 <USBD_CDC_SetRxBuffer>
   USBD_CDC_ReceivePacket(&hUsbDeviceFS);
 8007e30:	4628      	mov	r0, r5
 8007e32:	f7fe fc7d 	bl	8006730 <USBD_CDC_ReceivePacket>
}
 8007e36:	2000      	movs	r0, #0
 8007e38:	bd38      	pop	{r3, r4, r5, pc}
 8007e3a:	bf00      	nop
 8007e3c:	20005390 	.word	0x20005390

08007e40 <CDC_Init_FS>:
{
 8007e40:	b510      	push	{r4, lr}
  USBD_CDC_SetTxBuffer(&hUsbDeviceFS, UserTxBufferFS, 0);
 8007e42:	4c06      	ldr	r4, [pc, #24]	@ (8007e5c <CDC_Init_FS+0x1c>)
 8007e44:	4906      	ldr	r1, [pc, #24]	@ (8007e60 <CDC_Init_FS+0x20>)
 8007e46:	2200      	movs	r2, #0
 8007e48:	4620      	mov	r0, r4
 8007e4a:	f7fe fc3c 	bl	80066c6 <USBD_CDC_SetTxBuffer>
  USBD_CDC_SetRxBuffer(&hUsbDeviceFS, UserRxBufferFS);
 8007e4e:	4905      	ldr	r1, [pc, #20]	@ (8007e64 <CDC_Init_FS+0x24>)
 8007e50:	4620      	mov	r0, r4
 8007e52:	f7fe fc46 	bl	80066e2 <USBD_CDC_SetRxBuffer>
}
 8007e56:	2000      	movs	r0, #0
 8007e58:	bd10      	pop	{r4, pc}
 8007e5a:	bf00      	nop
 8007e5c:	20005390 	.word	0x20005390
 8007e60:	2000566c 	.word	0x2000566c
 8007e64:	20005e6c 	.word	0x20005e6c

08007e68 <CDC_Transmit_FS>:
{
 8007e68:	b510      	push	{r4, lr}
  USBD_CDC_HandleTypeDef *hcdc = (USBD_CDC_HandleTypeDef*)hUsbDeviceFS.pClassData;
 8007e6a:	4c09      	ldr	r4, [pc, #36]	@ (8007e90 <CDC_Transmit_FS+0x28>)
 8007e6c:	f8d4 32bc 	ldr.w	r3, [r4, #700]	@ 0x2bc
  if (hcdc->TxState != 0){
 8007e70:	f8d3 3214 	ldr.w	r3, [r3, #532]	@ 0x214
{
 8007e74:	460a      	mov	r2, r1
  if (hcdc->TxState != 0){
 8007e76:	b943      	cbnz	r3, 8007e8a <CDC_Transmit_FS+0x22>
  USBD_CDC_SetTxBuffer(&hUsbDeviceFS, Buf, Len);
 8007e78:	4601      	mov	r1, r0
 8007e7a:	4620      	mov	r0, r4
 8007e7c:	f7fe fc23 	bl	80066c6 <USBD_CDC_SetTxBuffer>
  result = USBD_CDC_TransmitPacket(&hUsbDeviceFS);
 8007e80:	4620      	mov	r0, r4
}
 8007e82:	e8bd 4010 	ldmia.w	sp!, {r4, lr}
  result = USBD_CDC_TransmitPacket(&hUsbDeviceFS);
 8007e86:	f7fe bc38 	b.w	80066fa <USBD_CDC_TransmitPacket>
}
 8007e8a:	2001      	movs	r0, #1
 8007e8c:	bd10      	pop	{r4, pc}
 8007e8e:	bf00      	nop
 8007e90:	20005390 	.word	0x20005390

08007e94 <USBD_FS_DeviceDescriptor>:
  * @retval Pointer to descriptor buffer
  */
uint8_t * USBD_FS_DeviceDescriptor(USBD_SpeedTypeDef speed, uint16_t *length)
{
  UNUSED(speed);
  *length = sizeof(USBD_FS_DeviceDesc);
 8007e94:	2312      	movs	r3, #18
  return USBD_FS_DeviceDesc;
}
 8007e96:	4801      	ldr	r0, [pc, #4]	@ (8007e9c <USBD_FS_DeviceDescriptor+0x8>)
  *length = sizeof(USBD_FS_DeviceDesc);
 8007e98:	800b      	strh	r3, [r1, #0]
}
 8007e9a:	4770      	bx	lr
 8007e9c:	200000d0 	.word	0x200000d0

08007ea0 <USBD_FS_LangIDStrDescriptor>:
  * @retval Pointer to descriptor buffer
  */
uint8_t * USBD_FS_LangIDStrDescriptor(USBD_SpeedTypeDef speed, uint16_t *length)
{
  UNUSED(speed);
  *length = sizeof(USBD_LangIDDesc);
 8007ea0:	2304      	movs	r3, #4
  return USBD_LangIDDesc;
}
 8007ea2:	4801      	ldr	r0, [pc, #4]	@ (8007ea8 <USBD_FS_LangIDStrDescriptor+0x8>)
  *length = sizeof(USBD_LangIDDesc);
 8007ea4:	800b      	strh	r3, [r1, #0]
}
 8007ea6:	4770      	bx	lr
 8007ea8:	200000cc 	.word	0x200000cc

08007eac <IntToUnicode>:
  * @param  pbuf: pointer to the buffer
  * @param  len: buffer length
  * @retval None
  */
static void IntToUnicode(uint32_t value, uint8_t * pbuf, uint8_t len)
{
 8007eac:	2300      	movs	r3, #0
 8007eae:	b570      	push	{r4, r5, r6, lr}
      pbuf[2 * idx] = (value >> 28) + 'A' - 10;
    }

    value = value << 4;

    pbuf[2 * idx + 1] = 0;
 8007eb0:	1c4d      	adds	r5, r1, #1
 8007eb2:	461e      	mov	r6, r3
      pbuf[2 * idx] = (value >> 28) + '0';
 8007eb4:	0f04      	lsrs	r4, r0, #28
    if (((value >> 28)) < 0xA)
 8007eb6:	f1b0 4f20 	cmp.w	r0, #2684354560	@ 0xa0000000
      pbuf[2 * idx] = (value >> 28) + '0';
 8007eba:	bf34      	ite	cc
 8007ebc:	3430      	addcc	r4, #48	@ 0x30
      pbuf[2 * idx] = (value >> 28) + 'A' - 10;
 8007ebe:	3437      	addcs	r4, #55	@ 0x37
      pbuf[2 * idx] = (value >> 28) + '0';
 8007ec0:	f801 4013 	strb.w	r4, [r1, r3, lsl #1]
    pbuf[2 * idx + 1] = 0;
 8007ec4:	f805 6013 	strb.w	r6, [r5, r3, lsl #1]
  for (idx = 0; idx < len; idx++)
 8007ec8:	3301      	adds	r3, #1
 8007eca:	b2dc      	uxtb	r4, r3
 8007ecc:	42a2      	cmp	r2, r4
    value = value << 4;
 8007ece:	ea4f 1000 	mov.w	r0, r0, lsl #4
  for (idx = 0; idx < len; idx++)
 8007ed2:	d8ef      	bhi.n	8007eb4 <IntToUnicode+0x8>
  }
}
 8007ed4:	bd70      	pop	{r4, r5, r6, pc}
	...

08007ed8 <USBD_FS_SerialStrDescriptor>:
  *length = USB_SIZ_STRING_SERIAL;
 8007ed8:	231a      	movs	r3, #26
{
 8007eda:	b510      	push	{r4, lr}
  *length = USB_SIZ_STRING_SERIAL;
 8007edc:	800b      	strh	r3, [r1, #0]
  deviceserial0 = *(uint32_t *) DEVICE_ID1;
 8007ede:	4b0a      	ldr	r3, [pc, #40]	@ (8007f08 <USBD_FS_SerialStrDescriptor+0x30>)
 8007ee0:	f8d3 0a10 	ldr.w	r0, [r3, #2576]	@ 0xa10
  deviceserial0 += deviceserial2;
 8007ee4:	f8d3 2a18 	ldr.w	r2, [r3, #2584]	@ 0xa18
  if (deviceserial0 != 0)
 8007ee8:	1880      	adds	r0, r0, r2
 8007eea:	d00a      	beq.n	8007f02 <USBD_FS_SerialStrDescriptor+0x2a>
  deviceserial1 = *(uint32_t *) DEVICE_ID2;
 8007eec:	f8d3 4a14 	ldr.w	r4, [r3, #2580]	@ 0xa14
    IntToUnicode(deviceserial0, &USBD_StringSerial[2], 8);
 8007ef0:	4906      	ldr	r1, [pc, #24]	@ (8007f0c <USBD_FS_SerialStrDescriptor+0x34>)
 8007ef2:	2208      	movs	r2, #8
 8007ef4:	f7ff ffda 	bl	8007eac <IntToUnicode>
    IntToUnicode(deviceserial1, &USBD_StringSerial[18], 4);
 8007ef8:	2204      	movs	r2, #4
 8007efa:	3110      	adds	r1, #16
 8007efc:	4620      	mov	r0, r4
 8007efe:	f7ff ffd5 	bl	8007eac <IntToUnicode>
}
 8007f02:	4803      	ldr	r0, [pc, #12]	@ (8007f10 <USBD_FS_SerialStrDescriptor+0x38>)
 8007f04:	bd10      	pop	{r4, pc}
 8007f06:	bf00      	nop
 8007f08:	1fff7000 	.word	0x1fff7000
 8007f0c:	200000b2 	.word	0x200000b2
 8007f10:	200000b0 	.word	0x200000b0

08007f14 <USBD_FS_ManufacturerStrDescriptor>:
{
 8007f14:	b510      	push	{r4, lr}
  USBD_GetString((uint8_t *)USBD_MANUFACTURER_STRING, USBD_StrDesc, length);
 8007f16:	4c04      	ldr	r4, [pc, #16]	@ (8007f28 <USBD_FS_ManufacturerStrDescriptor+0x14>)
 8007f18:	4804      	ldr	r0, [pc, #16]	@ (8007f2c <USBD_FS_ManufacturerStrDescriptor+0x18>)
{
 8007f1a:	460a      	mov	r2, r1
  USBD_GetString((uint8_t *)USBD_MANUFACTURER_STRING, USBD_StrDesc, length);
 8007f1c:	4621      	mov	r1, r4
 8007f1e:	f7ff f818 	bl	8006f52 <USBD_GetString>
}
 8007f22:	4620      	mov	r0, r4
 8007f24:	bd10      	pop	{r4, pc}
 8007f26:	bf00      	nop
 8007f28:	2000666c 	.word	0x2000666c
 8007f2c:	0800c256 	.word	0x0800c256

08007f30 <USBD_FS_ProductStrDescriptor>:
{
 8007f30:	b510      	push	{r4, lr}
    USBD_GetString((uint8_t *)USBD_PRODUCT_STRING_FS, USBD_StrDesc, length);
 8007f32:	4c04      	ldr	r4, [pc, #16]	@ (8007f44 <USBD_FS_ProductStrDescriptor+0x14>)
 8007f34:	4804      	ldr	r0, [pc, #16]	@ (8007f48 <USBD_FS_ProductStrDescriptor+0x18>)
{
 8007f36:	460a      	mov	r2, r1
    USBD_GetString((uint8_t *)USBD_PRODUCT_STRING_FS, USBD_StrDesc, length);
 8007f38:	4621      	mov	r1, r4
 8007f3a:	f7ff f80a 	bl	8006f52 <USBD_GetString>
}
 8007f3e:	4620      	mov	r0, r4
 8007f40:	bd10      	pop	{r4, pc}
 8007f42:	bf00      	nop
 8007f44:	2000666c 	.word	0x2000666c
 8007f48:	0800c269 	.word	0x0800c269

08007f4c <USBD_FS_ConfigStrDescriptor>:
{
 8007f4c:	b510      	push	{r4, lr}
    USBD_GetString((uint8_t *)USBD_CONFIGURATION_STRING_FS, USBD_StrDesc, length);
 8007f4e:	4c04      	ldr	r4, [pc, #16]	@ (8007f60 <USBD_FS_ConfigStrDescriptor+0x14>)
 8007f50:	4804      	ldr	r0, [pc, #16]	@ (8007f64 <USBD_FS_ConfigStrDescriptor+0x18>)
{
 8007f52:	460a      	mov	r2, r1
    USBD_GetString((uint8_t *)USBD_CONFIGURATION_STRING_FS, USBD_StrDesc, length);
 8007f54:	4621      	mov	r1, r4
 8007f56:	f7fe fffc 	bl	8006f52 <USBD_GetString>
}
 8007f5a:	4620      	mov	r0, r4
 8007f5c:	bd10      	pop	{r4, pc}
 8007f5e:	bf00      	nop
 8007f60:	2000666c 	.word	0x2000666c
 8007f64:	0800c27f 	.word	0x0800c27f

08007f68 <USBD_FS_InterfaceStrDescriptor>:
{
 8007f68:	b510      	push	{r4, lr}
    USBD_GetString((uint8_t *)USBD_INTERFACE_STRING_FS, USBD_StrDesc, length);
 8007f6a:	4c04      	ldr	r4, [pc, #16]	@ (8007f7c <USBD_FS_InterfaceStrDescriptor+0x14>)
 8007f6c:	4804      	ldr	r0, [pc, #16]	@ (8007f80 <USBD_FS_InterfaceStrDescriptor+0x18>)
{
 8007f6e:	460a      	mov	r2, r1
    USBD_GetString((uint8_t *)USBD_INTERFACE_STRING_FS, USBD_StrDesc, length);
 8007f70:	4621      	mov	r1, r4
 8007f72:	f7fe ffee 	bl	8006f52 <USBD_GetString>
}
 8007f76:	4620      	mov	r0, r4
 8007f78:	bd10      	pop	{r4, pc}
 8007f7a:	bf00      	nop
 8007f7c:	2000666c 	.word	0x2000666c
 8007f80:	0800c28a 	.word	0x0800c28a

08007f84 <HAL_PCD_MspInit>:
                       LL Driver Callbacks (PCD -> USB Device Library)
*******************************************************************************/
/* MSP Init */

void HAL_PCD_MspInit(PCD_HandleTypeDef* pcdHandle)
{
 8007f84:	b530      	push	{r4, r5, lr}
 8007f86:	4604      	mov	r4, r0
 8007f88:	b089      	sub	sp, #36	@ 0x24
  GPIO_InitTypeDef GPIO_InitStruct = {0};
 8007f8a:	2214      	movs	r2, #20
 8007f8c:	2100      	movs	r1, #0
 8007f8e:	a803      	add	r0, sp, #12
 8007f90:	f001 ff85 	bl	8009e9e <memset>
  if(pcdHandle->Instance==USB_OTG_FS)
 8007f94:	6823      	ldr	r3, [r4, #0]
 8007f96:	f1b3 4fa0 	cmp.w	r3, #1342177280	@ 0x50000000
 8007f9a:	d12e      	bne.n	8007ffa <HAL_PCD_MspInit+0x76>
  {
  /* USER CODE BEGIN USB_OTG_FS_MspInit 0 */

  /* USER CODE END USB_OTG_FS_MspInit 0 */

    __HAL_RCC_GPIOA_CLK_ENABLE();
 8007f9c:	4c18      	ldr	r4, [pc, #96]	@ (8008000 <HAL_PCD_MspInit+0x7c>)
    GPIO_InitStruct.Pin = GPIO_PIN_11|GPIO_PIN_12;
    GPIO_InitStruct.Mode = GPIO_MODE_AF_PP;
    GPIO_InitStruct.Pull = GPIO_NOPULL;
    GPIO_InitStruct.Speed = GPIO_SPEED_FREQ_VERY_HIGH;
    GPIO_InitStruct.Alternate = GPIO_AF10_OTG_FS;
    HAL_GPIO_Init(GPIOA, &GPIO_InitStruct);
 8007f9e:	4819      	ldr	r0, [pc, #100]	@ (8008004 <HAL_PCD_MspInit+0x80>)
    __HAL_RCC_GPIOA_CLK_ENABLE();
 8007fa0:	2500      	movs	r5, #0
 8007fa2:	9501      	str	r5, [sp, #4]
 8007fa4:	6b23      	ldr	r3, [r4, #48]	@ 0x30
 8007fa6:	f043 0301 	orr.w	r3, r3, #1
 8007faa:	6323      	str	r3, [r4, #48]	@ 0x30
 8007fac:	6b23      	ldr	r3, [r4, #48]	@ 0x30
 8007fae:	f003 0301 	and.w	r3, r3, #1
 8007fb2:	9301      	str	r3, [sp, #4]
    GPIO_InitStruct.Mode = GPIO_MODE_AF_PP;
 8007fb4:	f44f 52c0 	mov.w	r2, #6144	@ 0x1800
    __HAL_RCC_GPIOA_CLK_ENABLE();
 8007fb8:	9b01      	ldr	r3, [sp, #4]
    GPIO_InitStruct.Mode = GPIO_MODE_AF_PP;
 8007fba:	2302      	movs	r3, #2
 8007fbc:	e9cd 2303 	strd	r2, r3, [sp, #12]
    GPIO_InitStruct.Alternate = GPIO_AF10_OTG_FS;
 8007fc0:	2103      	movs	r1, #3
 8007fc2:	230a      	movs	r3, #10
 8007fc4:	e9cd 1306 	strd	r1, r3, [sp, #24]
    HAL_GPIO_Init(GPIOA, &GPIO_InitStruct);
 8007fc8:	a903      	add	r1, sp, #12
 8007fca:	f7fb f8ad 	bl	8003128 <HAL_GPIO_Init>

    /* Peripheral clock enable */
    __HAL_RCC_USB_OTG_FS_CLK_ENABLE();
 8007fce:	6b63      	ldr	r3, [r4, #52]	@ 0x34
 8007fd0:	f043 0380 	orr.w	r3, r3, #128	@ 0x80
 8007fd4:	6363      	str	r3, [r4, #52]	@ 0x34
 8007fd6:	9502      	str	r5, [sp, #8]
 8007fd8:	6c63      	ldr	r3, [r4, #68]	@ 0x44
 8007fda:	f443 4380 	orr.w	r3, r3, #16384	@ 0x4000
 8007fde:	6463      	str	r3, [r4, #68]	@ 0x44
 8007fe0:	6c63      	ldr	r3, [r4, #68]	@ 0x44
 8007fe2:	f403 4380 	and.w	r3, r3, #16384	@ 0x4000
 8007fe6:	9302      	str	r3, [sp, #8]

    /* Peripheral interrupt init */
    HAL_NVIC_SetPriority(OTG_FS_IRQn, 5, 0);
 8007fe8:	2043      	movs	r0, #67	@ 0x43
 8007fea:	462a      	mov	r2, r5
 8007fec:	2105      	movs	r1, #5
    __HAL_RCC_USB_OTG_FS_CLK_ENABLE();
 8007fee:	9b02      	ldr	r3, [sp, #8]
    HAL_NVIC_SetPriority(OTG_FS_IRQn, 5, 0);
 8007ff0:	f7fa fe7e 	bl	8002cf0 <HAL_NVIC_SetPriority>
    HAL_NVIC_EnableIRQ(OTG_FS_IRQn);
 8007ff4:	2043      	movs	r0, #67	@ 0x43
 8007ff6:	f7fa fead 	bl	8002d54 <HAL_NVIC_EnableIRQ>
  /* USER CODE BEGIN USB_OTG_FS_MspInit 1 */

  /* USER CODE END USB_OTG_FS_MspInit 1 */
  }
}
 8007ffa:	b009      	add	sp, #36	@ 0x24
 8007ffc:	bd30      	pop	{r4, r5, pc}
 8007ffe:	bf00      	nop
 8008000:	40023800 	.word	0x40023800
 8008004:	40020000 	.word	0x40020000

08008008 <HAL_PCD_SetupStageCallback>:
static void PCD_SetupStageCallback(PCD_HandleTypeDef *hpcd)
#else
void HAL_PCD_SetupStageCallback(PCD_HandleTypeDef *hpcd)
#endif /* USE_HAL_PCD_REGISTER_CALLBACKS */
{
  USBD_LL_SetupStage((USBD_HandleTypeDef*)hpcd->pData, (uint8_t *)hpcd->Setup);
 8008008:	f200 419c 	addw	r1, r0, #1180	@ 0x49c
 800800c:	f8d0 04e0 	ldr.w	r0, [r0, #1248]	@ 0x4e0
 8008010:	f7fe bbe2 	b.w	80067d8 <USBD_LL_SetupStage>

08008014 <HAL_PCD_DataOutStageCallback>:
static void PCD_DataOutStageCallback(PCD_HandleTypeDef *hpcd, uint8_t epnum)
#else
void HAL_PCD_DataOutStageCallback(PCD_HandleTypeDef *hpcd, uint8_t epnum)
#endif /* USE_HAL_PCD_REGISTER_CALLBACKS */
{
  USBD_LL_DataOutStage((USBD_HandleTypeDef*)hpcd->pData, epnum, hpcd->OUT_ep[epnum].xfer_buff);
 8008014:	2324      	movs	r3, #36	@ 0x24
 8008016:	fb03 0301 	mla	r3, r3, r1, r0
 800801a:	f8d0 04e0 	ldr.w	r0, [r0, #1248]	@ 0x4e0
 800801e:	f8d3 2260 	ldr.w	r2, [r3, #608]	@ 0x260
 8008022:	f7fe bc09 	b.w	8006838 <USBD_LL_DataOutStage>

08008026 <HAL_PCD_DataInStageCallback>:
static void PCD_DataInStageCallback(PCD_HandleTypeDef *hpcd, uint8_t epnum)
#else
void HAL_PCD_DataInStageCallback(PCD_HandleTypeDef *hpcd, uint8_t epnum)
#endif /* USE_HAL_PCD_REGISTER_CALLBACKS */
{
  USBD_LL_DataInStage((USBD_HandleTypeDef*)hpcd->pData, epnum, hpcd->IN_ep[epnum].xfer_buff);
 8008026:	2324      	movs	r3, #36	@ 0x24
 8008028:	fb03 0301 	mla	r3, r3, r1, r0
 800802c:	f8d0 04e0 	ldr.w	r0, [r0, #1248]	@ 0x4e0
 8008030:	6a1a      	ldr	r2, [r3, #32]
 8008032:	f7fe bc3b 	b.w	80068ac <USBD_LL_DataInStage>

08008036 <HAL_PCD_SOFCallback>:
static void PCD_SOFCallback(PCD_HandleTypeDef *hpcd)
#else
void HAL_PCD_SOFCallback(PCD_HandleTypeDef *hpcd)
#endif /* USE_HAL_PCD_REGISTER_CALLBACKS */
{
  USBD_LL_SOF((USBD_HandleTypeDef*)hpcd->pData);
 8008036:	f8d0 04e0 	ldr.w	r0, [r0, #1248]	@ 0x4e0
 800803a:	f7fe bcd7 	b.w	80069ec <USBD_LL_SOF>

0800803e <HAL_PCD_ResetCallback>:
#if (USE_HAL_PCD_REGISTER_CALLBACKS == 1U)
static void PCD_ResetCallback(PCD_HandleTypeDef *hpcd)
#else
void HAL_PCD_ResetCallback(PCD_HandleTypeDef *hpcd)
#endif /* USE_HAL_PCD_REGISTER_CALLBACKS */
{
 800803e:	b510      	push	{r4, lr}
   USBD_SpeedTypeDef speed = USBD_SPEED_FULL;

  if ( hpcd->Init.speed != PCD_SPEED_FULL)
 8008040:	79c3      	ldrb	r3, [r0, #7]
 8008042:	2b02      	cmp	r3, #2
{
 8008044:	4604      	mov	r4, r0
  if ( hpcd->Init.speed != PCD_SPEED_FULL)
 8008046:	d001      	beq.n	800804c <HAL_PCD_ResetCallback+0xe>
  {
    Error_Handler();
 8008048:	f7fa fa80 	bl	800254c <Error_Handler>
  }
    /* Set Speed. */
  USBD_LL_SetSpeed((USBD_HandleTypeDef*)hpcd->pData, speed);
 800804c:	f8d4 04e0 	ldr.w	r0, [r4, #1248]	@ 0x4e0
 8008050:	2101      	movs	r1, #1
 8008052:	f7fe fcaf 	bl	80069b4 <USBD_LL_SetSpeed>

  /* Reset Device. */
  USBD_LL_Reset((USBD_HandleTypeDef*)hpcd->pData);
 8008056:	f8d4 04e0 	ldr.w	r0, [r4, #1248]	@ 0x4e0
}
 800805a:	e8bd 4010 	ldmia.w	sp!, {r4, lr}
  USBD_LL_Reset((USBD_HandleTypeDef*)hpcd->pData);
 800805e:	f7fe bc79 	b.w	8006954 <USBD_LL_Reset>
	...

08008064 <HAL_PCD_SuspendCallback>:
#if (USE_HAL_PCD_REGISTER_CALLBACKS == 1U)
static void PCD_SuspendCallback(PCD_HandleTypeDef *hpcd)
#else
void HAL_PCD_SuspendCallback(PCD_HandleTypeDef *hpcd)
#endif /* USE_HAL_PCD_REGISTER_CALLBACKS */
{
 8008064:	b510      	push	{r4, lr}
 8008066:	4604      	mov	r4, r0
  /* Inform USB library that core enters in suspend Mode. */
  USBD_LL_Suspend((USBD_HandleTypeDef*)hpcd->pData);
 8008068:	f8d0 04e0 	ldr.w	r0, [r0, #1248]	@ 0x4e0
 800806c:	f7fe fca5 	bl	80069ba <USBD_LL_Suspend>
  __HAL_PCD_GATE_PHYCLOCK(hpcd);
 8008070:	6822      	ldr	r2, [r4, #0]
 8008072:	f8d2 3e00 	ldr.w	r3, [r2, #3584]	@ 0xe00
 8008076:	f043 0301 	orr.w	r3, r3, #1
 800807a:	f8c2 3e00 	str.w	r3, [r2, #3584]	@ 0xe00
  /* Enter in STOP mode. */
  /* USER CODE BEGIN 2 */
  if (hpcd->Init.low_power_enable)
 800807e:	7ae3      	ldrb	r3, [r4, #11]
 8008080:	b123      	cbz	r3, 800808c <HAL_PCD_SuspendCallback+0x28>
  {
    /* Set SLEEPDEEP bit and SleepOnExit of Cortex System Control Register. */
    SCB->SCR |= (uint32_t)((uint32_t)(SCB_SCR_SLEEPDEEP_Msk | SCB_SCR_SLEEPONEXIT_Msk));
 8008082:	4a03      	ldr	r2, [pc, #12]	@ (8008090 <HAL_PCD_SuspendCallback+0x2c>)
 8008084:	6913      	ldr	r3, [r2, #16]
 8008086:	f043 0306 	orr.w	r3, r3, #6
 800808a:	6113      	str	r3, [r2, #16]
  }
  /* USER CODE END 2 */
}
 800808c:	bd10      	pop	{r4, pc}
 800808e:	bf00      	nop
 8008090:	e000ed00 	.word	0xe000ed00

08008094 <HAL_PCD_ResumeCallback>:
#endif /* USE_HAL_PCD_REGISTER_CALLBACKS */
{
  /* USER CODE BEGIN 3 */

  /* USER CODE END 3 */
  USBD_LL_Resume((USBD_HandleTypeDef*)hpcd->pData);
 8008094:	f8d0 04e0 	ldr.w	r0, [r0, #1248]	@ 0x4e0
 8008098:	f7fe bc9d 	b.w	80069d6 <USBD_LL_Resume>

0800809c <HAL_PCD_ISOOUTIncompleteCallback>:
static void PCD_ISOOUTIncompleteCallback(PCD_HandleTypeDef *hpcd, uint8_t epnum)
#else
void HAL_PCD_ISOOUTIncompleteCallback(PCD_HandleTypeDef *hpcd, uint8_t epnum)
#endif /* USE_HAL_PCD_REGISTER_CALLBACKS */
{
  USBD_LL_IsoOUTIncomplete((USBD_HandleTypeDef*)hpcd->pData, epnum);
 800809c:	f8d0 04e0 	ldr.w	r0, [r0, #1248]	@ 0x4e0
 80080a0:	f7fe bcc4 	b.w	8006a2c <USBD_LL_IsoOUTIncomplete>

080080a4 <HAL_PCD_ISOINIncompleteCallback>:
static void PCD_ISOINIncompleteCallback(PCD_HandleTypeDef *hpcd, uint8_t epnum)
#else
void HAL_PCD_ISOINIncompleteCallback(PCD_HandleTypeDef *hpcd, uint8_t epnum)
#endif /* USE_HAL_PCD_REGISTER_CALLBACKS */
{
  USBD_LL_IsoINIncomplete((USBD_HandleTypeDef*)hpcd->pData, epnum);
 80080a4:	f8d0 04e0 	ldr.w	r0, [r0, #1248]	@ 0x4e0
 80080a8:	f7fe bcad 	b.w	8006a06 <USBD_LL_IsoINIncomplete>

080080ac <HAL_PCD_ConnectCallback>:
static void PCD_ConnectCallback(PCD_HandleTypeDef *hpcd)
#else
void HAL_PCD_ConnectCallback(PCD_HandleTypeDef *hpcd)
#endif /* USE_HAL_PCD_REGISTER_CALLBACKS */
{
  USBD_LL_DevConnected((USBD_HandleTypeDef*)hpcd->pData);
 80080ac:	f8d0 04e0 	ldr.w	r0, [r0, #1248]	@ 0x4e0
 80080b0:	f7fe bccf 	b.w	8006a52 <USBD_LL_DevConnected>

080080b4 <HAL_PCD_DisconnectCallback>:
static void PCD_DisconnectCallback(PCD_HandleTypeDef *hpcd)
#else
void HAL_PCD_DisconnectCallback(PCD_HandleTypeDef *hpcd)
#endif /* USE_HAL_PCD_REGISTER_CALLBACKS */
{
  USBD_LL_DevDisconnected((USBD_HandleTypeDef*)hpcd->pData);
 80080b4:	f8d0 04e0 	ldr.w	r0, [r0, #1248]	@ 0x4e0
 80080b8:	f7fe bccd 	b.w	8006a56 <USBD_LL_DevDisconnected>

080080bc <USBD_LL_Init>:
  * @brief  Initializes the low level portion of the device driver.
  * @param  pdev: Device handle
  * @retval USBD status
  */
USBD_StatusTypeDef USBD_LL_Init(USBD_HandleTypeDef *pdev)
{
 80080bc:	b508      	push	{r3, lr}
  /* Init USB Ip. */
  if (pdev->id == DEVICE_FS) {
 80080be:	7802      	ldrb	r2, [r0, #0]
{
 80080c0:	4603      	mov	r3, r0
  if (pdev->id == DEVICE_FS) {
 80080c2:	bb22      	cbnz	r2, 800810e <USBD_LL_Init+0x52>
  /* Link the driver to the stack. */
  hpcd_USB_OTG_FS.pData = pdev;
 80080c4:	4813      	ldr	r0, [pc, #76]	@ (8008114 <USBD_LL_Init+0x58>)
 80080c6:	f8c0 34e0 	str.w	r3, [r0, #1248]	@ 0x4e0
  pdev->pData = &hpcd_USB_OTG_FS;
 80080ca:	f8c3 02c8 	str.w	r0, [r3, #712]	@ 0x2c8

  hpcd_USB_OTG_FS.Instance = USB_OTG_FS;
 80080ce:	f04f 43a0 	mov.w	r3, #1342177280	@ 0x50000000
 80080d2:	6003      	str	r3, [r0, #0]
  hpcd_USB_OTG_FS.Init.dev_endpoints = 4;
 80080d4:	2304      	movs	r3, #4
 80080d6:	7103      	strb	r3, [r0, #4]
  hpcd_USB_OTG_FS.Init.speed = PCD_SPEED_FULL;
  hpcd_USB_OTG_FS.Init.dma_enable = DISABLE;
 80080d8:	f44f 7300 	mov.w	r3, #512	@ 0x200
 80080dc:	80c3      	strh	r3, [r0, #6]
  hpcd_USB_OTG_FS.Init.phy_itface = PCD_PHY_EMBEDDED;
 80080de:	2302      	movs	r3, #2
 80080e0:	7243      	strb	r3, [r0, #9]
  hpcd_USB_OTG_FS.Init.Sof_enable = DISABLE;
 80080e2:	8142      	strh	r2, [r0, #10]
  hpcd_USB_OTG_FS.Init.low_power_enable = DISABLE;
  hpcd_USB_OTG_FS.Init.lpm_enable = DISABLE;
 80080e4:	7302      	strb	r2, [r0, #12]
  hpcd_USB_OTG_FS.Init.vbus_sensing_enable = DISABLE;
 80080e6:	81c2      	strh	r2, [r0, #14]
  hpcd_USB_OTG_FS.Init.use_dedicated_ep1 = DISABLE;
  if (HAL_PCD_Init(&hpcd_USB_OTG_FS) != HAL_OK)
 80080e8:	f7fb fde4 	bl	8003cb4 <HAL_PCD_Init>
 80080ec:	b108      	cbz	r0, 80080f2 <USBD_LL_Init+0x36>
  {
    Error_Handler( );
 80080ee:	f7fa fa2d 	bl	800254c <Error_Handler>
  HAL_PCD_RegisterDataOutStageCallback(&hpcd_USB_OTG_FS, PCD_DataOutStageCallback);
  HAL_PCD_RegisterDataInStageCallback(&hpcd_USB_OTG_FS, PCD_DataInStageCallback);
  HAL_PCD_RegisterIsoOutIncpltCallback(&hpcd_USB_OTG_FS, PCD_ISOOUTIncompleteCallback);
  HAL_PCD_RegisterIsoInIncpltCallback(&hpcd_USB_OTG_FS, PCD_ISOINIncompleteCallback);
#endif /* USE_HAL_PCD_REGISTER_CALLBACKS */
  HAL_PCDEx_SetRxFiFo(&hpcd_USB_OTG_FS, 0x80);
 80080f2:	2180      	movs	r1, #128	@ 0x80
 80080f4:	4807      	ldr	r0, [pc, #28]	@ (8008114 <USBD_LL_Init+0x58>)
 80080f6:	f7fc fb0a 	bl	800470e <HAL_PCDEx_SetRxFiFo>
  HAL_PCDEx_SetTxFiFo(&hpcd_USB_OTG_FS, 0, 0x40);
 80080fa:	2240      	movs	r2, #64	@ 0x40
 80080fc:	2100      	movs	r1, #0
 80080fe:	4805      	ldr	r0, [pc, #20]	@ (8008114 <USBD_LL_Init+0x58>)
 8008100:	f7fc fae6 	bl	80046d0 <HAL_PCDEx_SetTxFiFo>
  HAL_PCDEx_SetTxFiFo(&hpcd_USB_OTG_FS, 1, 0x80);
 8008104:	4803      	ldr	r0, [pc, #12]	@ (8008114 <USBD_LL_Init+0x58>)
 8008106:	2280      	movs	r2, #128	@ 0x80
 8008108:	2101      	movs	r1, #1
 800810a:	f7fc fae1 	bl	80046d0 <HAL_PCDEx_SetTxFiFo>
  }
  return USBD_OK;
}
 800810e:	2000      	movs	r0, #0
 8008110:	bd08      	pop	{r3, pc}
 8008112:	bf00      	nop
 8008114:	20006a8c 	.word	0x20006a8c

08008118 <USBD_LL_IsStallEP>:
  */
uint8_t USBD_LL_IsStallEP(USBD_HandleTypeDef *pdev, uint8_t ep_addr)
{
  PCD_HandleTypeDef *hpcd = (PCD_HandleTypeDef*) pdev->pData;

  if((ep_addr & 0x80) == 0x80)
 8008118:	f011 0f80 	tst.w	r1, #128	@ 0x80
  PCD_HandleTypeDef *hpcd = (PCD_HandleTypeDef*) pdev->pData;
 800811c:	f8d0 32c8 	ldr.w	r3, [r0, #712]	@ 0x2c8
  if((ep_addr & 0x80) == 0x80)
 8008120:	f04f 0224 	mov.w	r2, #36	@ 0x24
  {
    return hpcd->IN_ep[ep_addr & 0x7F].is_stall;
 8008124:	bf1b      	ittet	ne
 8008126:	f001 017f 	andne.w	r1, r1, #127	@ 0x7f
 800812a:	fb02 3301 	mlane	r3, r2, r1, r3
  }
  else
  {
    return hpcd->OUT_ep[ep_addr & 0x7F].is_stall;
 800812e:	fb02 3301 	mlaeq	r3, r2, r1, r3
    return hpcd->IN_ep[ep_addr & 0x7F].is_stall;
 8008132:	7d98      	ldrbne	r0, [r3, #22]
    return hpcd->OUT_ep[ep_addr & 0x7F].is_stall;
 8008134:	bf08      	it	eq
 8008136:	f893 0256 	ldrbeq.w	r0, [r3, #598]	@ 0x256
  }
}
 800813a:	4770      	bx	lr

0800813c <USBD_LL_GetRxDataSize>:
  * @param  ep_addr: Endpoint number
  * @retval Received Data Size
  */
uint32_t USBD_LL_GetRxDataSize(USBD_HandleTypeDef *pdev, uint8_t ep_addr)
{
  return HAL_PCD_EP_GetRxCount((PCD_HandleTypeDef*) pdev->pData, ep_addr);
 800813c:	f8d0 02c8 	ldr.w	r0, [r0, #712]	@ 0x2c8
 8008140:	f7fb bede 	b.w	8003f00 <HAL_PCD_EP_GetRxCount>

08008144 <USBD_static_malloc>:
  */
void *USBD_static_malloc(uint32_t size)
{
  static uint32_t mem[(sizeof(USBD_CDC_HandleTypeDef)/4)+1];/* On 32-bit boundary */
  return mem;
}
 8008144:	4800      	ldr	r0, [pc, #0]	@ (8008148 <USBD_static_malloc+0x4>)
 8008146:	4770      	bx	lr
 8008148:	2000686c 	.word	0x2000686c

0800814c <USBD_static_free>:
  * @retval None
  */
void USBD_static_free(void *p)
{

}
 800814c:	4770      	bx	lr

0800814e <USBD_Get_USB_Status>:
  */
USBD_StatusTypeDef USBD_Get_USB_Status(HAL_StatusTypeDef hal_status)
{
  USBD_StatusTypeDef usb_status = USBD_OK;

  switch (hal_status)
 800814e:	b118      	cbz	r0, 8008158 <USBD_Get_USB_Status+0xa>
 8008150:	2802      	cmp	r0, #2
 8008152:	bf0c      	ite	eq
 8008154:	2001      	moveq	r0, #1
 8008156:	2003      	movne	r0, #3
    default :
      usb_status = USBD_FAIL;
    break;
  }
  return usb_status;
}
 8008158:	4770      	bx	lr

0800815a <USBD_LL_Start>:
{
 800815a:	b508      	push	{r3, lr}
  hal_status = HAL_PCD_Start(pdev->pData);
 800815c:	f8d0 02c8 	ldr.w	r0, [r0, #712]	@ 0x2c8
 8008160:	f7fb fe17 	bl	8003d92 <HAL_PCD_Start>
}
 8008164:	e8bd 4008 	ldmia.w	sp!, {r3, lr}
  usb_status =  USBD_Get_USB_Status(hal_status);
 8008168:	f7ff bff1 	b.w	800814e <USBD_Get_USB_Status>

0800816c <USBD_LL_OpenEP>:
{
 800816c:	b510      	push	{r4, lr}
 800816e:	4614      	mov	r4, r2
  hal_status = HAL_PCD_EP_Open(pdev->pData, ep_addr, ep_mps, ep_type);
 8008170:	f8d0 02c8 	ldr.w	r0, [r0, #712]	@ 0x2c8
{
 8008174:	461a      	mov	r2, r3
  hal_status = HAL_PCD_EP_Open(pdev->pData, ep_addr, ep_mps, ep_type);
 8008176:	4623      	mov	r3, r4
 8008178:	f7fb fe3d 	bl	8003df6 <HAL_PCD_EP_Open>
}
 800817c:	e8bd 4010 	ldmia.w	sp!, {r4, lr}
  usb_status =  USBD_Get_USB_Status(hal_status);
 8008180:	f7ff bfe5 	b.w	800814e <USBD_Get_USB_Status>

08008184 <USBD_LL_CloseEP>:
{
 8008184:	b508      	push	{r3, lr}
  hal_status = HAL_PCD_EP_Close(pdev->pData, ep_addr);
 8008186:	f8d0 02c8 	ldr.w	r0, [r0, #712]	@ 0x2c8
 800818a:	f7fb fe6d 	bl	8003e68 <HAL_PCD_EP_Close>
}
 800818e:	e8bd 4008 	ldmia.w	sp!, {r3, lr}
  usb_status =  USBD_Get_USB_Status(hal_status);
 8008192:	f7ff bfdc 	b.w	800814e <USBD_Get_USB_Status>

08008196 <USBD_LL_StallEP>:
{
 8008196:	b508      	push	{r3, lr}
  hal_status = HAL_PCD_EP_SetStall(pdev->pData, ep_addr);
 8008198:	f8d0 02c8 	ldr.w	r0, [r0, #712]	@ 0x2c8
 800819c:	f7fb fed3 	bl	8003f46 <HAL_PCD_EP_SetStall>
}
 80081a0:	e8bd 4008 	ldmia.w	sp!, {r3, lr}
  usb_status =  USBD_Get_USB_Status(hal_status);
 80081a4:	f7ff bfd3 	b.w	800814e <USBD_Get_USB_Status>

080081a8 <USBD_LL_ClearStallEP>:
{
 80081a8:	b508      	push	{r3, lr}
  hal_status = HAL_PCD_EP_ClrStall(pdev->pData, ep_addr);
 80081aa:	f8d0 02c8 	ldr.w	r0, [r0, #712]	@ 0x2c8
 80081ae:	f7fb ff01 	bl	8003fb4 <HAL_PCD_EP_ClrStall>
}
 80081b2:	e8bd 4008 	ldmia.w	sp!, {r3, lr}
  usb_status =  USBD_Get_USB_Status(hal_status);
 80081b6:	f7ff bfca 	b.w	800814e <USBD_Get_USB_Status>

080081ba <USBD_LL_SetUSBAddress>:
{
 80081ba:	b508      	push	{r3, lr}
  hal_status = HAL_PCD_SetAddress(pdev->pData, dev_addr);
 80081bc:	f8d0 02c8 	ldr.w	r0, [r0, #712]	@ 0x2c8
 80081c0:	f7fb fe06 	bl	8003dd0 <HAL_PCD_SetAddress>
}
 80081c4:	e8bd 4008 	ldmia.w	sp!, {r3, lr}
  usb_status =  USBD_Get_USB_Status(hal_status);
 80081c8:	f7ff bfc1 	b.w	800814e <USBD_Get_USB_Status>

080081cc <USBD_LL_Transmit>:
{
 80081cc:	b508      	push	{r3, lr}
  hal_status = HAL_PCD_EP_Transmit(pdev->pData, ep_addr, pbuf, size);
 80081ce:	f8d0 02c8 	ldr.w	r0, [r0, #712]	@ 0x2c8
 80081d2:	f7fb fe9d 	bl	8003f10 <HAL_PCD_EP_Transmit>
}
 80081d6:	e8bd 4008 	ldmia.w	sp!, {r3, lr}
  usb_status =  USBD_Get_USB_Status(hal_status);
 80081da:	f7ff bfb8 	b.w	800814e <USBD_Get_USB_Status>

080081de <USBD_LL_PrepareReceive>:
{
 80081de:	b508      	push	{r3, lr}
  hal_status = HAL_PCD_EP_Receive(pdev->pData, ep_addr, pbuf, size);
 80081e0:	f8d0 02c8 	ldr.w	r0, [r0, #712]	@ 0x2c8
 80081e4:	f7fb fe6e 	bl	8003ec4 <HAL_PCD_EP_Receive>
}
 80081e8:	e8bd 4008 	ldmia.w	sp!, {r3, lr}
  usb_status =  USBD_Get_USB_Status(hal_status);
 80081ec:	f7ff bfaf 	b.w	800814e <USBD_Get_USB_Status>

080081f0 <arm_mat_trans_f32>:
 80081f0:	e92d 4ff0 	stmdb	sp!, {r4, r5, r6, r7, r8, r9, sl, fp, lr}
 80081f4:	8802      	ldrh	r2, [r0, #0]
 80081f6:	884b      	ldrh	r3, [r1, #2]
 80081f8:	f8d0 c004 	ldr.w	ip, [r0, #4]
 80081fc:	684f      	ldr	r7, [r1, #4]
 80081fe:	8840      	ldrh	r0, [r0, #2]
 8008200:	4293      	cmp	r3, r2
 8008202:	b083      	sub	sp, #12
 8008204:	d14c      	bne.n	80082a0 <arm_mat_trans_f32+0xb0>
 8008206:	f8b1 e000 	ldrh.w	lr, [r1]
 800820a:	4586      	cmp	lr, r0
 800820c:	d148      	bne.n	80082a0 <arm_mat_trans_f32+0xb0>
 800820e:	ea4f 089e 	mov.w	r8, lr, lsr #2
 8008212:	009c      	lsls	r4, r3, #2
 8008214:	f00e 0e03 	and.w	lr, lr, #3
 8008218:	fb08 f904 	mul.w	r9, r8, r4
 800821c:	ea4f 028e 	mov.w	r2, lr, lsl #2
 8008220:	011d      	lsls	r5, r3, #4
 8008222:	00db      	lsls	r3, r3, #3
 8008224:	ea4f 0989 	mov.w	r9, r9, lsl #2
 8008228:	eb07 0a04 	add.w	sl, r7, r4
 800822c:	ea4f 1b08 	mov.w	fp, r8, lsl #4
 8008230:	9201      	str	r2, [sp, #4]
 8008232:	9300      	str	r3, [sp, #0]
 8008234:	463b      	mov	r3, r7
 8008236:	f1b8 0f00 	cmp.w	r8, #0
 800823a:	d01d      	beq.n	8008278 <arm_mat_trans_f32+0x88>
 800823c:	9900      	ldr	r1, [sp, #0]
 800823e:	f10c 0210 	add.w	r2, ip, #16
 8008242:	4439      	add	r1, r7
 8008244:	4640      	mov	r0, r8
 8008246:	f852 6c10 	ldr.w	r6, [r2, #-16]
 800824a:	601e      	str	r6, [r3, #0]
 800824c:	ed52 7a03 	vldr	s15, [r2, #-12]
 8008250:	191e      	adds	r6, r3, r4
 8008252:	edc6 7a00 	vstr	s15, [r6]
 8008256:	f852 6c08 	ldr.w	r6, [r2, #-8]
 800825a:	600e      	str	r6, [r1, #0]
 800825c:	ed52 7a01 	vldr	s15, [r2, #-4]
 8008260:	190e      	adds	r6, r1, r4
 8008262:	3801      	subs	r0, #1
 8008264:	442b      	add	r3, r5
 8008266:	f102 0210 	add.w	r2, r2, #16
 800826a:	edc6 7a00 	vstr	s15, [r6]
 800826e:	4429      	add	r1, r5
 8008270:	d1e9      	bne.n	8008246 <arm_mat_trans_f32+0x56>
 8008272:	44dc      	add	ip, fp
 8008274:	eb09 0307 	add.w	r3, r9, r7
 8008278:	f1be 0f00 	cmp.w	lr, #0
 800827c:	d009      	beq.n	8008292 <arm_mat_trans_f32+0xa2>
 800827e:	4672      	mov	r2, lr
 8008280:	4661      	mov	r1, ip
 8008282:	f851 0b04 	ldr.w	r0, [r1], #4
 8008286:	6018      	str	r0, [r3, #0]
 8008288:	3a01      	subs	r2, #1
 800828a:	4423      	add	r3, r4
 800828c:	d1f9      	bne.n	8008282 <arm_mat_trans_f32+0x92>
 800828e:	9b01      	ldr	r3, [sp, #4]
 8008290:	449c      	add	ip, r3
 8008292:	3704      	adds	r7, #4
 8008294:	4557      	cmp	r7, sl
 8008296:	d1cd      	bne.n	8008234 <arm_mat_trans_f32+0x44>
 8008298:	2000      	movs	r0, #0
 800829a:	b003      	add	sp, #12
 800829c:	e8bd 8ff0 	ldmia.w	sp!, {r4, r5, r6, r7, r8, r9, sl, fp, pc}
 80082a0:	f06f 0002 	mvn.w	r0, #2
 80082a4:	e7f9      	b.n	800829a <arm_mat_trans_f32+0xaa>
 80082a6:	bf00      	nop

080082a8 <arm_mat_sub_f32>:
 80082a8:	b4f0      	push	{r4, r5, r6, r7}
 80082aa:	e9d1 4700 	ldrd	r4, r7, [r1]
 80082ae:	6803      	ldr	r3, [r0, #0]
 80082b0:	f8d0 c004 	ldr.w	ip, [r0, #4]
 80082b4:	6856      	ldr	r6, [r2, #4]
 80082b6:	42a3      	cmp	r3, r4
 80082b8:	d15d      	bne.n	8008376 <arm_mat_sub_f32+0xce>
 80082ba:	6812      	ldr	r2, [r2, #0]
 80082bc:	4293      	cmp	r3, r2
 80082be:	d15a      	bne.n	8008376 <arm_mat_sub_f32+0xce>
 80082c0:	8803      	ldrh	r3, [r0, #0]
 80082c2:	8844      	ldrh	r4, [r0, #2]
 80082c4:	fb04 f403 	mul.w	r4, r4, r3
 80082c8:	08a5      	lsrs	r5, r4, #2
 80082ca:	d032      	beq.n	8008332 <arm_mat_sub_f32+0x8a>
 80082cc:	f10c 0110 	add.w	r1, ip, #16
 80082d0:	f107 0210 	add.w	r2, r7, #16
 80082d4:	f106 0310 	add.w	r3, r6, #16
 80082d8:	4628      	mov	r0, r5
 80082da:	ed12 7a04 	vldr	s14, [r2, #-16]
 80082de:	ed51 7a04 	vldr	s15, [r1, #-16]
 80082e2:	ee77 7ac7 	vsub.f32	s15, s15, s14
 80082e6:	3801      	subs	r0, #1
 80082e8:	ed43 7a04 	vstr	s15, [r3, #-16]
 80082ec:	ed12 7a03 	vldr	s14, [r2, #-12]
 80082f0:	ed51 7a03 	vldr	s15, [r1, #-12]
 80082f4:	ee77 7ac7 	vsub.f32	s15, s15, s14
 80082f8:	f101 0110 	add.w	r1, r1, #16
 80082fc:	ed43 7a03 	vstr	s15, [r3, #-12]
 8008300:	ed12 7a02 	vldr	s14, [r2, #-8]
 8008304:	ed51 7a06 	vldr	s15, [r1, #-24]	@ 0xffffffe8
 8008308:	ee77 7ac7 	vsub.f32	s15, s15, s14
 800830c:	f102 0210 	add.w	r2, r2, #16
 8008310:	ed43 7a02 	vstr	s15, [r3, #-8]
 8008314:	ed51 7a05 	vldr	s15, [r1, #-20]	@ 0xffffffec
 8008318:	ed12 7a05 	vldr	s14, [r2, #-20]	@ 0xffffffec
 800831c:	ee77 7ac7 	vsub.f32	s15, s15, s14
 8008320:	f103 0310 	add.w	r3, r3, #16
 8008324:	ed43 7a05 	vstr	s15, [r3, #-20]	@ 0xffffffec
 8008328:	d1d7      	bne.n	80082da <arm_mat_sub_f32+0x32>
 800832a:	012b      	lsls	r3, r5, #4
 800832c:	449c      	add	ip, r3
 800832e:	441f      	add	r7, r3
 8008330:	441e      	add	r6, r3
 8008332:	f014 0403 	ands.w	r4, r4, #3
 8008336:	d01b      	beq.n	8008370 <arm_mat_sub_f32+0xc8>
 8008338:	eddc 7a00 	vldr	s15, [ip]
 800833c:	ed97 7a00 	vldr	s14, [r7]
 8008340:	ee77 7ac7 	vsub.f32	s15, s15, s14
 8008344:	3c01      	subs	r4, #1
 8008346:	edc6 7a00 	vstr	s15, [r6]
 800834a:	d011      	beq.n	8008370 <arm_mat_sub_f32+0xc8>
 800834c:	eddc 7a01 	vldr	s15, [ip, #4]
 8008350:	ed97 7a01 	vldr	s14, [r7, #4]
 8008354:	ee77 7ac7 	vsub.f32	s15, s15, s14
 8008358:	2c01      	cmp	r4, #1
 800835a:	edc6 7a01 	vstr	s15, [r6, #4]
 800835e:	d007      	beq.n	8008370 <arm_mat_sub_f32+0xc8>
 8008360:	eddc 7a02 	vldr	s15, [ip, #8]
 8008364:	ed97 7a02 	vldr	s14, [r7, #8]
 8008368:	ee77 7ac7 	vsub.f32	s15, s15, s14
 800836c:	edc6 7a02 	vstr	s15, [r6, #8]
 8008370:	2000      	movs	r0, #0
 8008372:	bcf0      	pop	{r4, r5, r6, r7}
 8008374:	4770      	bx	lr
 8008376:	f06f 0002 	mvn.w	r0, #2
 800837a:	e7fa      	b.n	8008372 <arm_mat_sub_f32+0xca>

0800837c <arm_mat_mult_f32>:
 800837c:	e92d 4ff0 	stmdb	sp!, {r4, r5, r6, r7, r8, r9, sl, fp, lr}
 8008380:	8845      	ldrh	r5, [r0, #2]
 8008382:	880b      	ldrh	r3, [r1, #0]
 8008384:	8806      	ldrh	r6, [r0, #0]
 8008386:	6847      	ldr	r7, [r0, #4]
 8008388:	6854      	ldr	r4, [r2, #4]
 800838a:	6848      	ldr	r0, [r1, #4]
 800838c:	b08b      	sub	sp, #44	@ 0x2c
 800838e:	42ab      	cmp	r3, r5
 8008390:	9109      	str	r1, [sp, #36]	@ 0x24
 8008392:	9604      	str	r6, [sp, #16]
 8008394:	8849      	ldrh	r1, [r1, #2]
 8008396:	f040 808a 	bne.w	80084ae <arm_mat_mult_f32+0x132>
 800839a:	8815      	ldrh	r5, [r2, #0]
 800839c:	42b5      	cmp	r5, r6
 800839e:	f040 8086 	bne.w	80084ae <arm_mat_mult_f32+0x132>
 80083a2:	8852      	ldrh	r2, [r2, #2]
 80083a4:	428a      	cmp	r2, r1
 80083a6:	f040 8082 	bne.w	80084ae <arm_mat_mult_f32+0x132>
 80083aa:	ea4f 0893 	mov.w	r8, r3, lsr #2
 80083ae:	1d01      	adds	r1, r0, #4
 80083b0:	0116      	lsls	r6, r2, #4
 80083b2:	9108      	str	r1, [sp, #32]
 80083b4:	eb07 1108 	add.w	r1, r7, r8, lsl #4
 80083b8:	ebc2 7c82 	rsb	ip, r2, r2, lsl #30
 80083bc:	9101      	str	r1, [sp, #4]
 80083be:	fb06 f108 	mul.w	r1, r6, r8
 80083c2:	0095      	lsls	r5, r2, #2
 80083c4:	9103      	str	r1, [sp, #12]
 80083c6:	00d2      	lsls	r2, r2, #3
 80083c8:	ea4f 018c 	mov.w	r1, ip, lsl #2
 80083cc:	f003 0903 	and.w	r9, r3, #3
 80083d0:	009b      	lsls	r3, r3, #2
 80083d2:	f107 0b10 	add.w	fp, r7, #16
 80083d6:	eb04 0a05 	add.w	sl, r4, r5
 80083da:	9107      	str	r1, [sp, #28]
 80083dc:	9202      	str	r2, [sp, #8]
 80083de:	9306      	str	r3, [sp, #24]
 80083e0:	f1ab 0310 	sub.w	r3, fp, #16
 80083e4:	9305      	str	r3, [sp, #20]
 80083e6:	9b07      	ldr	r3, [sp, #28]
 80083e8:	f8dd e020 	ldr.w	lr, [sp, #32]
 80083ec:	eb03 0c0a 	add.w	ip, r3, sl
 80083f0:	eddf 7a31 	vldr	s15, [pc, #196]	@ 80084b8 <arm_mat_mult_f32+0x13c>
 80083f4:	f1b8 0f00 	cmp.w	r8, #0
 80083f8:	d053      	beq.n	80084a2 <arm_mat_mult_f32+0x126>
 80083fa:	9b02      	ldr	r3, [sp, #8]
 80083fc:	4644      	mov	r4, r8
 80083fe:	18c1      	adds	r1, r0, r3
 8008400:	4602      	mov	r2, r0
 8008402:	465b      	mov	r3, fp
 8008404:	ed92 6a00 	vldr	s12, [r2]
 8008408:	ed13 7a04 	vldr	s14, [r3, #-16]
 800840c:	ed53 4a03 	vldr	s9, [r3, #-12]
 8008410:	ed53 6a02 	vldr	s13, [r3, #-8]
 8008414:	ed91 5a00 	vldr	s10, [r1]
 8008418:	ed53 5a01 	vldr	s11, [r3, #-4]
 800841c:	1957      	adds	r7, r2, r5
 800841e:	ee27 7a06 	vmul.f32	s14, s14, s12
 8008422:	ed97 6a00 	vldr	s12, [r7]
 8008426:	ee77 7a27 	vadd.f32	s15, s14, s15
 800842a:	ee26 6a24 	vmul.f32	s12, s12, s9
 800842e:	194f      	adds	r7, r1, r5
 8008430:	ee36 6a27 	vadd.f32	s12, s12, s15
 8008434:	ee26 7a85 	vmul.f32	s14, s13, s10
 8008438:	edd7 7a00 	vldr	s15, [r7]
 800843c:	ee37 7a06 	vadd.f32	s14, s14, s12
 8008440:	ee67 7aa5 	vmul.f32	s15, s15, s11
 8008444:	3c01      	subs	r4, #1
 8008446:	4432      	add	r2, r6
 8008448:	4431      	add	r1, r6
 800844a:	ee77 7a87 	vadd.f32	s15, s15, s14
 800844e:	f103 0310 	add.w	r3, r3, #16
 8008452:	d1d7      	bne.n	8008404 <arm_mat_mult_f32+0x88>
 8008454:	9b03      	ldr	r3, [sp, #12]
 8008456:	9a01      	ldr	r2, [sp, #4]
 8008458:	4418      	add	r0, r3
 800845a:	f1b9 0f00 	cmp.w	r9, #0
 800845e:	d00b      	beq.n	8008478 <arm_mat_mult_f32+0xfc>
 8008460:	464b      	mov	r3, r9
 8008462:	edd0 6a00 	vldr	s13, [r0]
 8008466:	ecb2 7a01 	vldmia	r2!, {s14}
 800846a:	ee27 7a26 	vmul.f32	s14, s14, s13
 800846e:	3b01      	subs	r3, #1
 8008470:	4428      	add	r0, r5
 8008472:	ee77 7a87 	vadd.f32	s15, s15, s14
 8008476:	d1f4      	bne.n	8008462 <arm_mat_mult_f32+0xe6>
 8008478:	ecec 7a01 	vstmia	ip!, {s15}
 800847c:	45d4      	cmp	ip, sl
 800847e:	4670      	mov	r0, lr
 8008480:	f10e 0e04 	add.w	lr, lr, #4
 8008484:	d1b4      	bne.n	80083f0 <arm_mat_mult_f32+0x74>
 8008486:	9a01      	ldr	r2, [sp, #4]
 8008488:	9b06      	ldr	r3, [sp, #24]
 800848a:	4611      	mov	r1, r2
 800848c:	4419      	add	r1, r3
 800848e:	449b      	add	fp, r3
 8008490:	9b04      	ldr	r3, [sp, #16]
 8008492:	9101      	str	r1, [sp, #4]
 8008494:	3b01      	subs	r3, #1
 8008496:	44aa      	add	sl, r5
 8008498:	9304      	str	r3, [sp, #16]
 800849a:	d004      	beq.n	80084a6 <arm_mat_mult_f32+0x12a>
 800849c:	9b09      	ldr	r3, [sp, #36]	@ 0x24
 800849e:	6858      	ldr	r0, [r3, #4]
 80084a0:	e79e      	b.n	80083e0 <arm_mat_mult_f32+0x64>
 80084a2:	9a05      	ldr	r2, [sp, #20]
 80084a4:	e7d9      	b.n	800845a <arm_mat_mult_f32+0xde>
 80084a6:	4618      	mov	r0, r3
 80084a8:	b00b      	add	sp, #44	@ 0x2c
 80084aa:	e8bd 8ff0 	ldmia.w	sp!, {r4, r5, r6, r7, r8, r9, sl, fp, pc}
 80084ae:	f06f 0002 	mvn.w	r0, #2
 80084b2:	b00b      	add	sp, #44	@ 0x2c
 80084b4:	e8bd 8ff0 	ldmia.w	sp!, {r4, r5, r6, r7, r8, r9, sl, fp, pc}
 80084b8:	00000000 	.word	0x00000000

080084bc <arm_mat_inverse_f32>:
 80084bc:	e92d 4ff0 	stmdb	sp!, {r4, r5, r6, r7, r8, r9, sl, fp, lr}
 80084c0:	8843      	ldrh	r3, [r0, #2]
 80084c2:	8804      	ldrh	r4, [r0, #0]
 80084c4:	684e      	ldr	r6, [r1, #4]
 80084c6:	f8d0 9004 	ldr.w	r9, [r0, #4]
 80084ca:	b087      	sub	sp, #28
 80084cc:	429c      	cmp	r4, r3
 80084ce:	9301      	str	r3, [sp, #4]
 80084d0:	9603      	str	r6, [sp, #12]
 80084d2:	f040 80ea 	bne.w	80086aa <arm_mat_inverse_f32+0x1ee>
 80084d6:	880a      	ldrh	r2, [r1, #0]
 80084d8:	884b      	ldrh	r3, [r1, #2]
 80084da:	4293      	cmp	r3, r2
 80084dc:	f040 80e5 	bne.w	80086aa <arm_mat_inverse_f32+0x1ee>
 80084e0:	429c      	cmp	r4, r3
 80084e2:	f040 80e2 	bne.w	80086aa <arm_mat_inverse_f32+0x1ee>
 80084e6:	9005      	str	r0, [sp, #20]
 80084e8:	b30c      	cbz	r4, 800852e <arm_mat_inverse_f32+0x72>
 80084ea:	f04f 5b7e 	mov.w	fp, #1065353216	@ 0x3f800000
 80084ee:	1e67      	subs	r7, r4, #1
 80084f0:	f846 bb04 	str.w	fp, [r6], #4
 80084f4:	d01b      	beq.n	800852e <arm_mat_inverse_f32+0x72>
 80084f6:	f04f 0801 	mov.w	r8, #1
 80084fa:	00ba      	lsls	r2, r7, #2
 80084fc:	eb06 0a02 	add.w	sl, r6, r2
 8008500:	ea4f 0588 	mov.w	r5, r8, lsl #2
 8008504:	4630      	mov	r0, r6
 8008506:	2100      	movs	r1, #0
 8008508:	f001 fcc9 	bl	8009e9e <memset>
 800850c:	eb0a 0605 	add.w	r6, sl, r5
 8008510:	462a      	mov	r2, r5
 8008512:	2100      	movs	r1, #0
 8008514:	4650      	mov	r0, sl
 8008516:	f1b8 0f00 	cmp.w	r8, #0
 800851a:	f000 80cb 	beq.w	80086b4 <arm_mat_inverse_f32+0x1f8>
 800851e:	f001 fcbe 	bl	8009e9e <memset>
 8008522:	3f01      	subs	r7, #1
 8008524:	f108 0801 	add.w	r8, r8, #1
 8008528:	f846 bb04 	str.w	fp, [r6], #4
 800852c:	d1e5      	bne.n	80084fa <arm_mat_inverse_f32+0x3e>
 800852e:	9b01      	ldr	r3, [sp, #4]
 8008530:	2b00      	cmp	r3, #0
 8008532:	f000 80b5 	beq.w	80086a0 <arm_mat_inverse_f32+0x1e4>
 8008536:	009d      	lsls	r5, r3, #2
 8008538:	eb09 0205 	add.w	r2, r9, r5
 800853c:	46cc      	mov	ip, r9
 800853e:	9202      	str	r2, [sp, #8]
 8008540:	f8dd 900c 	ldr.w	r9, [sp, #12]
 8008544:	1d2a      	adds	r2, r5, #4
 8008546:	9204      	str	r2, [sp, #16]
 8008548:	462f      	mov	r7, r5
 800854a:	469e      	mov	lr, r3
 800854c:	2600      	movs	r6, #0
 800854e:	9b02      	ldr	r3, [sp, #8]
 8008550:	eddc 6a00 	vldr	s13, [ip]
 8008554:	42b4      	cmp	r4, r6
 8008556:	eba3 0b07 	sub.w	fp, r3, r7
 800855a:	f000 80a1 	beq.w	80086a0 <arm_mat_inverse_f32+0x1e4>
 800855e:	ed9f 7a59 	vldr	s14, [pc, #356]	@ 80086c4 <arm_mat_inverse_f32+0x208>
 8008562:	4632      	mov	r2, r6
 8008564:	4663      	mov	r3, ip
 8008566:	e00b      	b.n	8008580 <arm_mat_inverse_f32+0xc4>
 8008568:	eef4 7a47 	vcmp.f32	s15, s14
 800856c:	eef1 fa10 	vmrs	APSR_nzcv, fpscr
 8008570:	f102 0201 	add.w	r2, r2, #1
 8008574:	bfc8      	it	gt
 8008576:	eeb0 7a67 	vmovgt.f32	s14, s15
 800857a:	42a2      	cmp	r2, r4
 800857c:	442b      	add	r3, r5
 800857e:	d014      	beq.n	80085aa <arm_mat_inverse_f32+0xee>
 8008580:	edd3 7a00 	vldr	s15, [r3]
 8008584:	eef5 7ac0 	vcmpe.f32	s15, #0.0
 8008588:	eef1 fa10 	vmrs	APSR_nzcv, fpscr
 800858c:	eeb1 6a67 	vneg.f32	s12, s15
 8008590:	dcea      	bgt.n	8008568 <arm_mat_inverse_f32+0xac>
 8008592:	eeb4 6a47 	vcmp.f32	s12, s14
 8008596:	eef1 fa10 	vmrs	APSR_nzcv, fpscr
 800859a:	f102 0201 	add.w	r2, r2, #1
 800859e:	bfc8      	it	gt
 80085a0:	eeb0 7a46 	vmovgt.f32	s14, s12
 80085a4:	42a2      	cmp	r2, r4
 80085a6:	442b      	add	r3, r5
 80085a8:	d1ea      	bne.n	8008580 <arm_mat_inverse_f32+0xc4>
 80085aa:	eeb5 7a40 	vcmp.f32	s14, #0.0
 80085ae:	eef1 fa10 	vmrs	APSR_nzcv, fpscr
 80085b2:	d075      	beq.n	80086a0 <arm_mat_inverse_f32+0x1e4>
 80085b4:	eef5 6a40 	vcmp.f32	s13, #0.0
 80085b8:	eef1 fa10 	vmrs	APSR_nzcv, fpscr
 80085bc:	d070      	beq.n	80086a0 <arm_mat_inverse_f32+0x1e4>
 80085be:	4672      	mov	r2, lr
 80085c0:	4663      	mov	r3, ip
 80085c2:	ed93 7a00 	vldr	s14, [r3]
 80085c6:	eec7 7a26 	vdiv.f32	s15, s14, s13
 80085ca:	3a01      	subs	r2, #1
 80085cc:	ece3 7a01 	vstmia	r3!, {s15}
 80085d0:	d1f7      	bne.n	80085c2 <arm_mat_inverse_f32+0x106>
 80085d2:	9901      	ldr	r1, [sp, #4]
 80085d4:	464b      	mov	r3, r9
 80085d6:	ed93 7a00 	vldr	s14, [r3]
 80085da:	eec7 7a26 	vdiv.f32	s15, s14, s13
 80085de:	3901      	subs	r1, #1
 80085e0:	ece3 7a01 	vstmia	r3!, {s15}
 80085e4:	d1f7      	bne.n	80085d6 <arm_mat_inverse_f32+0x11a>
 80085e6:	9803      	ldr	r0, [sp, #12]
 80085e8:	ea4f 0886 	mov.w	r8, r6, lsl #2
 80085ec:	42b1      	cmp	r1, r6
 80085ee:	d039      	beq.n	8008664 <arm_mat_inverse_f32+0x1a8>
 80085f0:	eddb 6a00 	vldr	s13, [fp]
 80085f4:	465a      	mov	r2, fp
 80085f6:	4673      	mov	r3, lr
 80085f8:	46e2      	mov	sl, ip
 80085fa:	ecba 7a01 	vldmia	sl!, {s14}
 80085fe:	edd2 7a00 	vldr	s15, [r2]
 8008602:	ee26 7a87 	vmul.f32	s14, s13, s14
 8008606:	3b01      	subs	r3, #1
 8008608:	ee77 7ac7 	vsub.f32	s15, s15, s14
 800860c:	ece2 7a01 	vstmia	r2!, {s15}
 8008610:	d1f3      	bne.n	80085fa <arm_mat_inverse_f32+0x13e>
 8008612:	9b01      	ldr	r3, [sp, #4]
 8008614:	44bb      	add	fp, r7
 8008616:	4602      	mov	r2, r0
 8008618:	46ca      	mov	sl, r9
 800861a:	ecba 7a01 	vldmia	sl!, {s14}
 800861e:	edd2 7a00 	vldr	s15, [r2]
 8008622:	ee26 7a87 	vmul.f32	s14, s13, s14
 8008626:	3b01      	subs	r3, #1
 8008628:	ee77 7ac7 	vsub.f32	s15, s15, s14
 800862c:	ece2 7a01 	vstmia	r2!, {s15}
 8008630:	d1f3      	bne.n	800861a <arm_mat_inverse_f32+0x15e>
 8008632:	4428      	add	r0, r5
 8008634:	3101      	adds	r1, #1
 8008636:	428c      	cmp	r4, r1
 8008638:	44c3      	add	fp, r8
 800863a:	d1d7      	bne.n	80085ec <arm_mat_inverse_f32+0x130>
 800863c:	9b04      	ldr	r3, [sp, #16]
 800863e:	f1be 0e01 	subs.w	lr, lr, #1
 8008642:	f106 0601 	add.w	r6, r6, #1
 8008646:	449c      	add	ip, r3
 8008648:	f1a7 0704 	sub.w	r7, r7, #4
 800864c:	44a9      	add	r9, r5
 800864e:	f47f af7e 	bne.w	800854e <arm_mat_inverse_f32+0x92>
 8008652:	eef5 6a40 	vcmp.f32	s13, #0.0
 8008656:	eef1 fa10 	vmrs	APSR_nzcv, fpscr
 800865a:	d006      	beq.n	800866a <arm_mat_inverse_f32+0x1ae>
 800865c:	2000      	movs	r0, #0
 800865e:	b007      	add	sp, #28
 8008660:	e8bd 8ff0 	ldmia.w	sp!, {r4, r5, r6, r7, r8, r9, sl, fp, pc}
 8008664:	44bb      	add	fp, r7
 8008666:	4428      	add	r0, r5
 8008668:	e7e4      	b.n	8008634 <arm_mat_inverse_f32+0x178>
 800866a:	9b05      	ldr	r3, [sp, #20]
 800866c:	9a01      	ldr	r2, [sp, #4]
 800866e:	685b      	ldr	r3, [r3, #4]
 8008670:	edd3 7a00 	vldr	s15, [r3]
 8008674:	eef5 7a40 	vcmp.f32	s15, #0.0
 8008678:	fb02 f204 	mul.w	r2, r2, r4
 800867c:	eef1 fa10 	vmrs	APSR_nzcv, fpscr
 8008680:	4614      	mov	r4, r2
 8008682:	bf08      	it	eq
 8008684:	3304      	addeq	r3, #4
 8008686:	d007      	beq.n	8008698 <arm_mat_inverse_f32+0x1dc>
 8008688:	e7e8      	b.n	800865c <arm_mat_inverse_f32+0x1a0>
 800868a:	ecf3 7a01 	vldmia	r3!, {s15}
 800868e:	eef5 7a40 	vcmp.f32	s15, #0.0
 8008692:	eef1 fa10 	vmrs	APSR_nzcv, fpscr
 8008696:	d1e1      	bne.n	800865c <arm_mat_inverse_f32+0x1a0>
 8008698:	f10e 0e01 	add.w	lr, lr, #1
 800869c:	4574      	cmp	r4, lr
 800869e:	d1f4      	bne.n	800868a <arm_mat_inverse_f32+0x1ce>
 80086a0:	f06f 0004 	mvn.w	r0, #4
 80086a4:	b007      	add	sp, #28
 80086a6:	e8bd 8ff0 	ldmia.w	sp!, {r4, r5, r6, r7, r8, r9, sl, fp, pc}
 80086aa:	f06f 0002 	mvn.w	r0, #2
 80086ae:	b007      	add	sp, #28
 80086b0:	e8bd 8ff0 	ldmia.w	sp!, {r4, r5, r6, r7, r8, r9, sl, fp, pc}
 80086b4:	4656      	mov	r6, sl
 80086b6:	3f01      	subs	r7, #1
 80086b8:	f846 bb04 	str.w	fp, [r6], #4
 80086bc:	f47f af1b 	bne.w	80084f6 <arm_mat_inverse_f32+0x3a>
 80086c0:	e735      	b.n	800852e <arm_mat_inverse_f32+0x72>
 80086c2:	bf00      	nop
 80086c4:	00000000 	.word	0x00000000

080086c8 <arm_mat_init_f32>:
 80086c8:	8001      	strh	r1, [r0, #0]
 80086ca:	8042      	strh	r2, [r0, #2]
 80086cc:	6043      	str	r3, [r0, #4]
 80086ce:	4770      	bx	lr

080086d0 <arm_mat_add_f32>:
 80086d0:	b4f0      	push	{r4, r5, r6, r7}
 80086d2:	e9d1 4700 	ldrd	r4, r7, [r1]
 80086d6:	6803      	ldr	r3, [r0, #0]
 80086d8:	f8d0 c004 	ldr.w	ip, [r0, #4]
 80086dc:	6856      	ldr	r6, [r2, #4]
 80086de:	42a3      	cmp	r3, r4
 80086e0:	d15d      	bne.n	800879e <arm_mat_add_f32+0xce>
 80086e2:	6812      	ldr	r2, [r2, #0]
 80086e4:	4293      	cmp	r3, r2
 80086e6:	d15a      	bne.n	800879e <arm_mat_add_f32+0xce>
 80086e8:	8803      	ldrh	r3, [r0, #0]
 80086ea:	8844      	ldrh	r4, [r0, #2]
 80086ec:	fb04 f403 	mul.w	r4, r4, r3
 80086f0:	08a5      	lsrs	r5, r4, #2
 80086f2:	d032      	beq.n	800875a <arm_mat_add_f32+0x8a>
 80086f4:	f10c 0110 	add.w	r1, ip, #16
 80086f8:	f107 0210 	add.w	r2, r7, #16
 80086fc:	f106 0310 	add.w	r3, r6, #16
 8008700:	4628      	mov	r0, r5
 8008702:	ed12 7a04 	vldr	s14, [r2, #-16]
 8008706:	ed51 7a04 	vldr	s15, [r1, #-16]
 800870a:	ee77 7a87 	vadd.f32	s15, s15, s14
 800870e:	3801      	subs	r0, #1
 8008710:	ed43 7a04 	vstr	s15, [r3, #-16]
 8008714:	ed12 7a03 	vldr	s14, [r2, #-12]
 8008718:	ed51 7a03 	vldr	s15, [r1, #-12]
 800871c:	ee77 7a87 	vadd.f32	s15, s15, s14
 8008720:	f101 0110 	add.w	r1, r1, #16
 8008724:	ed43 7a03 	vstr	s15, [r3, #-12]
 8008728:	ed12 7a02 	vldr	s14, [r2, #-8]
 800872c:	ed51 7a06 	vldr	s15, [r1, #-24]	@ 0xffffffe8
 8008730:	ee77 7a87 	vadd.f32	s15, s15, s14
 8008734:	f102 0210 	add.w	r2, r2, #16
 8008738:	ed43 7a02 	vstr	s15, [r3, #-8]
 800873c:	ed51 7a05 	vldr	s15, [r1, #-20]	@ 0xffffffec
 8008740:	ed12 7a05 	vldr	s14, [r2, #-20]	@ 0xffffffec
 8008744:	ee77 7a87 	vadd.f32	s15, s15, s14
 8008748:	f103 0310 	add.w	r3, r3, #16
 800874c:	ed43 7a05 	vstr	s15, [r3, #-20]	@ 0xffffffec
 8008750:	d1d7      	bne.n	8008702 <arm_mat_add_f32+0x32>
 8008752:	012b      	lsls	r3, r5, #4
 8008754:	449c      	add	ip, r3
 8008756:	441f      	add	r7, r3
 8008758:	441e      	add	r6, r3
 800875a:	f014 0403 	ands.w	r4, r4, #3
 800875e:	d01b      	beq.n	8008798 <arm_mat_add_f32+0xc8>
 8008760:	edd7 7a00 	vldr	s15, [r7]
 8008764:	ed9c 7a00 	vldr	s14, [ip]
 8008768:	ee77 7a87 	vadd.f32	s15, s15, s14
 800876c:	3c01      	subs	r4, #1
 800876e:	edc6 7a00 	vstr	s15, [r6]
 8008772:	d011      	beq.n	8008798 <arm_mat_add_f32+0xc8>
 8008774:	eddc 7a01 	vldr	s15, [ip, #4]
 8008778:	ed97 7a01 	vldr	s14, [r7, #4]
 800877c:	ee77 7a87 	vadd.f32	s15, s15, s14
 8008780:	2c01      	cmp	r4, #1
 8008782:	edc6 7a01 	vstr	s15, [r6, #4]
 8008786:	d007      	beq.n	8008798 <arm_mat_add_f32+0xc8>
 8008788:	eddc 7a02 	vldr	s15, [ip, #8]
 800878c:	ed97 7a02 	vldr	s14, [r7, #8]
 8008790:	ee77 7a87 	vadd.f32	s15, s15, s14
 8008794:	edc6 7a02 	vstr	s15, [r6, #8]
 8008798:	2000      	movs	r0, #0
 800879a:	bcf0      	pop	{r4, r5, r6, r7}
 800879c:	4770      	bx	lr
 800879e:	f06f 0002 	mvn.w	r0, #2
 80087a2:	e7fa      	b.n	800879a <arm_mat_add_f32+0xca>

080087a4 <sqrtf>:
 80087a4:	b508      	push	{r3, lr}
 80087a6:	ed2d 8b02 	vpush	{d8}
 80087aa:	eeb0 8a40 	vmov.f32	s16, s0
 80087ae:	f000 f8f7 	bl	80089a0 <__ieee754_sqrtf>
 80087b2:	eeb4 8a48 	vcmp.f32	s16, s16
 80087b6:	eef1 fa10 	vmrs	APSR_nzcv, fpscr
 80087ba:	d60c      	bvs.n	80087d6 <sqrtf+0x32>
 80087bc:	eddf 8a07 	vldr	s17, [pc, #28]	@ 80087dc <sqrtf+0x38>
 80087c0:	eeb4 8ae8 	vcmpe.f32	s16, s17
 80087c4:	eef1 fa10 	vmrs	APSR_nzcv, fpscr
 80087c8:	d505      	bpl.n	80087d6 <sqrtf+0x32>
 80087ca:	f001 fc19 	bl	800a000 <__errno>
 80087ce:	ee88 0aa8 	vdiv.f32	s0, s17, s17
 80087d2:	2321      	movs	r3, #33	@ 0x21
 80087d4:	6003      	str	r3, [r0, #0]
 80087d6:	ecbd 8b02 	vpop	{d8}
 80087da:	bd08      	pop	{r3, pc}
 80087dc:	00000000 	.word	0x00000000

080087e0 <cosf>:
 80087e0:	ee10 3a10 	vmov	r3, s0
 80087e4:	b507      	push	{r0, r1, r2, lr}
 80087e6:	4a1e      	ldr	r2, [pc, #120]	@ (8008860 <cosf+0x80>)
 80087e8:	f023 4300 	bic.w	r3, r3, #2147483648	@ 0x80000000
 80087ec:	4293      	cmp	r3, r2
 80087ee:	d806      	bhi.n	80087fe <cosf+0x1e>
 80087f0:	eddf 0a1c 	vldr	s1, [pc, #112]	@ 8008864 <cosf+0x84>
 80087f4:	b003      	add	sp, #12
 80087f6:	f85d eb04 	ldr.w	lr, [sp], #4
 80087fa:	f000 b8d5 	b.w	80089a8 <__kernel_cosf>
 80087fe:	f1b3 4fff 	cmp.w	r3, #2139095040	@ 0x7f800000
 8008802:	d304      	bcc.n	800880e <cosf+0x2e>
 8008804:	ee30 0a40 	vsub.f32	s0, s0, s0
 8008808:	b003      	add	sp, #12
 800880a:	f85d fb04 	ldr.w	pc, [sp], #4
 800880e:	4668      	mov	r0, sp
 8008810:	f000 f96a 	bl	8008ae8 <__ieee754_rem_pio2f>
 8008814:	f000 0003 	and.w	r0, r0, #3
 8008818:	2801      	cmp	r0, #1
 800881a:	d009      	beq.n	8008830 <cosf+0x50>
 800881c:	2802      	cmp	r0, #2
 800881e:	d010      	beq.n	8008842 <cosf+0x62>
 8008820:	b9b0      	cbnz	r0, 8008850 <cosf+0x70>
 8008822:	eddd 0a01 	vldr	s1, [sp, #4]
 8008826:	ed9d 0a00 	vldr	s0, [sp]
 800882a:	f000 f8bd 	bl	80089a8 <__kernel_cosf>
 800882e:	e7eb      	b.n	8008808 <cosf+0x28>
 8008830:	eddd 0a01 	vldr	s1, [sp, #4]
 8008834:	ed9d 0a00 	vldr	s0, [sp]
 8008838:	f000 f90e 	bl	8008a58 <__kernel_sinf>
 800883c:	eeb1 0a40 	vneg.f32	s0, s0
 8008840:	e7e2      	b.n	8008808 <cosf+0x28>
 8008842:	eddd 0a01 	vldr	s1, [sp, #4]
 8008846:	ed9d 0a00 	vldr	s0, [sp]
 800884a:	f000 f8ad 	bl	80089a8 <__kernel_cosf>
 800884e:	e7f5      	b.n	800883c <cosf+0x5c>
 8008850:	eddd 0a01 	vldr	s1, [sp, #4]
 8008854:	ed9d 0a00 	vldr	s0, [sp]
 8008858:	2001      	movs	r0, #1
 800885a:	f000 f8fd 	bl	8008a58 <__kernel_sinf>
 800885e:	e7d3      	b.n	8008808 <cosf+0x28>
 8008860:	3f490fd8 	.word	0x3f490fd8
 8008864:	00000000 	.word	0x00000000

08008868 <sinf>:
 8008868:	ee10 3a10 	vmov	r3, s0
 800886c:	b507      	push	{r0, r1, r2, lr}
 800886e:	4a1f      	ldr	r2, [pc, #124]	@ (80088ec <sinf+0x84>)
 8008870:	f023 4300 	bic.w	r3, r3, #2147483648	@ 0x80000000
 8008874:	4293      	cmp	r3, r2
 8008876:	d807      	bhi.n	8008888 <sinf+0x20>
 8008878:	eddf 0a1d 	vldr	s1, [pc, #116]	@ 80088f0 <sinf+0x88>
 800887c:	2000      	movs	r0, #0
 800887e:	b003      	add	sp, #12
 8008880:	f85d eb04 	ldr.w	lr, [sp], #4
 8008884:	f000 b8e8 	b.w	8008a58 <__kernel_sinf>
 8008888:	f1b3 4fff 	cmp.w	r3, #2139095040	@ 0x7f800000
 800888c:	d304      	bcc.n	8008898 <sinf+0x30>
 800888e:	ee30 0a40 	vsub.f32	s0, s0, s0
 8008892:	b003      	add	sp, #12
 8008894:	f85d fb04 	ldr.w	pc, [sp], #4
 8008898:	4668      	mov	r0, sp
 800889a:	f000 f925 	bl	8008ae8 <__ieee754_rem_pio2f>
 800889e:	f000 0003 	and.w	r0, r0, #3
 80088a2:	2801      	cmp	r0, #1
 80088a4:	d00a      	beq.n	80088bc <sinf+0x54>
 80088a6:	2802      	cmp	r0, #2
 80088a8:	d00f      	beq.n	80088ca <sinf+0x62>
 80088aa:	b9c0      	cbnz	r0, 80088de <sinf+0x76>
 80088ac:	eddd 0a01 	vldr	s1, [sp, #4]
 80088b0:	ed9d 0a00 	vldr	s0, [sp]
 80088b4:	2001      	movs	r0, #1
 80088b6:	f000 f8cf 	bl	8008a58 <__kernel_sinf>
 80088ba:	e7ea      	b.n	8008892 <sinf+0x2a>
 80088bc:	eddd 0a01 	vldr	s1, [sp, #4]
 80088c0:	ed9d 0a00 	vldr	s0, [sp]
 80088c4:	f000 f870 	bl	80089a8 <__kernel_cosf>
 80088c8:	e7e3      	b.n	8008892 <sinf+0x2a>
 80088ca:	eddd 0a01 	vldr	s1, [sp, #4]
 80088ce:	ed9d 0a00 	vldr	s0, [sp]
 80088d2:	2001      	movs	r0, #1
 80088d4:	f000 f8c0 	bl	8008a58 <__kernel_sinf>
 80088d8:	eeb1 0a40 	vneg.f32	s0, s0
 80088dc:	e7d9      	b.n	8008892 <sinf+0x2a>
 80088de:	eddd 0a01 	vldr	s1, [sp, #4]
 80088e2:	ed9d 0a00 	vldr	s0, [sp]
 80088e6:	f000 f85f 	bl	80089a8 <__kernel_cosf>
 80088ea:	e7f5      	b.n	80088d8 <sinf+0x70>
 80088ec:	3f490fd8 	.word	0x3f490fd8
 80088f0:	00000000 	.word	0x00000000

080088f4 <fmaxf>:
 80088f4:	b508      	push	{r3, lr}
 80088f6:	ed2d 8b02 	vpush	{d8}
 80088fa:	eeb0 8a40 	vmov.f32	s16, s0
 80088fe:	eef0 8a60 	vmov.f32	s17, s1
 8008902:	f000 f831 	bl	8008968 <__fpclassifyf>
 8008906:	b930      	cbnz	r0, 8008916 <fmaxf+0x22>
 8008908:	eeb0 8a68 	vmov.f32	s16, s17
 800890c:	eeb0 0a48 	vmov.f32	s0, s16
 8008910:	ecbd 8b02 	vpop	{d8}
 8008914:	bd08      	pop	{r3, pc}
 8008916:	eeb0 0a68 	vmov.f32	s0, s17
 800891a:	f000 f825 	bl	8008968 <__fpclassifyf>
 800891e:	2800      	cmp	r0, #0
 8008920:	d0f4      	beq.n	800890c <fmaxf+0x18>
 8008922:	eeb4 8ae8 	vcmpe.f32	s16, s17
 8008926:	eef1 fa10 	vmrs	APSR_nzcv, fpscr
 800892a:	dded      	ble.n	8008908 <fmaxf+0x14>
 800892c:	e7ee      	b.n	800890c <fmaxf+0x18>

0800892e <fminf>:
 800892e:	b508      	push	{r3, lr}
 8008930:	ed2d 8b02 	vpush	{d8}
 8008934:	eeb0 8a40 	vmov.f32	s16, s0
 8008938:	eef0 8a60 	vmov.f32	s17, s1
 800893c:	f000 f814 	bl	8008968 <__fpclassifyf>
 8008940:	b930      	cbnz	r0, 8008950 <fminf+0x22>
 8008942:	eeb0 8a68 	vmov.f32	s16, s17
 8008946:	eeb0 0a48 	vmov.f32	s0, s16
 800894a:	ecbd 8b02 	vpop	{d8}
 800894e:	bd08      	pop	{r3, pc}
 8008950:	eeb0 0a68 	vmov.f32	s0, s17
 8008954:	f000 f808 	bl	8008968 <__fpclassifyf>
 8008958:	2800      	cmp	r0, #0
 800895a:	d0f4      	beq.n	8008946 <fminf+0x18>
 800895c:	eeb4 8ae8 	vcmpe.f32	s16, s17
 8008960:	eef1 fa10 	vmrs	APSR_nzcv, fpscr
 8008964:	d5ed      	bpl.n	8008942 <fminf+0x14>
 8008966:	e7ee      	b.n	8008946 <fminf+0x18>

08008968 <__fpclassifyf>:
 8008968:	ee10 3a10 	vmov	r3, s0
 800896c:	f033 4000 	bics.w	r0, r3, #2147483648	@ 0x80000000
 8008970:	d00d      	beq.n	800898e <__fpclassifyf+0x26>
 8008972:	f5a0 0300 	sub.w	r3, r0, #8388608	@ 0x800000
 8008976:	f1b3 4ffe 	cmp.w	r3, #2130706432	@ 0x7f000000
 800897a:	d30a      	bcc.n	8008992 <__fpclassifyf+0x2a>
 800897c:	4b07      	ldr	r3, [pc, #28]	@ (800899c <__fpclassifyf+0x34>)
 800897e:	1e42      	subs	r2, r0, #1
 8008980:	429a      	cmp	r2, r3
 8008982:	d908      	bls.n	8008996 <__fpclassifyf+0x2e>
 8008984:	f1a0 43ff 	sub.w	r3, r0, #2139095040	@ 0x7f800000
 8008988:	4258      	negs	r0, r3
 800898a:	4158      	adcs	r0, r3
 800898c:	4770      	bx	lr
 800898e:	2002      	movs	r0, #2
 8008990:	4770      	bx	lr
 8008992:	2004      	movs	r0, #4
 8008994:	4770      	bx	lr
 8008996:	2003      	movs	r0, #3
 8008998:	4770      	bx	lr
 800899a:	bf00      	nop
 800899c:	007ffffe 	.word	0x007ffffe

080089a0 <__ieee754_sqrtf>:
 80089a0:	eeb1 0ac0 	vsqrt.f32	s0, s0
 80089a4:	4770      	bx	lr
	...

080089a8 <__kernel_cosf>:
 80089a8:	ee10 3a10 	vmov	r3, s0
 80089ac:	f023 4300 	bic.w	r3, r3, #2147483648	@ 0x80000000
 80089b0:	f1b3 5f48 	cmp.w	r3, #838860800	@ 0x32000000
 80089b4:	eef0 6a40 	vmov.f32	s13, s0
 80089b8:	eeb7 0a00 	vmov.f32	s0, #112	@ 0x3f800000  1.0
 80089bc:	d204      	bcs.n	80089c8 <__kernel_cosf+0x20>
 80089be:	eefd 7ae6 	vcvt.s32.f32	s15, s13
 80089c2:	ee17 2a90 	vmov	r2, s15
 80089c6:	b342      	cbz	r2, 8008a1a <__kernel_cosf+0x72>
 80089c8:	ee26 7aa6 	vmul.f32	s14, s13, s13
 80089cc:	eddf 7a1a 	vldr	s15, [pc, #104]	@ 8008a38 <__kernel_cosf+0x90>
 80089d0:	ed9f 6a1a 	vldr	s12, [pc, #104]	@ 8008a3c <__kernel_cosf+0x94>
 80089d4:	4a1a      	ldr	r2, [pc, #104]	@ (8008a40 <__kernel_cosf+0x98>)
 80089d6:	eea7 6a27 	vfma.f32	s12, s14, s15
 80089da:	4293      	cmp	r3, r2
 80089dc:	eddf 7a19 	vldr	s15, [pc, #100]	@ 8008a44 <__kernel_cosf+0x9c>
 80089e0:	eee6 7a07 	vfma.f32	s15, s12, s14
 80089e4:	ed9f 6a18 	vldr	s12, [pc, #96]	@ 8008a48 <__kernel_cosf+0xa0>
 80089e8:	eea7 6a87 	vfma.f32	s12, s15, s14
 80089ec:	eddf 7a17 	vldr	s15, [pc, #92]	@ 8008a4c <__kernel_cosf+0xa4>
 80089f0:	eee6 7a07 	vfma.f32	s15, s12, s14
 80089f4:	ed9f 6a16 	vldr	s12, [pc, #88]	@ 8008a50 <__kernel_cosf+0xa8>
 80089f8:	eea7 6a87 	vfma.f32	s12, s15, s14
 80089fc:	ee60 0ae6 	vnmul.f32	s1, s1, s13
 8008a00:	ee26 6a07 	vmul.f32	s12, s12, s14
 8008a04:	eef6 7a00 	vmov.f32	s15, #96	@ 0x3f000000  0.5
 8008a08:	eee7 0a06 	vfma.f32	s1, s14, s12
 8008a0c:	ee67 7a27 	vmul.f32	s15, s14, s15
 8008a10:	d804      	bhi.n	8008a1c <__kernel_cosf+0x74>
 8008a12:	ee77 7ae0 	vsub.f32	s15, s15, s1
 8008a16:	ee30 0a67 	vsub.f32	s0, s0, s15
 8008a1a:	4770      	bx	lr
 8008a1c:	4a0d      	ldr	r2, [pc, #52]	@ (8008a54 <__kernel_cosf+0xac>)
 8008a1e:	4293      	cmp	r3, r2
 8008a20:	bf9a      	itte	ls
 8008a22:	f103 437f 	addls.w	r3, r3, #4278190080	@ 0xff000000
 8008a26:	ee07 3a10 	vmovls	s14, r3
 8008a2a:	eeb5 7a02 	vmovhi.f32	s14, #82	@ 0x3e900000  0.2812500
 8008a2e:	ee30 0a47 	vsub.f32	s0, s0, s14
 8008a32:	ee77 7ac7 	vsub.f32	s15, s15, s14
 8008a36:	e7ec      	b.n	8008a12 <__kernel_cosf+0x6a>
 8008a38:	ad47d74e 	.word	0xad47d74e
 8008a3c:	310f74f6 	.word	0x310f74f6
 8008a40:	3e999999 	.word	0x3e999999
 8008a44:	b493f27c 	.word	0xb493f27c
 8008a48:	37d00d01 	.word	0x37d00d01
 8008a4c:	bab60b61 	.word	0xbab60b61
 8008a50:	3d2aaaab 	.word	0x3d2aaaab
 8008a54:	3f480000 	.word	0x3f480000

08008a58 <__kernel_sinf>:
 8008a58:	ee10 3a10 	vmov	r3, s0
 8008a5c:	f023 4300 	bic.w	r3, r3, #2147483648	@ 0x80000000
 8008a60:	f1b3 5f48 	cmp.w	r3, #838860800	@ 0x32000000
 8008a64:	d204      	bcs.n	8008a70 <__kernel_sinf+0x18>
 8008a66:	eefd 7ac0 	vcvt.s32.f32	s15, s0
 8008a6a:	ee17 3a90 	vmov	r3, s15
 8008a6e:	b35b      	cbz	r3, 8008ac8 <__kernel_sinf+0x70>
 8008a70:	ee20 7a00 	vmul.f32	s14, s0, s0
 8008a74:	eddf 7a15 	vldr	s15, [pc, #84]	@ 8008acc <__kernel_sinf+0x74>
 8008a78:	ed9f 6a15 	vldr	s12, [pc, #84]	@ 8008ad0 <__kernel_sinf+0x78>
 8008a7c:	eea7 6a27 	vfma.f32	s12, s14, s15
 8008a80:	eddf 7a14 	vldr	s15, [pc, #80]	@ 8008ad4 <__kernel_sinf+0x7c>
 8008a84:	eee6 7a07 	vfma.f32	s15, s12, s14
 8008a88:	ed9f 6a13 	vldr	s12, [pc, #76]	@ 8008ad8 <__kernel_sinf+0x80>
 8008a8c:	eea7 6a87 	vfma.f32	s12, s15, s14
 8008a90:	eddf 7a12 	vldr	s15, [pc, #72]	@ 8008adc <__kernel_sinf+0x84>
 8008a94:	ee60 6a07 	vmul.f32	s13, s0, s14
 8008a98:	eee6 7a07 	vfma.f32	s15, s12, s14
 8008a9c:	b930      	cbnz	r0, 8008aac <__kernel_sinf+0x54>
 8008a9e:	ed9f 6a10 	vldr	s12, [pc, #64]	@ 8008ae0 <__kernel_sinf+0x88>
 8008aa2:	eea7 6a27 	vfma.f32	s12, s14, s15
 8008aa6:	eea6 0a26 	vfma.f32	s0, s12, s13
 8008aaa:	4770      	bx	lr
 8008aac:	ee67 7ae6 	vnmul.f32	s15, s15, s13
 8008ab0:	eeb6 6a00 	vmov.f32	s12, #96	@ 0x3f000000  0.5
 8008ab4:	eee0 7a86 	vfma.f32	s15, s1, s12
 8008ab8:	eed7 0a87 	vfnms.f32	s1, s15, s14
 8008abc:	eddf 7a09 	vldr	s15, [pc, #36]	@ 8008ae4 <__kernel_sinf+0x8c>
 8008ac0:	eee6 0aa7 	vfma.f32	s1, s13, s15
 8008ac4:	ee30 0a60 	vsub.f32	s0, s0, s1
 8008ac8:	4770      	bx	lr
 8008aca:	bf00      	nop
 8008acc:	2f2ec9d3 	.word	0x2f2ec9d3
 8008ad0:	b2d72f34 	.word	0xb2d72f34
 8008ad4:	3638ef1b 	.word	0x3638ef1b
 8008ad8:	b9500d01 	.word	0xb9500d01
 8008adc:	3c088889 	.word	0x3c088889
 8008ae0:	be2aaaab 	.word	0xbe2aaaab
 8008ae4:	3e2aaaab 	.word	0x3e2aaaab

08008ae8 <__ieee754_rem_pio2f>:
 8008ae8:	b5f0      	push	{r4, r5, r6, r7, lr}
 8008aea:	ee10 6a10 	vmov	r6, s0
 8008aee:	4b88      	ldr	r3, [pc, #544]	@ (8008d10 <__ieee754_rem_pio2f+0x228>)
 8008af0:	f026 4500 	bic.w	r5, r6, #2147483648	@ 0x80000000
 8008af4:	429d      	cmp	r5, r3
 8008af6:	b087      	sub	sp, #28
 8008af8:	4604      	mov	r4, r0
 8008afa:	d805      	bhi.n	8008b08 <__ieee754_rem_pio2f+0x20>
 8008afc:	2300      	movs	r3, #0
 8008afe:	ed80 0a00 	vstr	s0, [r0]
 8008b02:	6043      	str	r3, [r0, #4]
 8008b04:	2000      	movs	r0, #0
 8008b06:	e022      	b.n	8008b4e <__ieee754_rem_pio2f+0x66>
 8008b08:	4b82      	ldr	r3, [pc, #520]	@ (8008d14 <__ieee754_rem_pio2f+0x22c>)
 8008b0a:	429d      	cmp	r5, r3
 8008b0c:	d83a      	bhi.n	8008b84 <__ieee754_rem_pio2f+0x9c>
 8008b0e:	f026 4300 	bic.w	r3, r6, #2147483648	@ 0x80000000
 8008b12:	2e00      	cmp	r6, #0
 8008b14:	ed9f 7a80 	vldr	s14, [pc, #512]	@ 8008d18 <__ieee754_rem_pio2f+0x230>
 8008b18:	4a80      	ldr	r2, [pc, #512]	@ (8008d1c <__ieee754_rem_pio2f+0x234>)
 8008b1a:	f023 030f 	bic.w	r3, r3, #15
 8008b1e:	dd18      	ble.n	8008b52 <__ieee754_rem_pio2f+0x6a>
 8008b20:	4293      	cmp	r3, r2
 8008b22:	ee70 7a47 	vsub.f32	s15, s0, s14
 8008b26:	bf09      	itett	eq
 8008b28:	ed9f 7a7d 	vldreq	s14, [pc, #500]	@ 8008d20 <__ieee754_rem_pio2f+0x238>
 8008b2c:	eddf 6a7d 	vldrne	s13, [pc, #500]	@ 8008d24 <__ieee754_rem_pio2f+0x23c>
 8008b30:	eddf 6a7d 	vldreq	s13, [pc, #500]	@ 8008d28 <__ieee754_rem_pio2f+0x240>
 8008b34:	ee77 7ac7 	vsubeq.f32	s15, s15, s14
 8008b38:	ee37 7ae6 	vsub.f32	s14, s15, s13
 8008b3c:	ee77 7ac7 	vsub.f32	s15, s15, s14
 8008b40:	ed80 7a00 	vstr	s14, [r0]
 8008b44:	ee77 7ae6 	vsub.f32	s15, s15, s13
 8008b48:	edc0 7a01 	vstr	s15, [r0, #4]
 8008b4c:	2001      	movs	r0, #1
 8008b4e:	b007      	add	sp, #28
 8008b50:	bdf0      	pop	{r4, r5, r6, r7, pc}
 8008b52:	4293      	cmp	r3, r2
 8008b54:	ee70 7a07 	vadd.f32	s15, s0, s14
 8008b58:	bf09      	itett	eq
 8008b5a:	ed9f 7a71 	vldreq	s14, [pc, #452]	@ 8008d20 <__ieee754_rem_pio2f+0x238>
 8008b5e:	eddf 6a71 	vldrne	s13, [pc, #452]	@ 8008d24 <__ieee754_rem_pio2f+0x23c>
 8008b62:	eddf 6a71 	vldreq	s13, [pc, #452]	@ 8008d28 <__ieee754_rem_pio2f+0x240>
 8008b66:	ee77 7a87 	vaddeq.f32	s15, s15, s14
 8008b6a:	ee37 7aa6 	vadd.f32	s14, s15, s13
 8008b6e:	ee77 7ac7 	vsub.f32	s15, s15, s14
 8008b72:	ed80 7a00 	vstr	s14, [r0]
 8008b76:	ee77 7aa6 	vadd.f32	s15, s15, s13
 8008b7a:	edc0 7a01 	vstr	s15, [r0, #4]
 8008b7e:	f04f 30ff 	mov.w	r0, #4294967295
 8008b82:	e7e4      	b.n	8008b4e <__ieee754_rem_pio2f+0x66>
 8008b84:	4b69      	ldr	r3, [pc, #420]	@ (8008d2c <__ieee754_rem_pio2f+0x244>)
 8008b86:	429d      	cmp	r5, r3
 8008b88:	d873      	bhi.n	8008c72 <__ieee754_rem_pio2f+0x18a>
 8008b8a:	f000 f8dd 	bl	8008d48 <fabsf>
 8008b8e:	ed9f 7a68 	vldr	s14, [pc, #416]	@ 8008d30 <__ieee754_rem_pio2f+0x248>
 8008b92:	eef6 7a00 	vmov.f32	s15, #96	@ 0x3f000000  0.5
 8008b96:	eee0 7a07 	vfma.f32	s15, s0, s14
 8008b9a:	eefd 7ae7 	vcvt.s32.f32	s15, s15
 8008b9e:	eeb8 7ae7 	vcvt.f32.s32	s14, s15
 8008ba2:	ee17 0a90 	vmov	r0, s15
 8008ba6:	eddf 7a5c 	vldr	s15, [pc, #368]	@ 8008d18 <__ieee754_rem_pio2f+0x230>
 8008baa:	eea7 0a67 	vfms.f32	s0, s14, s15
 8008bae:	281f      	cmp	r0, #31
 8008bb0:	eddf 7a5c 	vldr	s15, [pc, #368]	@ 8008d24 <__ieee754_rem_pio2f+0x23c>
 8008bb4:	ee67 7a27 	vmul.f32	s15, s14, s15
 8008bb8:	eeb1 6a47 	vneg.f32	s12, s14
 8008bbc:	ee70 6a67 	vsub.f32	s13, s0, s15
 8008bc0:	ee16 1a90 	vmov	r1, s13
 8008bc4:	dc09      	bgt.n	8008bda <__ieee754_rem_pio2f+0xf2>
 8008bc6:	4a5b      	ldr	r2, [pc, #364]	@ (8008d34 <__ieee754_rem_pio2f+0x24c>)
 8008bc8:	1e47      	subs	r7, r0, #1
 8008bca:	f026 4300 	bic.w	r3, r6, #2147483648	@ 0x80000000
 8008bce:	f852 2027 	ldr.w	r2, [r2, r7, lsl #2]
 8008bd2:	f023 03ff 	bic.w	r3, r3, #255	@ 0xff
 8008bd6:	4293      	cmp	r3, r2
 8008bd8:	d107      	bne.n	8008bea <__ieee754_rem_pio2f+0x102>
 8008bda:	f3c1 52c7 	ubfx	r2, r1, #23, #8
 8008bde:	ebc2 52d5 	rsb	r2, r2, r5, lsr #23
 8008be2:	2a08      	cmp	r2, #8
 8008be4:	ea4f 53e5 	mov.w	r3, r5, asr #23
 8008be8:	dc14      	bgt.n	8008c14 <__ieee754_rem_pio2f+0x12c>
 8008bea:	6021      	str	r1, [r4, #0]
 8008bec:	ed94 7a00 	vldr	s14, [r4]
 8008bf0:	ee30 0a47 	vsub.f32	s0, s0, s14
 8008bf4:	2e00      	cmp	r6, #0
 8008bf6:	ee30 0a67 	vsub.f32	s0, s0, s15
 8008bfa:	ed84 0a01 	vstr	s0, [r4, #4]
 8008bfe:	daa6      	bge.n	8008b4e <__ieee754_rem_pio2f+0x66>
 8008c00:	eeb1 7a47 	vneg.f32	s14, s14
 8008c04:	eeb1 0a40 	vneg.f32	s0, s0
 8008c08:	ed84 7a00 	vstr	s14, [r4]
 8008c0c:	ed84 0a01 	vstr	s0, [r4, #4]
 8008c10:	4240      	negs	r0, r0
 8008c12:	e79c      	b.n	8008b4e <__ieee754_rem_pio2f+0x66>
 8008c14:	eddf 5a42 	vldr	s11, [pc, #264]	@ 8008d20 <__ieee754_rem_pio2f+0x238>
 8008c18:	eef0 6a40 	vmov.f32	s13, s0
 8008c1c:	eee6 6a25 	vfma.f32	s13, s12, s11
 8008c20:	ee70 7a66 	vsub.f32	s15, s0, s13
 8008c24:	eee6 7a25 	vfma.f32	s15, s12, s11
 8008c28:	eddf 5a3f 	vldr	s11, [pc, #252]	@ 8008d28 <__ieee754_rem_pio2f+0x240>
 8008c2c:	eed7 7a25 	vfnms.f32	s15, s14, s11
 8008c30:	ee76 5ae7 	vsub.f32	s11, s13, s15
 8008c34:	ee15 2a90 	vmov	r2, s11
 8008c38:	f3c2 51c7 	ubfx	r1, r2, #23, #8
 8008c3c:	1a5b      	subs	r3, r3, r1
 8008c3e:	2b19      	cmp	r3, #25
 8008c40:	dc04      	bgt.n	8008c4c <__ieee754_rem_pio2f+0x164>
 8008c42:	edc4 5a00 	vstr	s11, [r4]
 8008c46:	eeb0 0a66 	vmov.f32	s0, s13
 8008c4a:	e7cf      	b.n	8008bec <__ieee754_rem_pio2f+0x104>
 8008c4c:	eddf 5a3a 	vldr	s11, [pc, #232]	@ 8008d38 <__ieee754_rem_pio2f+0x250>
 8008c50:	eeb0 0a66 	vmov.f32	s0, s13
 8008c54:	eea6 0a25 	vfma.f32	s0, s12, s11
 8008c58:	ee76 7ac0 	vsub.f32	s15, s13, s0
 8008c5c:	eddf 6a37 	vldr	s13, [pc, #220]	@ 8008d3c <__ieee754_rem_pio2f+0x254>
 8008c60:	eee6 7a25 	vfma.f32	s15, s12, s11
 8008c64:	eed7 7a26 	vfnms.f32	s15, s14, s13
 8008c68:	ee30 7a67 	vsub.f32	s14, s0, s15
 8008c6c:	ed84 7a00 	vstr	s14, [r4]
 8008c70:	e7bc      	b.n	8008bec <__ieee754_rem_pio2f+0x104>
 8008c72:	f1b5 4fff 	cmp.w	r5, #2139095040	@ 0x7f800000
 8008c76:	d306      	bcc.n	8008c86 <__ieee754_rem_pio2f+0x19e>
 8008c78:	ee70 7a40 	vsub.f32	s15, s0, s0
 8008c7c:	edc0 7a01 	vstr	s15, [r0, #4]
 8008c80:	edc0 7a00 	vstr	s15, [r0]
 8008c84:	e73e      	b.n	8008b04 <__ieee754_rem_pio2f+0x1c>
 8008c86:	15ea      	asrs	r2, r5, #23
 8008c88:	3a86      	subs	r2, #134	@ 0x86
 8008c8a:	eba5 53c2 	sub.w	r3, r5, r2, lsl #23
 8008c8e:	ee07 3a90 	vmov	s15, r3
 8008c92:	eebd 7ae7 	vcvt.s32.f32	s14, s15
 8008c96:	eddf 6a2a 	vldr	s13, [pc, #168]	@ 8008d40 <__ieee754_rem_pio2f+0x258>
 8008c9a:	eeb8 7ac7 	vcvt.f32.s32	s14, s14
 8008c9e:	ee77 7ac7 	vsub.f32	s15, s15, s14
 8008ca2:	ed8d 7a03 	vstr	s14, [sp, #12]
 8008ca6:	ee67 7aa6 	vmul.f32	s15, s15, s13
 8008caa:	eebd 7ae7 	vcvt.s32.f32	s14, s15
 8008cae:	eeb8 7ac7 	vcvt.f32.s32	s14, s14
 8008cb2:	ee77 7ac7 	vsub.f32	s15, s15, s14
 8008cb6:	ed8d 7a04 	vstr	s14, [sp, #16]
 8008cba:	ee67 7aa6 	vmul.f32	s15, s15, s13
 8008cbe:	eef5 7a40 	vcmp.f32	s15, #0.0
 8008cc2:	eef1 fa10 	vmrs	APSR_nzcv, fpscr
 8008cc6:	edcd 7a05 	vstr	s15, [sp, #20]
 8008cca:	d11e      	bne.n	8008d0a <__ieee754_rem_pio2f+0x222>
 8008ccc:	eeb5 7a40 	vcmp.f32	s14, #0.0
 8008cd0:	eef1 fa10 	vmrs	APSR_nzcv, fpscr
 8008cd4:	bf0c      	ite	eq
 8008cd6:	2301      	moveq	r3, #1
 8008cd8:	2302      	movne	r3, #2
 8008cda:	491a      	ldr	r1, [pc, #104]	@ (8008d44 <__ieee754_rem_pio2f+0x25c>)
 8008cdc:	9101      	str	r1, [sp, #4]
 8008cde:	2102      	movs	r1, #2
 8008ce0:	9100      	str	r1, [sp, #0]
 8008ce2:	a803      	add	r0, sp, #12
 8008ce4:	4621      	mov	r1, r4
 8008ce6:	f000 f837 	bl	8008d58 <__kernel_rem_pio2f>
 8008cea:	2e00      	cmp	r6, #0
 8008cec:	f6bf af2f 	bge.w	8008b4e <__ieee754_rem_pio2f+0x66>
 8008cf0:	edd4 7a00 	vldr	s15, [r4]
 8008cf4:	eef1 7a67 	vneg.f32	s15, s15
 8008cf8:	edc4 7a00 	vstr	s15, [r4]
 8008cfc:	edd4 7a01 	vldr	s15, [r4, #4]
 8008d00:	eef1 7a67 	vneg.f32	s15, s15
 8008d04:	edc4 7a01 	vstr	s15, [r4, #4]
 8008d08:	e782      	b.n	8008c10 <__ieee754_rem_pio2f+0x128>
 8008d0a:	2303      	movs	r3, #3
 8008d0c:	e7e5      	b.n	8008cda <__ieee754_rem_pio2f+0x1f2>
 8008d0e:	bf00      	nop
 8008d10:	3f490fd8 	.word	0x3f490fd8
 8008d14:	4016cbe3 	.word	0x4016cbe3
 8008d18:	3fc90f80 	.word	0x3fc90f80
 8008d1c:	3fc90fd0 	.word	0x3fc90fd0
 8008d20:	37354400 	.word	0x37354400
 8008d24:	37354443 	.word	0x37354443
 8008d28:	2e85a308 	.word	0x2e85a308
 8008d2c:	43490f80 	.word	0x43490f80
 8008d30:	3f22f984 	.word	0x3f22f984
 8008d34:	0800c42c 	.word	0x0800c42c
 8008d38:	2e85a300 	.word	0x2e85a300
 8008d3c:	248d3132 	.word	0x248d3132
 8008d40:	43800000 	.word	0x43800000
 8008d44:	0800c4ac 	.word	0x0800c4ac

08008d48 <fabsf>:
 8008d48:	ee10 3a10 	vmov	r3, s0
 8008d4c:	f023 4300 	bic.w	r3, r3, #2147483648	@ 0x80000000
 8008d50:	ee00 3a10 	vmov	s0, r3
 8008d54:	4770      	bx	lr
	...

08008d58 <__kernel_rem_pio2f>:
 8008d58:	e92d 4ff0 	stmdb	sp!, {r4, r5, r6, r7, r8, r9, sl, fp, lr}
 8008d5c:	ed2d 8b04 	vpush	{d8-d9}
 8008d60:	b0d9      	sub	sp, #356	@ 0x164
 8008d62:	4690      	mov	r8, r2
 8008d64:	9001      	str	r0, [sp, #4]
 8008d66:	4ab6      	ldr	r2, [pc, #728]	@ (8009040 <__kernel_rem_pio2f+0x2e8>)
 8008d68:	9866      	ldr	r0, [sp, #408]	@ 0x198
 8008d6a:	f118 0f04 	cmn.w	r8, #4
 8008d6e:	f852 a020 	ldr.w	sl, [r2, r0, lsl #2]
 8008d72:	460f      	mov	r7, r1
 8008d74:	f103 3bff 	add.w	fp, r3, #4294967295
 8008d78:	db26      	blt.n	8008dc8 <__kernel_rem_pio2f+0x70>
 8008d7a:	f1b8 0203 	subs.w	r2, r8, #3
 8008d7e:	bf48      	it	mi
 8008d80:	f108 0204 	addmi.w	r2, r8, #4
 8008d84:	10d2      	asrs	r2, r2, #3
 8008d86:	1c55      	adds	r5, r2, #1
 8008d88:	9967      	ldr	r1, [sp, #412]	@ 0x19c
 8008d8a:	ed9f 7ab1 	vldr	s14, [pc, #708]	@ 8009050 <__kernel_rem_pio2f+0x2f8>
 8008d8e:	00e8      	lsls	r0, r5, #3
 8008d90:	eba2 060b 	sub.w	r6, r2, fp
 8008d94:	9002      	str	r0, [sp, #8]
 8008d96:	eba8 05c5 	sub.w	r5, r8, r5, lsl #3
 8008d9a:	eb0a 0c0b 	add.w	ip, sl, fp
 8008d9e:	ac1c      	add	r4, sp, #112	@ 0x70
 8008da0:	eb01 0e86 	add.w	lr, r1, r6, lsl #2
 8008da4:	2000      	movs	r0, #0
 8008da6:	4560      	cmp	r0, ip
 8008da8:	dd10      	ble.n	8008dcc <__kernel_rem_pio2f+0x74>
 8008daa:	a91c      	add	r1, sp, #112	@ 0x70
 8008dac:	eb01 0083 	add.w	r0, r1, r3, lsl #2
 8008db0:	f50d 7988 	add.w	r9, sp, #272	@ 0x110
 8008db4:	2600      	movs	r6, #0
 8008db6:	4556      	cmp	r6, sl
 8008db8:	dc24      	bgt.n	8008e04 <__kernel_rem_pio2f+0xac>
 8008dba:	f8dd e004 	ldr.w	lr, [sp, #4]
 8008dbe:	eddf 7aa4 	vldr	s15, [pc, #656]	@ 8009050 <__kernel_rem_pio2f+0x2f8>
 8008dc2:	4684      	mov	ip, r0
 8008dc4:	2400      	movs	r4, #0
 8008dc6:	e016      	b.n	8008df6 <__kernel_rem_pio2f+0x9e>
 8008dc8:	2200      	movs	r2, #0
 8008dca:	e7dc      	b.n	8008d86 <__kernel_rem_pio2f+0x2e>
 8008dcc:	42c6      	cmn	r6, r0
 8008dce:	bf5d      	ittte	pl
 8008dd0:	f85e 1020 	ldrpl.w	r1, [lr, r0, lsl #2]
 8008dd4:	ee07 1a90 	vmovpl	s15, r1
 8008dd8:	eef8 7ae7 	vcvtpl.f32.s32	s15, s15
 8008ddc:	eef0 7a47 	vmovmi.f32	s15, s14
 8008de0:	ece4 7a01 	vstmia	r4!, {s15}
 8008de4:	3001      	adds	r0, #1
 8008de6:	e7de      	b.n	8008da6 <__kernel_rem_pio2f+0x4e>
 8008de8:	ecfe 6a01 	vldmia	lr!, {s13}
 8008dec:	ed3c 7a01 	vldmdb	ip!, {s14}
 8008df0:	eee6 7a87 	vfma.f32	s15, s13, s14
 8008df4:	3401      	adds	r4, #1
 8008df6:	455c      	cmp	r4, fp
 8008df8:	ddf6      	ble.n	8008de8 <__kernel_rem_pio2f+0x90>
 8008dfa:	ece9 7a01 	vstmia	r9!, {s15}
 8008dfe:	3601      	adds	r6, #1
 8008e00:	3004      	adds	r0, #4
 8008e02:	e7d8      	b.n	8008db6 <__kernel_rem_pio2f+0x5e>
 8008e04:	a908      	add	r1, sp, #32
 8008e06:	eb01 018a 	add.w	r1, r1, sl, lsl #2
 8008e0a:	9104      	str	r1, [sp, #16]
 8008e0c:	9967      	ldr	r1, [sp, #412]	@ 0x19c
 8008e0e:	eddf 8a8f 	vldr	s17, [pc, #572]	@ 800904c <__kernel_rem_pio2f+0x2f4>
 8008e12:	ed9f 9a8d 	vldr	s18, [pc, #564]	@ 8009048 <__kernel_rem_pio2f+0x2f0>
 8008e16:	eb01 0282 	add.w	r2, r1, r2, lsl #2
 8008e1a:	9203      	str	r2, [sp, #12]
 8008e1c:	4654      	mov	r4, sl
 8008e1e:	00a2      	lsls	r2, r4, #2
 8008e20:	9205      	str	r2, [sp, #20]
 8008e22:	aa58      	add	r2, sp, #352	@ 0x160
 8008e24:	eb02 0284 	add.w	r2, r2, r4, lsl #2
 8008e28:	ed12 0a14 	vldr	s0, [r2, #-80]	@ 0xffffffb0
 8008e2c:	a944      	add	r1, sp, #272	@ 0x110
 8008e2e:	aa08      	add	r2, sp, #32
 8008e30:	eb01 0084 	add.w	r0, r1, r4, lsl #2
 8008e34:	4694      	mov	ip, r2
 8008e36:	4626      	mov	r6, r4
 8008e38:	2e00      	cmp	r6, #0
 8008e3a:	dc4c      	bgt.n	8008ed6 <__kernel_rem_pio2f+0x17e>
 8008e3c:	4628      	mov	r0, r5
 8008e3e:	e9cd 2306 	strd	r2, r3, [sp, #24]
 8008e42:	f000 f9f1 	bl	8009228 <scalbnf>
 8008e46:	eeb0 8a40 	vmov.f32	s16, s0
 8008e4a:	eeb4 0a00 	vmov.f32	s0, #64	@ 0x3e000000  0.125
 8008e4e:	ee28 0a00 	vmul.f32	s0, s16, s0
 8008e52:	f000 fa4f 	bl	80092f4 <floorf>
 8008e56:	eef2 7a00 	vmov.f32	s15, #32	@ 0x41000000  8.0
 8008e5a:	eea0 8a67 	vfms.f32	s16, s0, s15
 8008e5e:	2d00      	cmp	r5, #0
 8008e60:	e9dd 2306 	ldrd	r2, r3, [sp, #24]
 8008e64:	eefd 7ac8 	vcvt.s32.f32	s15, s16
 8008e68:	ee17 9a90 	vmov	r9, s15
 8008e6c:	eef8 7ae7 	vcvt.f32.s32	s15, s15
 8008e70:	ee38 8a67 	vsub.f32	s16, s16, s15
 8008e74:	dd41      	ble.n	8008efa <__kernel_rem_pio2f+0x1a2>
 8008e76:	f104 3cff 	add.w	ip, r4, #4294967295
 8008e7a:	a908      	add	r1, sp, #32
 8008e7c:	f1c5 0e08 	rsb	lr, r5, #8
 8008e80:	f851 602c 	ldr.w	r6, [r1, ip, lsl #2]
 8008e84:	fa46 f00e 	asr.w	r0, r6, lr
 8008e88:	4481      	add	r9, r0
 8008e8a:	fa00 f00e 	lsl.w	r0, r0, lr
 8008e8e:	1a36      	subs	r6, r6, r0
 8008e90:	f1c5 0007 	rsb	r0, r5, #7
 8008e94:	f841 602c 	str.w	r6, [r1, ip, lsl #2]
 8008e98:	4106      	asrs	r6, r0
 8008e9a:	2e00      	cmp	r6, #0
 8008e9c:	dd3c      	ble.n	8008f18 <__kernel_rem_pio2f+0x1c0>
 8008e9e:	f04f 0e00 	mov.w	lr, #0
 8008ea2:	f109 0901 	add.w	r9, r9, #1
 8008ea6:	4670      	mov	r0, lr
 8008ea8:	4574      	cmp	r4, lr
 8008eaa:	dc68      	bgt.n	8008f7e <__kernel_rem_pio2f+0x226>
 8008eac:	2d00      	cmp	r5, #0
 8008eae:	dd03      	ble.n	8008eb8 <__kernel_rem_pio2f+0x160>
 8008eb0:	2d01      	cmp	r5, #1
 8008eb2:	d074      	beq.n	8008f9e <__kernel_rem_pio2f+0x246>
 8008eb4:	2d02      	cmp	r5, #2
 8008eb6:	d07d      	beq.n	8008fb4 <__kernel_rem_pio2f+0x25c>
 8008eb8:	2e02      	cmp	r6, #2
 8008eba:	d12d      	bne.n	8008f18 <__kernel_rem_pio2f+0x1c0>
 8008ebc:	eeb7 0a00 	vmov.f32	s0, #112	@ 0x3f800000  1.0
 8008ec0:	ee30 8a48 	vsub.f32	s16, s0, s16
 8008ec4:	b340      	cbz	r0, 8008f18 <__kernel_rem_pio2f+0x1c0>
 8008ec6:	4628      	mov	r0, r5
 8008ec8:	9306      	str	r3, [sp, #24]
 8008eca:	f000 f9ad 	bl	8009228 <scalbnf>
 8008ece:	9b06      	ldr	r3, [sp, #24]
 8008ed0:	ee38 8a40 	vsub.f32	s16, s16, s0
 8008ed4:	e020      	b.n	8008f18 <__kernel_rem_pio2f+0x1c0>
 8008ed6:	ee60 7a28 	vmul.f32	s15, s0, s17
 8008eda:	3e01      	subs	r6, #1
 8008edc:	eefd 7ae7 	vcvt.s32.f32	s15, s15
 8008ee0:	eef8 7ae7 	vcvt.f32.s32	s15, s15
 8008ee4:	eea7 0ac9 	vfms.f32	s0, s15, s18
 8008ee8:	eebd 0ac0 	vcvt.s32.f32	s0, s0
 8008eec:	ecac 0a01 	vstmia	ip!, {s0}
 8008ef0:	ed30 0a01 	vldmdb	r0!, {s0}
 8008ef4:	ee37 0a80 	vadd.f32	s0, s15, s0
 8008ef8:	e79e      	b.n	8008e38 <__kernel_rem_pio2f+0xe0>
 8008efa:	d105      	bne.n	8008f08 <__kernel_rem_pio2f+0x1b0>
 8008efc:	1e60      	subs	r0, r4, #1
 8008efe:	a908      	add	r1, sp, #32
 8008f00:	f851 6020 	ldr.w	r6, [r1, r0, lsl #2]
 8008f04:	11f6      	asrs	r6, r6, #7
 8008f06:	e7c8      	b.n	8008e9a <__kernel_rem_pio2f+0x142>
 8008f08:	eef6 7a00 	vmov.f32	s15, #96	@ 0x3f000000  0.5
 8008f0c:	eeb4 8ae7 	vcmpe.f32	s16, s15
 8008f10:	eef1 fa10 	vmrs	APSR_nzcv, fpscr
 8008f14:	da31      	bge.n	8008f7a <__kernel_rem_pio2f+0x222>
 8008f16:	2600      	movs	r6, #0
 8008f18:	eeb5 8a40 	vcmp.f32	s16, #0.0
 8008f1c:	eef1 fa10 	vmrs	APSR_nzcv, fpscr
 8008f20:	f040 8098 	bne.w	8009054 <__kernel_rem_pio2f+0x2fc>
 8008f24:	1e60      	subs	r0, r4, #1
 8008f26:	2200      	movs	r2, #0
 8008f28:	4550      	cmp	r0, sl
 8008f2a:	da4b      	bge.n	8008fc4 <__kernel_rem_pio2f+0x26c>
 8008f2c:	2a00      	cmp	r2, #0
 8008f2e:	d065      	beq.n	8008ffc <__kernel_rem_pio2f+0x2a4>
 8008f30:	3c01      	subs	r4, #1
 8008f32:	ab08      	add	r3, sp, #32
 8008f34:	3d08      	subs	r5, #8
 8008f36:	f853 3024 	ldr.w	r3, [r3, r4, lsl #2]
 8008f3a:	2b00      	cmp	r3, #0
 8008f3c:	d0f8      	beq.n	8008f30 <__kernel_rem_pio2f+0x1d8>
 8008f3e:	4628      	mov	r0, r5
 8008f40:	eeb7 0a00 	vmov.f32	s0, #112	@ 0x3f800000  1.0
 8008f44:	f000 f970 	bl	8009228 <scalbnf>
 8008f48:	1c63      	adds	r3, r4, #1
 8008f4a:	aa44      	add	r2, sp, #272	@ 0x110
 8008f4c:	ed9f 7a3f 	vldr	s14, [pc, #252]	@ 800904c <__kernel_rem_pio2f+0x2f4>
 8008f50:	0099      	lsls	r1, r3, #2
 8008f52:	eb02 0283 	add.w	r2, r2, r3, lsl #2
 8008f56:	4623      	mov	r3, r4
 8008f58:	2b00      	cmp	r3, #0
 8008f5a:	f280 80a9 	bge.w	80090b0 <__kernel_rem_pio2f+0x358>
 8008f5e:	4623      	mov	r3, r4
 8008f60:	2b00      	cmp	r3, #0
 8008f62:	f2c0 80c7 	blt.w	80090f4 <__kernel_rem_pio2f+0x39c>
 8008f66:	aa44      	add	r2, sp, #272	@ 0x110
 8008f68:	eb02 0583 	add.w	r5, r2, r3, lsl #2
 8008f6c:	f8df c0d4 	ldr.w	ip, [pc, #212]	@ 8009044 <__kernel_rem_pio2f+0x2ec>
 8008f70:	eddf 7a37 	vldr	s15, [pc, #220]	@ 8009050 <__kernel_rem_pio2f+0x2f8>
 8008f74:	2000      	movs	r0, #0
 8008f76:	1ae2      	subs	r2, r4, r3
 8008f78:	e0b1      	b.n	80090de <__kernel_rem_pio2f+0x386>
 8008f7a:	2602      	movs	r6, #2
 8008f7c:	e78f      	b.n	8008e9e <__kernel_rem_pio2f+0x146>
 8008f7e:	f852 1b04 	ldr.w	r1, [r2], #4
 8008f82:	b948      	cbnz	r0, 8008f98 <__kernel_rem_pio2f+0x240>
 8008f84:	b121      	cbz	r1, 8008f90 <__kernel_rem_pio2f+0x238>
 8008f86:	f5c1 7180 	rsb	r1, r1, #256	@ 0x100
 8008f8a:	f842 1c04 	str.w	r1, [r2, #-4]
 8008f8e:	2101      	movs	r1, #1
 8008f90:	f10e 0e01 	add.w	lr, lr, #1
 8008f94:	4608      	mov	r0, r1
 8008f96:	e787      	b.n	8008ea8 <__kernel_rem_pio2f+0x150>
 8008f98:	f1c1 01ff 	rsb	r1, r1, #255	@ 0xff
 8008f9c:	e7f5      	b.n	8008f8a <__kernel_rem_pio2f+0x232>
 8008f9e:	f104 3cff 	add.w	ip, r4, #4294967295
 8008fa2:	aa08      	add	r2, sp, #32
 8008fa4:	f852 202c 	ldr.w	r2, [r2, ip, lsl #2]
 8008fa8:	f002 027f 	and.w	r2, r2, #127	@ 0x7f
 8008fac:	a908      	add	r1, sp, #32
 8008fae:	f841 202c 	str.w	r2, [r1, ip, lsl #2]
 8008fb2:	e781      	b.n	8008eb8 <__kernel_rem_pio2f+0x160>
 8008fb4:	f104 3cff 	add.w	ip, r4, #4294967295
 8008fb8:	aa08      	add	r2, sp, #32
 8008fba:	f852 202c 	ldr.w	r2, [r2, ip, lsl #2]
 8008fbe:	f002 023f 	and.w	r2, r2, #63	@ 0x3f
 8008fc2:	e7f3      	b.n	8008fac <__kernel_rem_pio2f+0x254>
 8008fc4:	a908      	add	r1, sp, #32
 8008fc6:	f851 1020 	ldr.w	r1, [r1, r0, lsl #2]
 8008fca:	3801      	subs	r0, #1
 8008fcc:	430a      	orrs	r2, r1
 8008fce:	e7ab      	b.n	8008f28 <__kernel_rem_pio2f+0x1d0>
 8008fd0:	3201      	adds	r2, #1
 8008fd2:	f850 6d04 	ldr.w	r6, [r0, #-4]!
 8008fd6:	2e00      	cmp	r6, #0
 8008fd8:	d0fa      	beq.n	8008fd0 <__kernel_rem_pio2f+0x278>
 8008fda:	9905      	ldr	r1, [sp, #20]
 8008fdc:	f501 71b0 	add.w	r1, r1, #352	@ 0x160
 8008fe0:	eb0d 0001 	add.w	r0, sp, r1
 8008fe4:	18e6      	adds	r6, r4, r3
 8008fe6:	a91c      	add	r1, sp, #112	@ 0x70
 8008fe8:	f104 0c01 	add.w	ip, r4, #1
 8008fec:	384c      	subs	r0, #76	@ 0x4c
 8008fee:	eb01 0686 	add.w	r6, r1, r6, lsl #2
 8008ff2:	4422      	add	r2, r4
 8008ff4:	4562      	cmp	r2, ip
 8008ff6:	da04      	bge.n	8009002 <__kernel_rem_pio2f+0x2aa>
 8008ff8:	4614      	mov	r4, r2
 8008ffa:	e710      	b.n	8008e1e <__kernel_rem_pio2f+0xc6>
 8008ffc:	9804      	ldr	r0, [sp, #16]
 8008ffe:	2201      	movs	r2, #1
 8009000:	e7e7      	b.n	8008fd2 <__kernel_rem_pio2f+0x27a>
 8009002:	9903      	ldr	r1, [sp, #12]
 8009004:	f8dd e004 	ldr.w	lr, [sp, #4]
 8009008:	f851 102c 	ldr.w	r1, [r1, ip, lsl #2]
 800900c:	9105      	str	r1, [sp, #20]
 800900e:	ee07 1a90 	vmov	s15, r1
 8009012:	eef8 7ae7 	vcvt.f32.s32	s15, s15
 8009016:	2400      	movs	r4, #0
 8009018:	ece6 7a01 	vstmia	r6!, {s15}
 800901c:	eddf 7a0c 	vldr	s15, [pc, #48]	@ 8009050 <__kernel_rem_pio2f+0x2f8>
 8009020:	46b1      	mov	r9, r6
 8009022:	455c      	cmp	r4, fp
 8009024:	dd04      	ble.n	8009030 <__kernel_rem_pio2f+0x2d8>
 8009026:	ece0 7a01 	vstmia	r0!, {s15}
 800902a:	f10c 0c01 	add.w	ip, ip, #1
 800902e:	e7e1      	b.n	8008ff4 <__kernel_rem_pio2f+0x29c>
 8009030:	ecfe 6a01 	vldmia	lr!, {s13}
 8009034:	ed39 7a01 	vldmdb	r9!, {s14}
 8009038:	3401      	adds	r4, #1
 800903a:	eee6 7a87 	vfma.f32	s15, s13, s14
 800903e:	e7f0      	b.n	8009022 <__kernel_rem_pio2f+0x2ca>
 8009040:	0800c7f0 	.word	0x0800c7f0
 8009044:	0800c7c4 	.word	0x0800c7c4
 8009048:	43800000 	.word	0x43800000
 800904c:	3b800000 	.word	0x3b800000
 8009050:	00000000 	.word	0x00000000
 8009054:	9b02      	ldr	r3, [sp, #8]
 8009056:	eeb0 0a48 	vmov.f32	s0, s16
 800905a:	eba3 0008 	sub.w	r0, r3, r8
 800905e:	f000 f8e3 	bl	8009228 <scalbnf>
 8009062:	ed1f 7a07 	vldr	s14, [pc, #-28]	@ 8009048 <__kernel_rem_pio2f+0x2f0>
 8009066:	eeb4 0ac7 	vcmpe.f32	s0, s14
 800906a:	eef1 fa10 	vmrs	APSR_nzcv, fpscr
 800906e:	db19      	blt.n	80090a4 <__kernel_rem_pio2f+0x34c>
 8009070:	ed5f 7a0a 	vldr	s15, [pc, #-40]	@ 800904c <__kernel_rem_pio2f+0x2f4>
 8009074:	ee60 7a27 	vmul.f32	s15, s0, s15
 8009078:	aa08      	add	r2, sp, #32
 800907a:	eefd 7ae7 	vcvt.s32.f32	s15, s15
 800907e:	3508      	adds	r5, #8
 8009080:	eef8 7ae7 	vcvt.f32.s32	s15, s15
 8009084:	eea7 0ac7 	vfms.f32	s0, s15, s14
 8009088:	eefd 7ae7 	vcvt.s32.f32	s15, s15
 800908c:	eebd 0ac0 	vcvt.s32.f32	s0, s0
 8009090:	ee10 3a10 	vmov	r3, s0
 8009094:	f842 3024 	str.w	r3, [r2, r4, lsl #2]
 8009098:	ee17 3a90 	vmov	r3, s15
 800909c:	3401      	adds	r4, #1
 800909e:	f842 3024 	str.w	r3, [r2, r4, lsl #2]
 80090a2:	e74c      	b.n	8008f3e <__kernel_rem_pio2f+0x1e6>
 80090a4:	eebd 0ac0 	vcvt.s32.f32	s0, s0
 80090a8:	aa08      	add	r2, sp, #32
 80090aa:	ee10 3a10 	vmov	r3, s0
 80090ae:	e7f6      	b.n	800909e <__kernel_rem_pio2f+0x346>
 80090b0:	a808      	add	r0, sp, #32
 80090b2:	f850 0023 	ldr.w	r0, [r0, r3, lsl #2]
 80090b6:	9001      	str	r0, [sp, #4]
 80090b8:	ee07 0a90 	vmov	s15, r0
 80090bc:	eef8 7ae7 	vcvt.f32.s32	s15, s15
 80090c0:	3b01      	subs	r3, #1
 80090c2:	ee67 7a80 	vmul.f32	s15, s15, s0
 80090c6:	ee20 0a07 	vmul.f32	s0, s0, s14
 80090ca:	ed62 7a01 	vstmdb	r2!, {s15}
 80090ce:	e743      	b.n	8008f58 <__kernel_rem_pio2f+0x200>
 80090d0:	ecfc 6a01 	vldmia	ip!, {s13}
 80090d4:	ecb5 7a01 	vldmia	r5!, {s14}
 80090d8:	eee6 7a87 	vfma.f32	s15, s13, s14
 80090dc:	3001      	adds	r0, #1
 80090de:	4550      	cmp	r0, sl
 80090e0:	dc01      	bgt.n	80090e6 <__kernel_rem_pio2f+0x38e>
 80090e2:	4290      	cmp	r0, r2
 80090e4:	ddf4      	ble.n	80090d0 <__kernel_rem_pio2f+0x378>
 80090e6:	a858      	add	r0, sp, #352	@ 0x160
 80090e8:	eb00 0282 	add.w	r2, r0, r2, lsl #2
 80090ec:	ed42 7a28 	vstr	s15, [r2, #-160]	@ 0xffffff60
 80090f0:	3b01      	subs	r3, #1
 80090f2:	e735      	b.n	8008f60 <__kernel_rem_pio2f+0x208>
 80090f4:	9b66      	ldr	r3, [sp, #408]	@ 0x198
 80090f6:	2b02      	cmp	r3, #2
 80090f8:	dc09      	bgt.n	800910e <__kernel_rem_pio2f+0x3b6>
 80090fa:	2b00      	cmp	r3, #0
 80090fc:	dc27      	bgt.n	800914e <__kernel_rem_pio2f+0x3f6>
 80090fe:	d040      	beq.n	8009182 <__kernel_rem_pio2f+0x42a>
 8009100:	f009 0007 	and.w	r0, r9, #7
 8009104:	b059      	add	sp, #356	@ 0x164
 8009106:	ecbd 8b04 	vpop	{d8-d9}
 800910a:	e8bd 8ff0 	ldmia.w	sp!, {r4, r5, r6, r7, r8, r9, sl, fp, pc}
 800910e:	9b66      	ldr	r3, [sp, #408]	@ 0x198
 8009110:	2b03      	cmp	r3, #3
 8009112:	d1f5      	bne.n	8009100 <__kernel_rem_pio2f+0x3a8>
 8009114:	aa30      	add	r2, sp, #192	@ 0xc0
 8009116:	1f0b      	subs	r3, r1, #4
 8009118:	4413      	add	r3, r2
 800911a:	461a      	mov	r2, r3
 800911c:	4620      	mov	r0, r4
 800911e:	2800      	cmp	r0, #0
 8009120:	dc50      	bgt.n	80091c4 <__kernel_rem_pio2f+0x46c>
 8009122:	4622      	mov	r2, r4
 8009124:	2a01      	cmp	r2, #1
 8009126:	dc5d      	bgt.n	80091e4 <__kernel_rem_pio2f+0x48c>
 8009128:	ab30      	add	r3, sp, #192	@ 0xc0
 800912a:	ed5f 7a37 	vldr	s15, [pc, #-220]	@ 8009050 <__kernel_rem_pio2f+0x2f8>
 800912e:	440b      	add	r3, r1
 8009130:	2c01      	cmp	r4, #1
 8009132:	dc67      	bgt.n	8009204 <__kernel_rem_pio2f+0x4ac>
 8009134:	eddd 6a30 	vldr	s13, [sp, #192]	@ 0xc0
 8009138:	ed9d 7a31 	vldr	s14, [sp, #196]	@ 0xc4
 800913c:	2e00      	cmp	r6, #0
 800913e:	d167      	bne.n	8009210 <__kernel_rem_pio2f+0x4b8>
 8009140:	edc7 6a00 	vstr	s13, [r7]
 8009144:	ed87 7a01 	vstr	s14, [r7, #4]
 8009148:	edc7 7a02 	vstr	s15, [r7, #8]
 800914c:	e7d8      	b.n	8009100 <__kernel_rem_pio2f+0x3a8>
 800914e:	ab30      	add	r3, sp, #192	@ 0xc0
 8009150:	ed1f 7a41 	vldr	s14, [pc, #-260]	@ 8009050 <__kernel_rem_pio2f+0x2f8>
 8009154:	440b      	add	r3, r1
 8009156:	4622      	mov	r2, r4
 8009158:	2a00      	cmp	r2, #0
 800915a:	da24      	bge.n	80091a6 <__kernel_rem_pio2f+0x44e>
 800915c:	b34e      	cbz	r6, 80091b2 <__kernel_rem_pio2f+0x45a>
 800915e:	eef1 7a47 	vneg.f32	s15, s14
 8009162:	edc7 7a00 	vstr	s15, [r7]
 8009166:	eddd 7a30 	vldr	s15, [sp, #192]	@ 0xc0
 800916a:	ee77 7ac7 	vsub.f32	s15, s15, s14
 800916e:	aa31      	add	r2, sp, #196	@ 0xc4
 8009170:	2301      	movs	r3, #1
 8009172:	429c      	cmp	r4, r3
 8009174:	da20      	bge.n	80091b8 <__kernel_rem_pio2f+0x460>
 8009176:	b10e      	cbz	r6, 800917c <__kernel_rem_pio2f+0x424>
 8009178:	eef1 7a67 	vneg.f32	s15, s15
 800917c:	edc7 7a01 	vstr	s15, [r7, #4]
 8009180:	e7be      	b.n	8009100 <__kernel_rem_pio2f+0x3a8>
 8009182:	ab30      	add	r3, sp, #192	@ 0xc0
 8009184:	ed5f 7a4e 	vldr	s15, [pc, #-312]	@ 8009050 <__kernel_rem_pio2f+0x2f8>
 8009188:	440b      	add	r3, r1
 800918a:	2c00      	cmp	r4, #0
 800918c:	da05      	bge.n	800919a <__kernel_rem_pio2f+0x442>
 800918e:	b10e      	cbz	r6, 8009194 <__kernel_rem_pio2f+0x43c>
 8009190:	eef1 7a67 	vneg.f32	s15, s15
 8009194:	edc7 7a00 	vstr	s15, [r7]
 8009198:	e7b2      	b.n	8009100 <__kernel_rem_pio2f+0x3a8>
 800919a:	ed33 7a01 	vldmdb	r3!, {s14}
 800919e:	3c01      	subs	r4, #1
 80091a0:	ee77 7a87 	vadd.f32	s15, s15, s14
 80091a4:	e7f1      	b.n	800918a <__kernel_rem_pio2f+0x432>
 80091a6:	ed73 7a01 	vldmdb	r3!, {s15}
 80091aa:	3a01      	subs	r2, #1
 80091ac:	ee37 7a27 	vadd.f32	s14, s14, s15
 80091b0:	e7d2      	b.n	8009158 <__kernel_rem_pio2f+0x400>
 80091b2:	eef0 7a47 	vmov.f32	s15, s14
 80091b6:	e7d4      	b.n	8009162 <__kernel_rem_pio2f+0x40a>
 80091b8:	ecb2 7a01 	vldmia	r2!, {s14}
 80091bc:	3301      	adds	r3, #1
 80091be:	ee77 7a87 	vadd.f32	s15, s15, s14
 80091c2:	e7d6      	b.n	8009172 <__kernel_rem_pio2f+0x41a>
 80091c4:	ed72 7a01 	vldmdb	r2!, {s15}
 80091c8:	edd2 6a01 	vldr	s13, [r2, #4]
 80091cc:	ee37 7aa6 	vadd.f32	s14, s15, s13
 80091d0:	3801      	subs	r0, #1
 80091d2:	ee77 7ac7 	vsub.f32	s15, s15, s14
 80091d6:	ed82 7a00 	vstr	s14, [r2]
 80091da:	ee77 7aa6 	vadd.f32	s15, s15, s13
 80091de:	edc2 7a01 	vstr	s15, [r2, #4]
 80091e2:	e79c      	b.n	800911e <__kernel_rem_pio2f+0x3c6>
 80091e4:	ed73 7a01 	vldmdb	r3!, {s15}
 80091e8:	edd3 6a01 	vldr	s13, [r3, #4]
 80091ec:	ee37 7aa6 	vadd.f32	s14, s15, s13
 80091f0:	3a01      	subs	r2, #1
 80091f2:	ee77 7ac7 	vsub.f32	s15, s15, s14
 80091f6:	ed83 7a00 	vstr	s14, [r3]
 80091fa:	ee77 7aa6 	vadd.f32	s15, s15, s13
 80091fe:	edc3 7a01 	vstr	s15, [r3, #4]
 8009202:	e78f      	b.n	8009124 <__kernel_rem_pio2f+0x3cc>
 8009204:	ed33 7a01 	vldmdb	r3!, {s14}
 8009208:	3c01      	subs	r4, #1
 800920a:	ee77 7a87 	vadd.f32	s15, s15, s14
 800920e:	e78f      	b.n	8009130 <__kernel_rem_pio2f+0x3d8>
 8009210:	eef1 6a66 	vneg.f32	s13, s13
 8009214:	eeb1 7a47 	vneg.f32	s14, s14
 8009218:	edc7 6a00 	vstr	s13, [r7]
 800921c:	ed87 7a01 	vstr	s14, [r7, #4]
 8009220:	eef1 7a67 	vneg.f32	s15, s15
 8009224:	e790      	b.n	8009148 <__kernel_rem_pio2f+0x3f0>
 8009226:	bf00      	nop

08009228 <scalbnf>:
 8009228:	ee10 3a10 	vmov	r3, s0
 800922c:	f033 4200 	bics.w	r2, r3, #2147483648	@ 0x80000000
 8009230:	d02b      	beq.n	800928a <scalbnf+0x62>
 8009232:	f1b2 4fff 	cmp.w	r2, #2139095040	@ 0x7f800000
 8009236:	d302      	bcc.n	800923e <scalbnf+0x16>
 8009238:	ee30 0a00 	vadd.f32	s0, s0, s0
 800923c:	4770      	bx	lr
 800923e:	f013 4fff 	tst.w	r3, #2139095040	@ 0x7f800000
 8009242:	d123      	bne.n	800928c <scalbnf+0x64>
 8009244:	4b24      	ldr	r3, [pc, #144]	@ (80092d8 <scalbnf+0xb0>)
 8009246:	eddf 7a25 	vldr	s15, [pc, #148]	@ 80092dc <scalbnf+0xb4>
 800924a:	4298      	cmp	r0, r3
 800924c:	ee20 0a27 	vmul.f32	s0, s0, s15
 8009250:	db17      	blt.n	8009282 <scalbnf+0x5a>
 8009252:	ee10 3a10 	vmov	r3, s0
 8009256:	f3c3 52c7 	ubfx	r2, r3, #23, #8
 800925a:	3a19      	subs	r2, #25
 800925c:	f24c 3150 	movw	r1, #50000	@ 0xc350
 8009260:	4288      	cmp	r0, r1
 8009262:	dd15      	ble.n	8009290 <scalbnf+0x68>
 8009264:	eddf 7a1e 	vldr	s15, [pc, #120]	@ 80092e0 <scalbnf+0xb8>
 8009268:	eddf 6a1e 	vldr	s13, [pc, #120]	@ 80092e4 <scalbnf+0xbc>
 800926c:	ee10 3a10 	vmov	r3, s0
 8009270:	eeb0 7a67 	vmov.f32	s14, s15
 8009274:	2b00      	cmp	r3, #0
 8009276:	bfb8      	it	lt
 8009278:	eef0 7a66 	vmovlt.f32	s15, s13
 800927c:	ee27 0a87 	vmul.f32	s0, s15, s14
 8009280:	4770      	bx	lr
 8009282:	eddf 7a19 	vldr	s15, [pc, #100]	@ 80092e8 <scalbnf+0xc0>
 8009286:	ee27 0a80 	vmul.f32	s0, s15, s0
 800928a:	4770      	bx	lr
 800928c:	0dd2      	lsrs	r2, r2, #23
 800928e:	e7e5      	b.n	800925c <scalbnf+0x34>
 8009290:	4410      	add	r0, r2
 8009292:	28fe      	cmp	r0, #254	@ 0xfe
 8009294:	dce6      	bgt.n	8009264 <scalbnf+0x3c>
 8009296:	2800      	cmp	r0, #0
 8009298:	dd06      	ble.n	80092a8 <scalbnf+0x80>
 800929a:	f023 43ff 	bic.w	r3, r3, #2139095040	@ 0x7f800000
 800929e:	ea43 53c0 	orr.w	r3, r3, r0, lsl #23
 80092a2:	ee00 3a10 	vmov	s0, r3
 80092a6:	4770      	bx	lr
 80092a8:	f110 0f16 	cmn.w	r0, #22
 80092ac:	da09      	bge.n	80092c2 <scalbnf+0x9a>
 80092ae:	eddf 7a0e 	vldr	s15, [pc, #56]	@ 80092e8 <scalbnf+0xc0>
 80092b2:	eddf 6a0e 	vldr	s13, [pc, #56]	@ 80092ec <scalbnf+0xc4>
 80092b6:	ee10 3a10 	vmov	r3, s0
 80092ba:	eeb0 7a67 	vmov.f32	s14, s15
 80092be:	2b00      	cmp	r3, #0
 80092c0:	e7d9      	b.n	8009276 <scalbnf+0x4e>
 80092c2:	3019      	adds	r0, #25
 80092c4:	f023 43ff 	bic.w	r3, r3, #2139095040	@ 0x7f800000
 80092c8:	ea43 53c0 	orr.w	r3, r3, r0, lsl #23
 80092cc:	ed9f 0a08 	vldr	s0, [pc, #32]	@ 80092f0 <scalbnf+0xc8>
 80092d0:	ee07 3a90 	vmov	s15, r3
 80092d4:	e7d7      	b.n	8009286 <scalbnf+0x5e>
 80092d6:	bf00      	nop
 80092d8:	ffff3cb0 	.word	0xffff3cb0
 80092dc:	4c000000 	.word	0x4c000000
 80092e0:	7149f2ca 	.word	0x7149f2ca
 80092e4:	f149f2ca 	.word	0xf149f2ca
 80092e8:	0da24260 	.word	0x0da24260
 80092ec:	8da24260 	.word	0x8da24260
 80092f0:	33000000 	.word	0x33000000

080092f4 <floorf>:
 80092f4:	ee10 3a10 	vmov	r3, s0
 80092f8:	f3c3 52c7 	ubfx	r2, r3, #23, #8
 80092fc:	3a7f      	subs	r2, #127	@ 0x7f
 80092fe:	2a16      	cmp	r2, #22
 8009300:	f023 4100 	bic.w	r1, r3, #2147483648	@ 0x80000000
 8009304:	dc2b      	bgt.n	800935e <floorf+0x6a>
 8009306:	2a00      	cmp	r2, #0
 8009308:	da12      	bge.n	8009330 <floorf+0x3c>
 800930a:	eddf 7a19 	vldr	s15, [pc, #100]	@ 8009370 <floorf+0x7c>
 800930e:	ee30 0a27 	vadd.f32	s0, s0, s15
 8009312:	eeb5 0ac0 	vcmpe.f32	s0, #0.0
 8009316:	eef1 fa10 	vmrs	APSR_nzcv, fpscr
 800931a:	dd06      	ble.n	800932a <floorf+0x36>
 800931c:	2b00      	cmp	r3, #0
 800931e:	da24      	bge.n	800936a <floorf+0x76>
 8009320:	2900      	cmp	r1, #0
 8009322:	4b14      	ldr	r3, [pc, #80]	@ (8009374 <floorf+0x80>)
 8009324:	bf08      	it	eq
 8009326:	f04f 4300 	moveq.w	r3, #2147483648	@ 0x80000000
 800932a:	ee00 3a10 	vmov	s0, r3
 800932e:	4770      	bx	lr
 8009330:	4911      	ldr	r1, [pc, #68]	@ (8009378 <floorf+0x84>)
 8009332:	4111      	asrs	r1, r2
 8009334:	420b      	tst	r3, r1
 8009336:	d0fa      	beq.n	800932e <floorf+0x3a>
 8009338:	eddf 7a0d 	vldr	s15, [pc, #52]	@ 8009370 <floorf+0x7c>
 800933c:	ee30 0a27 	vadd.f32	s0, s0, s15
 8009340:	eeb5 0ac0 	vcmpe.f32	s0, #0.0
 8009344:	eef1 fa10 	vmrs	APSR_nzcv, fpscr
 8009348:	ddef      	ble.n	800932a <floorf+0x36>
 800934a:	2b00      	cmp	r3, #0
 800934c:	bfbe      	ittt	lt
 800934e:	f44f 0000 	movlt.w	r0, #8388608	@ 0x800000
 8009352:	fa40 f202 	asrlt.w	r2, r0, r2
 8009356:	189b      	addlt	r3, r3, r2
 8009358:	ea23 0301 	bic.w	r3, r3, r1
 800935c:	e7e5      	b.n	800932a <floorf+0x36>
 800935e:	f1b1 4fff 	cmp.w	r1, #2139095040	@ 0x7f800000
 8009362:	d3e4      	bcc.n	800932e <floorf+0x3a>
 8009364:	ee30 0a00 	vadd.f32	s0, s0, s0
 8009368:	4770      	bx	lr
 800936a:	2300      	movs	r3, #0
 800936c:	e7dd      	b.n	800932a <floorf+0x36>
 800936e:	bf00      	nop
 8009370:	7149f2ca 	.word	0x7149f2ca
 8009374:	bf800000 	.word	0xbf800000
 8009378:	007fffff 	.word	0x007fffff

0800937c <__cvt>:
 800937c:	e92d 47ff 	stmdb	sp!, {r0, r1, r2, r3, r4, r5, r6, r7, r8, r9, sl, lr}
 8009380:	ec57 6b10 	vmov	r6, r7, d0
 8009384:	2f00      	cmp	r7, #0
 8009386:	460c      	mov	r4, r1
 8009388:	4619      	mov	r1, r3
 800938a:	463b      	mov	r3, r7
 800938c:	bfbb      	ittet	lt
 800938e:	f107 4300 	addlt.w	r3, r7, #2147483648	@ 0x80000000
 8009392:	461f      	movlt	r7, r3
 8009394:	2300      	movge	r3, #0
 8009396:	232d      	movlt	r3, #45	@ 0x2d
 8009398:	700b      	strb	r3, [r1, #0]
 800939a:	9b0d      	ldr	r3, [sp, #52]	@ 0x34
 800939c:	f8dd a030 	ldr.w	sl, [sp, #48]	@ 0x30
 80093a0:	4691      	mov	r9, r2
 80093a2:	f023 0820 	bic.w	r8, r3, #32
 80093a6:	bfbc      	itt	lt
 80093a8:	4632      	movlt	r2, r6
 80093aa:	4616      	movlt	r6, r2
 80093ac:	f1b8 0f46 	cmp.w	r8, #70	@ 0x46
 80093b0:	d005      	beq.n	80093be <__cvt+0x42>
 80093b2:	f1b8 0f45 	cmp.w	r8, #69	@ 0x45
 80093b6:	d100      	bne.n	80093ba <__cvt+0x3e>
 80093b8:	3401      	adds	r4, #1
 80093ba:	2102      	movs	r1, #2
 80093bc:	e000      	b.n	80093c0 <__cvt+0x44>
 80093be:	2103      	movs	r1, #3
 80093c0:	ab03      	add	r3, sp, #12
 80093c2:	9301      	str	r3, [sp, #4]
 80093c4:	ab02      	add	r3, sp, #8
 80093c6:	9300      	str	r3, [sp, #0]
 80093c8:	ec47 6b10 	vmov	d0, r6, r7
 80093cc:	4653      	mov	r3, sl
 80093ce:	4622      	mov	r2, r4
 80093d0:	f000 feda 	bl	800a188 <_dtoa_r>
 80093d4:	f1b8 0f47 	cmp.w	r8, #71	@ 0x47
 80093d8:	4605      	mov	r5, r0
 80093da:	d119      	bne.n	8009410 <__cvt+0x94>
 80093dc:	f019 0f01 	tst.w	r9, #1
 80093e0:	d00e      	beq.n	8009400 <__cvt+0x84>
 80093e2:	eb00 0904 	add.w	r9, r0, r4
 80093e6:	2200      	movs	r2, #0
 80093e8:	2300      	movs	r3, #0
 80093ea:	4630      	mov	r0, r6
 80093ec:	4639      	mov	r1, r7
 80093ee:	f7f7 fb73 	bl	8000ad8 <__aeabi_dcmpeq>
 80093f2:	b108      	cbz	r0, 80093f8 <__cvt+0x7c>
 80093f4:	f8cd 900c 	str.w	r9, [sp, #12]
 80093f8:	2230      	movs	r2, #48	@ 0x30
 80093fa:	9b03      	ldr	r3, [sp, #12]
 80093fc:	454b      	cmp	r3, r9
 80093fe:	d31e      	bcc.n	800943e <__cvt+0xc2>
 8009400:	9b03      	ldr	r3, [sp, #12]
 8009402:	9a0e      	ldr	r2, [sp, #56]	@ 0x38
 8009404:	1b5b      	subs	r3, r3, r5
 8009406:	4628      	mov	r0, r5
 8009408:	6013      	str	r3, [r2, #0]
 800940a:	b004      	add	sp, #16
 800940c:	e8bd 87f0 	ldmia.w	sp!, {r4, r5, r6, r7, r8, r9, sl, pc}
 8009410:	f1b8 0f46 	cmp.w	r8, #70	@ 0x46
 8009414:	eb00 0904 	add.w	r9, r0, r4
 8009418:	d1e5      	bne.n	80093e6 <__cvt+0x6a>
 800941a:	7803      	ldrb	r3, [r0, #0]
 800941c:	2b30      	cmp	r3, #48	@ 0x30
 800941e:	d10a      	bne.n	8009436 <__cvt+0xba>
 8009420:	2200      	movs	r2, #0
 8009422:	2300      	movs	r3, #0
 8009424:	4630      	mov	r0, r6
 8009426:	4639      	mov	r1, r7
 8009428:	f7f7 fb56 	bl	8000ad8 <__aeabi_dcmpeq>
 800942c:	b918      	cbnz	r0, 8009436 <__cvt+0xba>
 800942e:	f1c4 0401 	rsb	r4, r4, #1
 8009432:	f8ca 4000 	str.w	r4, [sl]
 8009436:	f8da 3000 	ldr.w	r3, [sl]
 800943a:	4499      	add	r9, r3
 800943c:	e7d3      	b.n	80093e6 <__cvt+0x6a>
 800943e:	1c59      	adds	r1, r3, #1
 8009440:	9103      	str	r1, [sp, #12]
 8009442:	701a      	strb	r2, [r3, #0]
 8009444:	e7d9      	b.n	80093fa <__cvt+0x7e>

08009446 <__exponent>:
 8009446:	b5f7      	push	{r0, r1, r2, r4, r5, r6, r7, lr}
 8009448:	2900      	cmp	r1, #0
 800944a:	bfba      	itte	lt
 800944c:	4249      	neglt	r1, r1
 800944e:	232d      	movlt	r3, #45	@ 0x2d
 8009450:	232b      	movge	r3, #43	@ 0x2b
 8009452:	2909      	cmp	r1, #9
 8009454:	7002      	strb	r2, [r0, #0]
 8009456:	7043      	strb	r3, [r0, #1]
 8009458:	dd29      	ble.n	80094ae <__exponent+0x68>
 800945a:	f10d 0307 	add.w	r3, sp, #7
 800945e:	461d      	mov	r5, r3
 8009460:	270a      	movs	r7, #10
 8009462:	461a      	mov	r2, r3
 8009464:	fbb1 f6f7 	udiv	r6, r1, r7
 8009468:	fb07 1416 	mls	r4, r7, r6, r1
 800946c:	3430      	adds	r4, #48	@ 0x30
 800946e:	f802 4c01 	strb.w	r4, [r2, #-1]
 8009472:	460c      	mov	r4, r1
 8009474:	2c63      	cmp	r4, #99	@ 0x63
 8009476:	f103 33ff 	add.w	r3, r3, #4294967295
 800947a:	4631      	mov	r1, r6
 800947c:	dcf1      	bgt.n	8009462 <__exponent+0x1c>
 800947e:	3130      	adds	r1, #48	@ 0x30
 8009480:	1e94      	subs	r4, r2, #2
 8009482:	f803 1c01 	strb.w	r1, [r3, #-1]
 8009486:	1c41      	adds	r1, r0, #1
 8009488:	4623      	mov	r3, r4
 800948a:	42ab      	cmp	r3, r5
 800948c:	d30a      	bcc.n	80094a4 <__exponent+0x5e>
 800948e:	f10d 0309 	add.w	r3, sp, #9
 8009492:	1a9b      	subs	r3, r3, r2
 8009494:	42ac      	cmp	r4, r5
 8009496:	bf88      	it	hi
 8009498:	2300      	movhi	r3, #0
 800949a:	3302      	adds	r3, #2
 800949c:	4403      	add	r3, r0
 800949e:	1a18      	subs	r0, r3, r0
 80094a0:	b003      	add	sp, #12
 80094a2:	bdf0      	pop	{r4, r5, r6, r7, pc}
 80094a4:	f813 6b01 	ldrb.w	r6, [r3], #1
 80094a8:	f801 6f01 	strb.w	r6, [r1, #1]!
 80094ac:	e7ed      	b.n	800948a <__exponent+0x44>
 80094ae:	2330      	movs	r3, #48	@ 0x30
 80094b0:	3130      	adds	r1, #48	@ 0x30
 80094b2:	7083      	strb	r3, [r0, #2]
 80094b4:	70c1      	strb	r1, [r0, #3]
 80094b6:	1d03      	adds	r3, r0, #4
 80094b8:	e7f1      	b.n	800949e <__exponent+0x58>
	...

080094bc <_printf_float>:
 80094bc:	e92d 4ff0 	stmdb	sp!, {r4, r5, r6, r7, r8, r9, sl, fp, lr}
 80094c0:	b08d      	sub	sp, #52	@ 0x34
 80094c2:	460c      	mov	r4, r1
 80094c4:	f8dd 8058 	ldr.w	r8, [sp, #88]	@ 0x58
 80094c8:	4616      	mov	r6, r2
 80094ca:	461f      	mov	r7, r3
 80094cc:	4605      	mov	r5, r0
 80094ce:	f000 fcef 	bl	8009eb0 <_localeconv_r>
 80094d2:	6803      	ldr	r3, [r0, #0]
 80094d4:	9304      	str	r3, [sp, #16]
 80094d6:	4618      	mov	r0, r3
 80094d8:	f7f6 fed2 	bl	8000280 <strlen>
 80094dc:	2300      	movs	r3, #0
 80094de:	930a      	str	r3, [sp, #40]	@ 0x28
 80094e0:	f8d8 3000 	ldr.w	r3, [r8]
 80094e4:	9005      	str	r0, [sp, #20]
 80094e6:	3307      	adds	r3, #7
 80094e8:	f023 0307 	bic.w	r3, r3, #7
 80094ec:	f103 0208 	add.w	r2, r3, #8
 80094f0:	f894 a018 	ldrb.w	sl, [r4, #24]
 80094f4:	f8d4 b000 	ldr.w	fp, [r4]
 80094f8:	f8c8 2000 	str.w	r2, [r8]
 80094fc:	e9d3 8900 	ldrd	r8, r9, [r3]
 8009500:	f029 4300 	bic.w	r3, r9, #2147483648	@ 0x80000000
 8009504:	9307      	str	r3, [sp, #28]
 8009506:	f8cd 8018 	str.w	r8, [sp, #24]
 800950a:	e9c4 8912 	strd	r8, r9, [r4, #72]	@ 0x48
 800950e:	e9dd 0106 	ldrd	r0, r1, [sp, #24]
 8009512:	4b9c      	ldr	r3, [pc, #624]	@ (8009784 <_printf_float+0x2c8>)
 8009514:	f04f 32ff 	mov.w	r2, #4294967295
 8009518:	f7f7 fb10 	bl	8000b3c <__aeabi_dcmpun>
 800951c:	bb70      	cbnz	r0, 800957c <_printf_float+0xc0>
 800951e:	e9dd 0106 	ldrd	r0, r1, [sp, #24]
 8009522:	4b98      	ldr	r3, [pc, #608]	@ (8009784 <_printf_float+0x2c8>)
 8009524:	f04f 32ff 	mov.w	r2, #4294967295
 8009528:	f7f7 faea 	bl	8000b00 <__aeabi_dcmple>
 800952c:	bb30      	cbnz	r0, 800957c <_printf_float+0xc0>
 800952e:	2200      	movs	r2, #0
 8009530:	2300      	movs	r3, #0
 8009532:	4640      	mov	r0, r8
 8009534:	4649      	mov	r1, r9
 8009536:	f7f7 fad9 	bl	8000aec <__aeabi_dcmplt>
 800953a:	b110      	cbz	r0, 8009542 <_printf_float+0x86>
 800953c:	232d      	movs	r3, #45	@ 0x2d
 800953e:	f884 3043 	strb.w	r3, [r4, #67]	@ 0x43
 8009542:	4a91      	ldr	r2, [pc, #580]	@ (8009788 <_printf_float+0x2cc>)
 8009544:	4b91      	ldr	r3, [pc, #580]	@ (800978c <_printf_float+0x2d0>)
 8009546:	f1ba 0f47 	cmp.w	sl, #71	@ 0x47
 800954a:	bf8c      	ite	hi
 800954c:	4690      	movhi	r8, r2
 800954e:	4698      	movls	r8, r3
 8009550:	2303      	movs	r3, #3
 8009552:	6123      	str	r3, [r4, #16]
 8009554:	f02b 0304 	bic.w	r3, fp, #4
 8009558:	6023      	str	r3, [r4, #0]
 800955a:	f04f 0900 	mov.w	r9, #0
 800955e:	9700      	str	r7, [sp, #0]
 8009560:	4633      	mov	r3, r6
 8009562:	aa0b      	add	r2, sp, #44	@ 0x2c
 8009564:	4621      	mov	r1, r4
 8009566:	4628      	mov	r0, r5
 8009568:	f000 f9d2 	bl	8009910 <_printf_common>
 800956c:	3001      	adds	r0, #1
 800956e:	f040 808d 	bne.w	800968c <_printf_float+0x1d0>
 8009572:	f04f 30ff 	mov.w	r0, #4294967295
 8009576:	b00d      	add	sp, #52	@ 0x34
 8009578:	e8bd 8ff0 	ldmia.w	sp!, {r4, r5, r6, r7, r8, r9, sl, fp, pc}
 800957c:	4642      	mov	r2, r8
 800957e:	464b      	mov	r3, r9
 8009580:	4640      	mov	r0, r8
 8009582:	4649      	mov	r1, r9
 8009584:	f7f7 fada 	bl	8000b3c <__aeabi_dcmpun>
 8009588:	b140      	cbz	r0, 800959c <_printf_float+0xe0>
 800958a:	464b      	mov	r3, r9
 800958c:	2b00      	cmp	r3, #0
 800958e:	bfbc      	itt	lt
 8009590:	232d      	movlt	r3, #45	@ 0x2d
 8009592:	f884 3043 	strblt.w	r3, [r4, #67]	@ 0x43
 8009596:	4a7e      	ldr	r2, [pc, #504]	@ (8009790 <_printf_float+0x2d4>)
 8009598:	4b7e      	ldr	r3, [pc, #504]	@ (8009794 <_printf_float+0x2d8>)
 800959a:	e7d4      	b.n	8009546 <_printf_float+0x8a>
 800959c:	6863      	ldr	r3, [r4, #4]
 800959e:	f00a 02df 	and.w	r2, sl, #223	@ 0xdf
 80095a2:	9206      	str	r2, [sp, #24]
 80095a4:	1c5a      	adds	r2, r3, #1
 80095a6:	d13b      	bne.n	8009620 <_printf_float+0x164>
 80095a8:	2306      	movs	r3, #6
 80095aa:	6063      	str	r3, [r4, #4]
 80095ac:	f44b 6280 	orr.w	r2, fp, #1024	@ 0x400
 80095b0:	2300      	movs	r3, #0
 80095b2:	6022      	str	r2, [r4, #0]
 80095b4:	9303      	str	r3, [sp, #12]
 80095b6:	ab0a      	add	r3, sp, #40	@ 0x28
 80095b8:	e9cd a301 	strd	sl, r3, [sp, #4]
 80095bc:	ab09      	add	r3, sp, #36	@ 0x24
 80095be:	9300      	str	r3, [sp, #0]
 80095c0:	6861      	ldr	r1, [r4, #4]
 80095c2:	ec49 8b10 	vmov	d0, r8, r9
 80095c6:	f10d 0323 	add.w	r3, sp, #35	@ 0x23
 80095ca:	4628      	mov	r0, r5
 80095cc:	f7ff fed6 	bl	800937c <__cvt>
 80095d0:	9b06      	ldr	r3, [sp, #24]
 80095d2:	9909      	ldr	r1, [sp, #36]	@ 0x24
 80095d4:	2b47      	cmp	r3, #71	@ 0x47
 80095d6:	4680      	mov	r8, r0
 80095d8:	d129      	bne.n	800962e <_printf_float+0x172>
 80095da:	1cc8      	adds	r0, r1, #3
 80095dc:	db02      	blt.n	80095e4 <_printf_float+0x128>
 80095de:	6863      	ldr	r3, [r4, #4]
 80095e0:	4299      	cmp	r1, r3
 80095e2:	dd41      	ble.n	8009668 <_printf_float+0x1ac>
 80095e4:	f1aa 0a02 	sub.w	sl, sl, #2
 80095e8:	fa5f fa8a 	uxtb.w	sl, sl
 80095ec:	3901      	subs	r1, #1
 80095ee:	4652      	mov	r2, sl
 80095f0:	f104 0050 	add.w	r0, r4, #80	@ 0x50
 80095f4:	9109      	str	r1, [sp, #36]	@ 0x24
 80095f6:	f7ff ff26 	bl	8009446 <__exponent>
 80095fa:	9a0a      	ldr	r2, [sp, #40]	@ 0x28
 80095fc:	1813      	adds	r3, r2, r0
 80095fe:	2a01      	cmp	r2, #1
 8009600:	4681      	mov	r9, r0
 8009602:	6123      	str	r3, [r4, #16]
 8009604:	dc02      	bgt.n	800960c <_printf_float+0x150>
 8009606:	6822      	ldr	r2, [r4, #0]
 8009608:	07d2      	lsls	r2, r2, #31
 800960a:	d501      	bpl.n	8009610 <_printf_float+0x154>
 800960c:	3301      	adds	r3, #1
 800960e:	6123      	str	r3, [r4, #16]
 8009610:	f89d 3023 	ldrb.w	r3, [sp, #35]	@ 0x23
 8009614:	2b00      	cmp	r3, #0
 8009616:	d0a2      	beq.n	800955e <_printf_float+0xa2>
 8009618:	232d      	movs	r3, #45	@ 0x2d
 800961a:	f884 3043 	strb.w	r3, [r4, #67]	@ 0x43
 800961e:	e79e      	b.n	800955e <_printf_float+0xa2>
 8009620:	9a06      	ldr	r2, [sp, #24]
 8009622:	2a47      	cmp	r2, #71	@ 0x47
 8009624:	d1c2      	bne.n	80095ac <_printf_float+0xf0>
 8009626:	2b00      	cmp	r3, #0
 8009628:	d1c0      	bne.n	80095ac <_printf_float+0xf0>
 800962a:	2301      	movs	r3, #1
 800962c:	e7bd      	b.n	80095aa <_printf_float+0xee>
 800962e:	f1ba 0f65 	cmp.w	sl, #101	@ 0x65
 8009632:	d9db      	bls.n	80095ec <_printf_float+0x130>
 8009634:	f1ba 0f66 	cmp.w	sl, #102	@ 0x66
 8009638:	d118      	bne.n	800966c <_printf_float+0x1b0>
 800963a:	2900      	cmp	r1, #0
 800963c:	6863      	ldr	r3, [r4, #4]
 800963e:	dd0b      	ble.n	8009658 <_printf_float+0x19c>
 8009640:	6121      	str	r1, [r4, #16]
 8009642:	b913      	cbnz	r3, 800964a <_printf_float+0x18e>
 8009644:	6822      	ldr	r2, [r4, #0]
 8009646:	07d0      	lsls	r0, r2, #31
 8009648:	d502      	bpl.n	8009650 <_printf_float+0x194>
 800964a:	3301      	adds	r3, #1
 800964c:	440b      	add	r3, r1
 800964e:	6123      	str	r3, [r4, #16]
 8009650:	65a1      	str	r1, [r4, #88]	@ 0x58
 8009652:	f04f 0900 	mov.w	r9, #0
 8009656:	e7db      	b.n	8009610 <_printf_float+0x154>
 8009658:	b913      	cbnz	r3, 8009660 <_printf_float+0x1a4>
 800965a:	6822      	ldr	r2, [r4, #0]
 800965c:	07d2      	lsls	r2, r2, #31
 800965e:	d501      	bpl.n	8009664 <_printf_float+0x1a8>
 8009660:	3302      	adds	r3, #2
 8009662:	e7f4      	b.n	800964e <_printf_float+0x192>
 8009664:	2301      	movs	r3, #1
 8009666:	e7f2      	b.n	800964e <_printf_float+0x192>
 8009668:	f04f 0a67 	mov.w	sl, #103	@ 0x67
 800966c:	9b0a      	ldr	r3, [sp, #40]	@ 0x28
 800966e:	4299      	cmp	r1, r3
 8009670:	db05      	blt.n	800967e <_printf_float+0x1c2>
 8009672:	6823      	ldr	r3, [r4, #0]
 8009674:	6121      	str	r1, [r4, #16]
 8009676:	07d8      	lsls	r0, r3, #31
 8009678:	d5ea      	bpl.n	8009650 <_printf_float+0x194>
 800967a:	1c4b      	adds	r3, r1, #1
 800967c:	e7e7      	b.n	800964e <_printf_float+0x192>
 800967e:	2900      	cmp	r1, #0
 8009680:	bfd4      	ite	le
 8009682:	f1c1 0202 	rsble	r2, r1, #2
 8009686:	2201      	movgt	r2, #1
 8009688:	4413      	add	r3, r2
 800968a:	e7e0      	b.n	800964e <_printf_float+0x192>
 800968c:	6823      	ldr	r3, [r4, #0]
 800968e:	055a      	lsls	r2, r3, #21
 8009690:	d407      	bmi.n	80096a2 <_printf_float+0x1e6>
 8009692:	6923      	ldr	r3, [r4, #16]
 8009694:	4642      	mov	r2, r8
 8009696:	4631      	mov	r1, r6
 8009698:	4628      	mov	r0, r5
 800969a:	47b8      	blx	r7
 800969c:	3001      	adds	r0, #1
 800969e:	d12b      	bne.n	80096f8 <_printf_float+0x23c>
 80096a0:	e767      	b.n	8009572 <_printf_float+0xb6>
 80096a2:	f1ba 0f65 	cmp.w	sl, #101	@ 0x65
 80096a6:	f240 80dd 	bls.w	8009864 <_printf_float+0x3a8>
 80096aa:	e9d4 0112 	ldrd	r0, r1, [r4, #72]	@ 0x48
 80096ae:	2200      	movs	r2, #0
 80096b0:	2300      	movs	r3, #0
 80096b2:	f7f7 fa11 	bl	8000ad8 <__aeabi_dcmpeq>
 80096b6:	2800      	cmp	r0, #0
 80096b8:	d033      	beq.n	8009722 <_printf_float+0x266>
 80096ba:	4a37      	ldr	r2, [pc, #220]	@ (8009798 <_printf_float+0x2dc>)
 80096bc:	2301      	movs	r3, #1
 80096be:	4631      	mov	r1, r6
 80096c0:	4628      	mov	r0, r5
 80096c2:	47b8      	blx	r7
 80096c4:	3001      	adds	r0, #1
 80096c6:	f43f af54 	beq.w	8009572 <_printf_float+0xb6>
 80096ca:	e9dd 3809 	ldrd	r3, r8, [sp, #36]	@ 0x24
 80096ce:	4543      	cmp	r3, r8
 80096d0:	db02      	blt.n	80096d8 <_printf_float+0x21c>
 80096d2:	6823      	ldr	r3, [r4, #0]
 80096d4:	07d8      	lsls	r0, r3, #31
 80096d6:	d50f      	bpl.n	80096f8 <_printf_float+0x23c>
 80096d8:	e9dd 2304 	ldrd	r2, r3, [sp, #16]
 80096dc:	4631      	mov	r1, r6
 80096de:	4628      	mov	r0, r5
 80096e0:	47b8      	blx	r7
 80096e2:	3001      	adds	r0, #1
 80096e4:	f43f af45 	beq.w	8009572 <_printf_float+0xb6>
 80096e8:	f04f 0900 	mov.w	r9, #0
 80096ec:	f108 38ff 	add.w	r8, r8, #4294967295
 80096f0:	f104 0a1a 	add.w	sl, r4, #26
 80096f4:	45c8      	cmp	r8, r9
 80096f6:	dc09      	bgt.n	800970c <_printf_float+0x250>
 80096f8:	6823      	ldr	r3, [r4, #0]
 80096fa:	079b      	lsls	r3, r3, #30
 80096fc:	f100 8103 	bmi.w	8009906 <_printf_float+0x44a>
 8009700:	68e0      	ldr	r0, [r4, #12]
 8009702:	9b0b      	ldr	r3, [sp, #44]	@ 0x2c
 8009704:	4298      	cmp	r0, r3
 8009706:	bfb8      	it	lt
 8009708:	4618      	movlt	r0, r3
 800970a:	e734      	b.n	8009576 <_printf_float+0xba>
 800970c:	2301      	movs	r3, #1
 800970e:	4652      	mov	r2, sl
 8009710:	4631      	mov	r1, r6
 8009712:	4628      	mov	r0, r5
 8009714:	47b8      	blx	r7
 8009716:	3001      	adds	r0, #1
 8009718:	f43f af2b 	beq.w	8009572 <_printf_float+0xb6>
 800971c:	f109 0901 	add.w	r9, r9, #1
 8009720:	e7e8      	b.n	80096f4 <_printf_float+0x238>
 8009722:	9b09      	ldr	r3, [sp, #36]	@ 0x24
 8009724:	2b00      	cmp	r3, #0
 8009726:	dc39      	bgt.n	800979c <_printf_float+0x2e0>
 8009728:	4a1b      	ldr	r2, [pc, #108]	@ (8009798 <_printf_float+0x2dc>)
 800972a:	2301      	movs	r3, #1
 800972c:	4631      	mov	r1, r6
 800972e:	4628      	mov	r0, r5
 8009730:	47b8      	blx	r7
 8009732:	3001      	adds	r0, #1
 8009734:	f43f af1d 	beq.w	8009572 <_printf_float+0xb6>
 8009738:	e9dd 3909 	ldrd	r3, r9, [sp, #36]	@ 0x24
 800973c:	ea59 0303 	orrs.w	r3, r9, r3
 8009740:	d102      	bne.n	8009748 <_printf_float+0x28c>
 8009742:	6823      	ldr	r3, [r4, #0]
 8009744:	07d9      	lsls	r1, r3, #31
 8009746:	d5d7      	bpl.n	80096f8 <_printf_float+0x23c>
 8009748:	e9dd 2304 	ldrd	r2, r3, [sp, #16]
 800974c:	4631      	mov	r1, r6
 800974e:	4628      	mov	r0, r5
 8009750:	47b8      	blx	r7
 8009752:	3001      	adds	r0, #1
 8009754:	f43f af0d 	beq.w	8009572 <_printf_float+0xb6>
 8009758:	f04f 0a00 	mov.w	sl, #0
 800975c:	f104 0b1a 	add.w	fp, r4, #26
 8009760:	9b09      	ldr	r3, [sp, #36]	@ 0x24
 8009762:	425b      	negs	r3, r3
 8009764:	4553      	cmp	r3, sl
 8009766:	dc01      	bgt.n	800976c <_printf_float+0x2b0>
 8009768:	464b      	mov	r3, r9
 800976a:	e793      	b.n	8009694 <_printf_float+0x1d8>
 800976c:	2301      	movs	r3, #1
 800976e:	465a      	mov	r2, fp
 8009770:	4631      	mov	r1, r6
 8009772:	4628      	mov	r0, r5
 8009774:	47b8      	blx	r7
 8009776:	3001      	adds	r0, #1
 8009778:	f43f aefb 	beq.w	8009572 <_printf_float+0xb6>
 800977c:	f10a 0a01 	add.w	sl, sl, #1
 8009780:	e7ee      	b.n	8009760 <_printf_float+0x2a4>
 8009782:	bf00      	nop
 8009784:	7fefffff 	.word	0x7fefffff
 8009788:	0800c29c 	.word	0x0800c29c
 800978c:	0800c298 	.word	0x0800c298
 8009790:	0800c2a4 	.word	0x0800c2a4
 8009794:	0800c2a0 	.word	0x0800c2a0
 8009798:	0800c2a8 	.word	0x0800c2a8
 800979c:	6da3      	ldr	r3, [r4, #88]	@ 0x58
 800979e:	f8dd a028 	ldr.w	sl, [sp, #40]	@ 0x28
 80097a2:	4553      	cmp	r3, sl
 80097a4:	bfa8      	it	ge
 80097a6:	4653      	movge	r3, sl
 80097a8:	2b00      	cmp	r3, #0
 80097aa:	4699      	mov	r9, r3
 80097ac:	dc36      	bgt.n	800981c <_printf_float+0x360>
 80097ae:	f04f 0b00 	mov.w	fp, #0
 80097b2:	ea29 79e9 	bic.w	r9, r9, r9, asr #31
 80097b6:	f104 021a 	add.w	r2, r4, #26
 80097ba:	6da3      	ldr	r3, [r4, #88]	@ 0x58
 80097bc:	9306      	str	r3, [sp, #24]
 80097be:	eba3 0309 	sub.w	r3, r3, r9
 80097c2:	455b      	cmp	r3, fp
 80097c4:	dc31      	bgt.n	800982a <_printf_float+0x36e>
 80097c6:	9b09      	ldr	r3, [sp, #36]	@ 0x24
 80097c8:	459a      	cmp	sl, r3
 80097ca:	dc3a      	bgt.n	8009842 <_printf_float+0x386>
 80097cc:	6823      	ldr	r3, [r4, #0]
 80097ce:	07da      	lsls	r2, r3, #31
 80097d0:	d437      	bmi.n	8009842 <_printf_float+0x386>
 80097d2:	9b09      	ldr	r3, [sp, #36]	@ 0x24
 80097d4:	ebaa 0903 	sub.w	r9, sl, r3
 80097d8:	9b06      	ldr	r3, [sp, #24]
 80097da:	ebaa 0303 	sub.w	r3, sl, r3
 80097de:	4599      	cmp	r9, r3
 80097e0:	bfa8      	it	ge
 80097e2:	4699      	movge	r9, r3
 80097e4:	f1b9 0f00 	cmp.w	r9, #0
 80097e8:	dc33      	bgt.n	8009852 <_printf_float+0x396>
 80097ea:	f04f 0800 	mov.w	r8, #0
 80097ee:	ea29 79e9 	bic.w	r9, r9, r9, asr #31
 80097f2:	f104 0b1a 	add.w	fp, r4, #26
 80097f6:	9b09      	ldr	r3, [sp, #36]	@ 0x24
 80097f8:	ebaa 0303 	sub.w	r3, sl, r3
 80097fc:	eba3 0309 	sub.w	r3, r3, r9
 8009800:	4543      	cmp	r3, r8
 8009802:	f77f af79 	ble.w	80096f8 <_printf_float+0x23c>
 8009806:	2301      	movs	r3, #1
 8009808:	465a      	mov	r2, fp
 800980a:	4631      	mov	r1, r6
 800980c:	4628      	mov	r0, r5
 800980e:	47b8      	blx	r7
 8009810:	3001      	adds	r0, #1
 8009812:	f43f aeae 	beq.w	8009572 <_printf_float+0xb6>
 8009816:	f108 0801 	add.w	r8, r8, #1
 800981a:	e7ec      	b.n	80097f6 <_printf_float+0x33a>
 800981c:	4642      	mov	r2, r8
 800981e:	4631      	mov	r1, r6
 8009820:	4628      	mov	r0, r5
 8009822:	47b8      	blx	r7
 8009824:	3001      	adds	r0, #1
 8009826:	d1c2      	bne.n	80097ae <_printf_float+0x2f2>
 8009828:	e6a3      	b.n	8009572 <_printf_float+0xb6>
 800982a:	2301      	movs	r3, #1
 800982c:	4631      	mov	r1, r6
 800982e:	4628      	mov	r0, r5
 8009830:	9206      	str	r2, [sp, #24]
 8009832:	47b8      	blx	r7
 8009834:	3001      	adds	r0, #1
 8009836:	f43f ae9c 	beq.w	8009572 <_printf_float+0xb6>
 800983a:	9a06      	ldr	r2, [sp, #24]
 800983c:	f10b 0b01 	add.w	fp, fp, #1
 8009840:	e7bb      	b.n	80097ba <_printf_float+0x2fe>
 8009842:	e9dd 2304 	ldrd	r2, r3, [sp, #16]
 8009846:	4631      	mov	r1, r6
 8009848:	4628      	mov	r0, r5
 800984a:	47b8      	blx	r7
 800984c:	3001      	adds	r0, #1
 800984e:	d1c0      	bne.n	80097d2 <_printf_float+0x316>
 8009850:	e68f      	b.n	8009572 <_printf_float+0xb6>
 8009852:	9a06      	ldr	r2, [sp, #24]
 8009854:	464b      	mov	r3, r9
 8009856:	4442      	add	r2, r8
 8009858:	4631      	mov	r1, r6
 800985a:	4628      	mov	r0, r5
 800985c:	47b8      	blx	r7
 800985e:	3001      	adds	r0, #1
 8009860:	d1c3      	bne.n	80097ea <_printf_float+0x32e>
 8009862:	e686      	b.n	8009572 <_printf_float+0xb6>
 8009864:	f8dd a028 	ldr.w	sl, [sp, #40]	@ 0x28
 8009868:	f1ba 0f01 	cmp.w	sl, #1
 800986c:	dc01      	bgt.n	8009872 <_printf_float+0x3b6>
 800986e:	07db      	lsls	r3, r3, #31
 8009870:	d536      	bpl.n	80098e0 <_printf_float+0x424>
 8009872:	2301      	movs	r3, #1
 8009874:	4642      	mov	r2, r8
 8009876:	4631      	mov	r1, r6
 8009878:	4628      	mov	r0, r5
 800987a:	47b8      	blx	r7
 800987c:	3001      	adds	r0, #1
 800987e:	f43f ae78 	beq.w	8009572 <_printf_float+0xb6>
 8009882:	e9dd 2304 	ldrd	r2, r3, [sp, #16]
 8009886:	4631      	mov	r1, r6
 8009888:	4628      	mov	r0, r5
 800988a:	47b8      	blx	r7
 800988c:	3001      	adds	r0, #1
 800988e:	f43f ae70 	beq.w	8009572 <_printf_float+0xb6>
 8009892:	e9d4 0112 	ldrd	r0, r1, [r4, #72]	@ 0x48
 8009896:	2200      	movs	r2, #0
 8009898:	2300      	movs	r3, #0
 800989a:	f10a 3aff 	add.w	sl, sl, #4294967295
 800989e:	f7f7 f91b 	bl	8000ad8 <__aeabi_dcmpeq>
 80098a2:	b9c0      	cbnz	r0, 80098d6 <_printf_float+0x41a>
 80098a4:	4653      	mov	r3, sl
 80098a6:	f108 0201 	add.w	r2, r8, #1
 80098aa:	4631      	mov	r1, r6
 80098ac:	4628      	mov	r0, r5
 80098ae:	47b8      	blx	r7
 80098b0:	3001      	adds	r0, #1
 80098b2:	d10c      	bne.n	80098ce <_printf_float+0x412>
 80098b4:	e65d      	b.n	8009572 <_printf_float+0xb6>
 80098b6:	2301      	movs	r3, #1
 80098b8:	465a      	mov	r2, fp
 80098ba:	4631      	mov	r1, r6
 80098bc:	4628      	mov	r0, r5
 80098be:	47b8      	blx	r7
 80098c0:	3001      	adds	r0, #1
 80098c2:	f43f ae56 	beq.w	8009572 <_printf_float+0xb6>
 80098c6:	f108 0801 	add.w	r8, r8, #1
 80098ca:	45d0      	cmp	r8, sl
 80098cc:	dbf3      	blt.n	80098b6 <_printf_float+0x3fa>
 80098ce:	464b      	mov	r3, r9
 80098d0:	f104 0250 	add.w	r2, r4, #80	@ 0x50
 80098d4:	e6df      	b.n	8009696 <_printf_float+0x1da>
 80098d6:	f04f 0800 	mov.w	r8, #0
 80098da:	f104 0b1a 	add.w	fp, r4, #26
 80098de:	e7f4      	b.n	80098ca <_printf_float+0x40e>
 80098e0:	2301      	movs	r3, #1
 80098e2:	4642      	mov	r2, r8
 80098e4:	e7e1      	b.n	80098aa <_printf_float+0x3ee>
 80098e6:	2301      	movs	r3, #1
 80098e8:	464a      	mov	r2, r9
 80098ea:	4631      	mov	r1, r6
 80098ec:	4628      	mov	r0, r5
 80098ee:	47b8      	blx	r7
 80098f0:	3001      	adds	r0, #1
 80098f2:	f43f ae3e 	beq.w	8009572 <_printf_float+0xb6>
 80098f6:	f108 0801 	add.w	r8, r8, #1
 80098fa:	68e3      	ldr	r3, [r4, #12]
 80098fc:	990b      	ldr	r1, [sp, #44]	@ 0x2c
 80098fe:	1a5b      	subs	r3, r3, r1
 8009900:	4543      	cmp	r3, r8
 8009902:	dcf0      	bgt.n	80098e6 <_printf_float+0x42a>
 8009904:	e6fc      	b.n	8009700 <_printf_float+0x244>
 8009906:	f04f 0800 	mov.w	r8, #0
 800990a:	f104 0919 	add.w	r9, r4, #25
 800990e:	e7f4      	b.n	80098fa <_printf_float+0x43e>

08009910 <_printf_common>:
 8009910:	e92d 47f0 	stmdb	sp!, {r4, r5, r6, r7, r8, r9, sl, lr}
 8009914:	4616      	mov	r6, r2
 8009916:	4698      	mov	r8, r3
 8009918:	688a      	ldr	r2, [r1, #8]
 800991a:	690b      	ldr	r3, [r1, #16]
 800991c:	f8dd 9020 	ldr.w	r9, [sp, #32]
 8009920:	4293      	cmp	r3, r2
 8009922:	bfb8      	it	lt
 8009924:	4613      	movlt	r3, r2
 8009926:	6033      	str	r3, [r6, #0]
 8009928:	f891 2043 	ldrb.w	r2, [r1, #67]	@ 0x43
 800992c:	4607      	mov	r7, r0
 800992e:	460c      	mov	r4, r1
 8009930:	b10a      	cbz	r2, 8009936 <_printf_common+0x26>
 8009932:	3301      	adds	r3, #1
 8009934:	6033      	str	r3, [r6, #0]
 8009936:	6823      	ldr	r3, [r4, #0]
 8009938:	0699      	lsls	r1, r3, #26
 800993a:	bf42      	ittt	mi
 800993c:	6833      	ldrmi	r3, [r6, #0]
 800993e:	3302      	addmi	r3, #2
 8009940:	6033      	strmi	r3, [r6, #0]
 8009942:	6825      	ldr	r5, [r4, #0]
 8009944:	f015 0506 	ands.w	r5, r5, #6
 8009948:	d106      	bne.n	8009958 <_printf_common+0x48>
 800994a:	f104 0a19 	add.w	sl, r4, #25
 800994e:	68e3      	ldr	r3, [r4, #12]
 8009950:	6832      	ldr	r2, [r6, #0]
 8009952:	1a9b      	subs	r3, r3, r2
 8009954:	42ab      	cmp	r3, r5
 8009956:	dc26      	bgt.n	80099a6 <_printf_common+0x96>
 8009958:	f894 3043 	ldrb.w	r3, [r4, #67]	@ 0x43
 800995c:	6822      	ldr	r2, [r4, #0]
 800995e:	3b00      	subs	r3, #0
 8009960:	bf18      	it	ne
 8009962:	2301      	movne	r3, #1
 8009964:	0692      	lsls	r2, r2, #26
 8009966:	d42b      	bmi.n	80099c0 <_printf_common+0xb0>
 8009968:	f104 0243 	add.w	r2, r4, #67	@ 0x43
 800996c:	4641      	mov	r1, r8
 800996e:	4638      	mov	r0, r7
 8009970:	47c8      	blx	r9
 8009972:	3001      	adds	r0, #1
 8009974:	d01e      	beq.n	80099b4 <_printf_common+0xa4>
 8009976:	6823      	ldr	r3, [r4, #0]
 8009978:	6922      	ldr	r2, [r4, #16]
 800997a:	f003 0306 	and.w	r3, r3, #6
 800997e:	2b04      	cmp	r3, #4
 8009980:	bf02      	ittt	eq
 8009982:	68e5      	ldreq	r5, [r4, #12]
 8009984:	6833      	ldreq	r3, [r6, #0]
 8009986:	1aed      	subeq	r5, r5, r3
 8009988:	68a3      	ldr	r3, [r4, #8]
 800998a:	bf0c      	ite	eq
 800998c:	ea25 75e5 	biceq.w	r5, r5, r5, asr #31
 8009990:	2500      	movne	r5, #0
 8009992:	4293      	cmp	r3, r2
 8009994:	bfc4      	itt	gt
 8009996:	1a9b      	subgt	r3, r3, r2
 8009998:	18ed      	addgt	r5, r5, r3
 800999a:	2600      	movs	r6, #0
 800999c:	341a      	adds	r4, #26
 800999e:	42b5      	cmp	r5, r6
 80099a0:	d11a      	bne.n	80099d8 <_printf_common+0xc8>
 80099a2:	2000      	movs	r0, #0
 80099a4:	e008      	b.n	80099b8 <_printf_common+0xa8>
 80099a6:	2301      	movs	r3, #1
 80099a8:	4652      	mov	r2, sl
 80099aa:	4641      	mov	r1, r8
 80099ac:	4638      	mov	r0, r7
 80099ae:	47c8      	blx	r9
 80099b0:	3001      	adds	r0, #1
 80099b2:	d103      	bne.n	80099bc <_printf_common+0xac>
 80099b4:	f04f 30ff 	mov.w	r0, #4294967295
 80099b8:	e8bd 87f0 	ldmia.w	sp!, {r4, r5, r6, r7, r8, r9, sl, pc}
 80099bc:	3501      	adds	r5, #1
 80099be:	e7c6      	b.n	800994e <_printf_common+0x3e>
 80099c0:	18e1      	adds	r1, r4, r3
 80099c2:	1c5a      	adds	r2, r3, #1
 80099c4:	2030      	movs	r0, #48	@ 0x30
 80099c6:	f881 0043 	strb.w	r0, [r1, #67]	@ 0x43
 80099ca:	4422      	add	r2, r4
 80099cc:	f894 1045 	ldrb.w	r1, [r4, #69]	@ 0x45
 80099d0:	f882 1043 	strb.w	r1, [r2, #67]	@ 0x43
 80099d4:	3302      	adds	r3, #2
 80099d6:	e7c7      	b.n	8009968 <_printf_common+0x58>
 80099d8:	2301      	movs	r3, #1
 80099da:	4622      	mov	r2, r4
 80099dc:	4641      	mov	r1, r8
 80099de:	4638      	mov	r0, r7
 80099e0:	47c8      	blx	r9
 80099e2:	3001      	adds	r0, #1
 80099e4:	d0e6      	beq.n	80099b4 <_printf_common+0xa4>
 80099e6:	3601      	adds	r6, #1
 80099e8:	e7d9      	b.n	800999e <_printf_common+0x8e>
	...

080099ec <_printf_i>:
 80099ec:	e92d 47ff 	stmdb	sp!, {r0, r1, r2, r3, r4, r5, r6, r7, r8, r9, sl, lr}
 80099f0:	7e0f      	ldrb	r7, [r1, #24]
 80099f2:	9e0c      	ldr	r6, [sp, #48]	@ 0x30
 80099f4:	2f78      	cmp	r7, #120	@ 0x78
 80099f6:	4691      	mov	r9, r2
 80099f8:	4680      	mov	r8, r0
 80099fa:	460c      	mov	r4, r1
 80099fc:	469a      	mov	sl, r3
 80099fe:	f101 0243 	add.w	r2, r1, #67	@ 0x43
 8009a02:	d807      	bhi.n	8009a14 <_printf_i+0x28>
 8009a04:	2f62      	cmp	r7, #98	@ 0x62
 8009a06:	d80a      	bhi.n	8009a1e <_printf_i+0x32>
 8009a08:	2f00      	cmp	r7, #0
 8009a0a:	f000 80d1 	beq.w	8009bb0 <_printf_i+0x1c4>
 8009a0e:	2f58      	cmp	r7, #88	@ 0x58
 8009a10:	f000 80b8 	beq.w	8009b84 <_printf_i+0x198>
 8009a14:	f104 0642 	add.w	r6, r4, #66	@ 0x42
 8009a18:	f884 7042 	strb.w	r7, [r4, #66]	@ 0x42
 8009a1c:	e03a      	b.n	8009a94 <_printf_i+0xa8>
 8009a1e:	f1a7 0363 	sub.w	r3, r7, #99	@ 0x63
 8009a22:	2b15      	cmp	r3, #21
 8009a24:	d8f6      	bhi.n	8009a14 <_printf_i+0x28>
 8009a26:	a101      	add	r1, pc, #4	@ (adr r1, 8009a2c <_printf_i+0x40>)
 8009a28:	f851 f023 	ldr.w	pc, [r1, r3, lsl #2]
 8009a2c:	08009a85 	.word	0x08009a85
 8009a30:	08009a99 	.word	0x08009a99
 8009a34:	08009a15 	.word	0x08009a15
 8009a38:	08009a15 	.word	0x08009a15
 8009a3c:	08009a15 	.word	0x08009a15
 8009a40:	08009a15 	.word	0x08009a15
 8009a44:	08009a99 	.word	0x08009a99
 8009a48:	08009a15 	.word	0x08009a15
 8009a4c:	08009a15 	.word	0x08009a15
 8009a50:	08009a15 	.word	0x08009a15
 8009a54:	08009a15 	.word	0x08009a15
 8009a58:	08009b97 	.word	0x08009b97
 8009a5c:	08009ac3 	.word	0x08009ac3
 8009a60:	08009b51 	.word	0x08009b51
 8009a64:	08009a15 	.word	0x08009a15
 8009a68:	08009a15 	.word	0x08009a15
 8009a6c:	08009bb9 	.word	0x08009bb9
 8009a70:	08009a15 	.word	0x08009a15
 8009a74:	08009ac3 	.word	0x08009ac3
 8009a78:	08009a15 	.word	0x08009a15
 8009a7c:	08009a15 	.word	0x08009a15
 8009a80:	08009b59 	.word	0x08009b59
 8009a84:	6833      	ldr	r3, [r6, #0]
 8009a86:	1d1a      	adds	r2, r3, #4
 8009a88:	681b      	ldr	r3, [r3, #0]
 8009a8a:	6032      	str	r2, [r6, #0]
 8009a8c:	f104 0642 	add.w	r6, r4, #66	@ 0x42
 8009a90:	f884 3042 	strb.w	r3, [r4, #66]	@ 0x42
 8009a94:	2301      	movs	r3, #1
 8009a96:	e09c      	b.n	8009bd2 <_printf_i+0x1e6>
 8009a98:	6833      	ldr	r3, [r6, #0]
 8009a9a:	6820      	ldr	r0, [r4, #0]
 8009a9c:	1d19      	adds	r1, r3, #4
 8009a9e:	6031      	str	r1, [r6, #0]
 8009aa0:	0606      	lsls	r6, r0, #24
 8009aa2:	d501      	bpl.n	8009aa8 <_printf_i+0xbc>
 8009aa4:	681d      	ldr	r5, [r3, #0]
 8009aa6:	e003      	b.n	8009ab0 <_printf_i+0xc4>
 8009aa8:	0645      	lsls	r5, r0, #25
 8009aaa:	d5fb      	bpl.n	8009aa4 <_printf_i+0xb8>
 8009aac:	f9b3 5000 	ldrsh.w	r5, [r3]
 8009ab0:	2d00      	cmp	r5, #0
 8009ab2:	da03      	bge.n	8009abc <_printf_i+0xd0>
 8009ab4:	232d      	movs	r3, #45	@ 0x2d
 8009ab6:	426d      	negs	r5, r5
 8009ab8:	f884 3043 	strb.w	r3, [r4, #67]	@ 0x43
 8009abc:	4858      	ldr	r0, [pc, #352]	@ (8009c20 <_printf_i+0x234>)
 8009abe:	230a      	movs	r3, #10
 8009ac0:	e011      	b.n	8009ae6 <_printf_i+0xfa>
 8009ac2:	6821      	ldr	r1, [r4, #0]
 8009ac4:	6833      	ldr	r3, [r6, #0]
 8009ac6:	0608      	lsls	r0, r1, #24
 8009ac8:	f853 5b04 	ldr.w	r5, [r3], #4
 8009acc:	d402      	bmi.n	8009ad4 <_printf_i+0xe8>
 8009ace:	0649      	lsls	r1, r1, #25
 8009ad0:	bf48      	it	mi
 8009ad2:	b2ad      	uxthmi	r5, r5
 8009ad4:	2f6f      	cmp	r7, #111	@ 0x6f
 8009ad6:	4852      	ldr	r0, [pc, #328]	@ (8009c20 <_printf_i+0x234>)
 8009ad8:	6033      	str	r3, [r6, #0]
 8009ada:	bf14      	ite	ne
 8009adc:	230a      	movne	r3, #10
 8009ade:	2308      	moveq	r3, #8
 8009ae0:	2100      	movs	r1, #0
 8009ae2:	f884 1043 	strb.w	r1, [r4, #67]	@ 0x43
 8009ae6:	6866      	ldr	r6, [r4, #4]
 8009ae8:	60a6      	str	r6, [r4, #8]
 8009aea:	2e00      	cmp	r6, #0
 8009aec:	db05      	blt.n	8009afa <_printf_i+0x10e>
 8009aee:	6821      	ldr	r1, [r4, #0]
 8009af0:	432e      	orrs	r6, r5
 8009af2:	f021 0104 	bic.w	r1, r1, #4
 8009af6:	6021      	str	r1, [r4, #0]
 8009af8:	d04b      	beq.n	8009b92 <_printf_i+0x1a6>
 8009afa:	4616      	mov	r6, r2
 8009afc:	fbb5 f1f3 	udiv	r1, r5, r3
 8009b00:	fb03 5711 	mls	r7, r3, r1, r5
 8009b04:	5dc7      	ldrb	r7, [r0, r7]
 8009b06:	f806 7d01 	strb.w	r7, [r6, #-1]!
 8009b0a:	462f      	mov	r7, r5
 8009b0c:	42bb      	cmp	r3, r7
 8009b0e:	460d      	mov	r5, r1
 8009b10:	d9f4      	bls.n	8009afc <_printf_i+0x110>
 8009b12:	2b08      	cmp	r3, #8
 8009b14:	d10b      	bne.n	8009b2e <_printf_i+0x142>
 8009b16:	6823      	ldr	r3, [r4, #0]
 8009b18:	07df      	lsls	r7, r3, #31
 8009b1a:	d508      	bpl.n	8009b2e <_printf_i+0x142>
 8009b1c:	6923      	ldr	r3, [r4, #16]
 8009b1e:	6861      	ldr	r1, [r4, #4]
 8009b20:	4299      	cmp	r1, r3
 8009b22:	bfde      	ittt	le
 8009b24:	2330      	movle	r3, #48	@ 0x30
 8009b26:	f806 3c01 	strble.w	r3, [r6, #-1]
 8009b2a:	f106 36ff 	addle.w	r6, r6, #4294967295
 8009b2e:	1b92      	subs	r2, r2, r6
 8009b30:	6122      	str	r2, [r4, #16]
 8009b32:	f8cd a000 	str.w	sl, [sp]
 8009b36:	464b      	mov	r3, r9
 8009b38:	aa03      	add	r2, sp, #12
 8009b3a:	4621      	mov	r1, r4
 8009b3c:	4640      	mov	r0, r8
 8009b3e:	f7ff fee7 	bl	8009910 <_printf_common>
 8009b42:	3001      	adds	r0, #1
 8009b44:	d14a      	bne.n	8009bdc <_printf_i+0x1f0>
 8009b46:	f04f 30ff 	mov.w	r0, #4294967295
 8009b4a:	b004      	add	sp, #16
 8009b4c:	e8bd 87f0 	ldmia.w	sp!, {r4, r5, r6, r7, r8, r9, sl, pc}
 8009b50:	6823      	ldr	r3, [r4, #0]
 8009b52:	f043 0320 	orr.w	r3, r3, #32
 8009b56:	6023      	str	r3, [r4, #0]
 8009b58:	4832      	ldr	r0, [pc, #200]	@ (8009c24 <_printf_i+0x238>)
 8009b5a:	2778      	movs	r7, #120	@ 0x78
 8009b5c:	f884 7045 	strb.w	r7, [r4, #69]	@ 0x45
 8009b60:	6823      	ldr	r3, [r4, #0]
 8009b62:	6831      	ldr	r1, [r6, #0]
 8009b64:	061f      	lsls	r7, r3, #24
 8009b66:	f851 5b04 	ldr.w	r5, [r1], #4
 8009b6a:	d402      	bmi.n	8009b72 <_printf_i+0x186>
 8009b6c:	065f      	lsls	r7, r3, #25
 8009b6e:	bf48      	it	mi
 8009b70:	b2ad      	uxthmi	r5, r5
 8009b72:	6031      	str	r1, [r6, #0]
 8009b74:	07d9      	lsls	r1, r3, #31
 8009b76:	bf44      	itt	mi
 8009b78:	f043 0320 	orrmi.w	r3, r3, #32
 8009b7c:	6023      	strmi	r3, [r4, #0]
 8009b7e:	b11d      	cbz	r5, 8009b88 <_printf_i+0x19c>
 8009b80:	2310      	movs	r3, #16
 8009b82:	e7ad      	b.n	8009ae0 <_printf_i+0xf4>
 8009b84:	4826      	ldr	r0, [pc, #152]	@ (8009c20 <_printf_i+0x234>)
 8009b86:	e7e9      	b.n	8009b5c <_printf_i+0x170>
 8009b88:	6823      	ldr	r3, [r4, #0]
 8009b8a:	f023 0320 	bic.w	r3, r3, #32
 8009b8e:	6023      	str	r3, [r4, #0]
 8009b90:	e7f6      	b.n	8009b80 <_printf_i+0x194>
 8009b92:	4616      	mov	r6, r2
 8009b94:	e7bd      	b.n	8009b12 <_printf_i+0x126>
 8009b96:	6833      	ldr	r3, [r6, #0]
 8009b98:	6825      	ldr	r5, [r4, #0]
 8009b9a:	6961      	ldr	r1, [r4, #20]
 8009b9c:	1d18      	adds	r0, r3, #4
 8009b9e:	6030      	str	r0, [r6, #0]
 8009ba0:	062e      	lsls	r6, r5, #24
 8009ba2:	681b      	ldr	r3, [r3, #0]
 8009ba4:	d501      	bpl.n	8009baa <_printf_i+0x1be>
 8009ba6:	6019      	str	r1, [r3, #0]
 8009ba8:	e002      	b.n	8009bb0 <_printf_i+0x1c4>
 8009baa:	0668      	lsls	r0, r5, #25
 8009bac:	d5fb      	bpl.n	8009ba6 <_printf_i+0x1ba>
 8009bae:	8019      	strh	r1, [r3, #0]
 8009bb0:	2300      	movs	r3, #0
 8009bb2:	6123      	str	r3, [r4, #16]
 8009bb4:	4616      	mov	r6, r2
 8009bb6:	e7bc      	b.n	8009b32 <_printf_i+0x146>
 8009bb8:	6833      	ldr	r3, [r6, #0]
 8009bba:	1d1a      	adds	r2, r3, #4
 8009bbc:	6032      	str	r2, [r6, #0]
 8009bbe:	681e      	ldr	r6, [r3, #0]
 8009bc0:	6862      	ldr	r2, [r4, #4]
 8009bc2:	2100      	movs	r1, #0
 8009bc4:	4630      	mov	r0, r6
 8009bc6:	f7f6 fb0b 	bl	80001e0 <memchr>
 8009bca:	b108      	cbz	r0, 8009bd0 <_printf_i+0x1e4>
 8009bcc:	1b80      	subs	r0, r0, r6
 8009bce:	6060      	str	r0, [r4, #4]
 8009bd0:	6863      	ldr	r3, [r4, #4]
 8009bd2:	6123      	str	r3, [r4, #16]
 8009bd4:	2300      	movs	r3, #0
 8009bd6:	f884 3043 	strb.w	r3, [r4, #67]	@ 0x43
 8009bda:	e7aa      	b.n	8009b32 <_printf_i+0x146>
 8009bdc:	6923      	ldr	r3, [r4, #16]
 8009bde:	4632      	mov	r2, r6
 8009be0:	4649      	mov	r1, r9
 8009be2:	4640      	mov	r0, r8
 8009be4:	47d0      	blx	sl
 8009be6:	3001      	adds	r0, #1
 8009be8:	d0ad      	beq.n	8009b46 <_printf_i+0x15a>
 8009bea:	6823      	ldr	r3, [r4, #0]
 8009bec:	079b      	lsls	r3, r3, #30
 8009bee:	d413      	bmi.n	8009c18 <_printf_i+0x22c>
 8009bf0:	68e0      	ldr	r0, [r4, #12]
 8009bf2:	9b03      	ldr	r3, [sp, #12]
 8009bf4:	4298      	cmp	r0, r3
 8009bf6:	bfb8      	it	lt
 8009bf8:	4618      	movlt	r0, r3
 8009bfa:	e7a6      	b.n	8009b4a <_printf_i+0x15e>
 8009bfc:	2301      	movs	r3, #1
 8009bfe:	4632      	mov	r2, r6
 8009c00:	4649      	mov	r1, r9
 8009c02:	4640      	mov	r0, r8
 8009c04:	47d0      	blx	sl
 8009c06:	3001      	adds	r0, #1
 8009c08:	d09d      	beq.n	8009b46 <_printf_i+0x15a>
 8009c0a:	3501      	adds	r5, #1
 8009c0c:	68e3      	ldr	r3, [r4, #12]
 8009c0e:	9903      	ldr	r1, [sp, #12]
 8009c10:	1a5b      	subs	r3, r3, r1
 8009c12:	42ab      	cmp	r3, r5
 8009c14:	dcf2      	bgt.n	8009bfc <_printf_i+0x210>
 8009c16:	e7eb      	b.n	8009bf0 <_printf_i+0x204>
 8009c18:	2500      	movs	r5, #0
 8009c1a:	f104 0619 	add.w	r6, r4, #25
 8009c1e:	e7f5      	b.n	8009c0c <_printf_i+0x220>
 8009c20:	0800c2aa 	.word	0x0800c2aa
 8009c24:	0800c2bb 	.word	0x0800c2bb

08009c28 <std>:
 8009c28:	2300      	movs	r3, #0
 8009c2a:	b510      	push	{r4, lr}
 8009c2c:	4604      	mov	r4, r0
 8009c2e:	e9c0 3300 	strd	r3, r3, [r0]
 8009c32:	e9c0 3304 	strd	r3, r3, [r0, #16]
 8009c36:	6083      	str	r3, [r0, #8]
 8009c38:	8181      	strh	r1, [r0, #12]
 8009c3a:	6643      	str	r3, [r0, #100]	@ 0x64
 8009c3c:	81c2      	strh	r2, [r0, #14]
 8009c3e:	6183      	str	r3, [r0, #24]
 8009c40:	4619      	mov	r1, r3
 8009c42:	2208      	movs	r2, #8
 8009c44:	305c      	adds	r0, #92	@ 0x5c
 8009c46:	f000 f92a 	bl	8009e9e <memset>
 8009c4a:	4b0d      	ldr	r3, [pc, #52]	@ (8009c80 <std+0x58>)
 8009c4c:	6263      	str	r3, [r4, #36]	@ 0x24
 8009c4e:	4b0d      	ldr	r3, [pc, #52]	@ (8009c84 <std+0x5c>)
 8009c50:	62a3      	str	r3, [r4, #40]	@ 0x28
 8009c52:	4b0d      	ldr	r3, [pc, #52]	@ (8009c88 <std+0x60>)
 8009c54:	62e3      	str	r3, [r4, #44]	@ 0x2c
 8009c56:	4b0d      	ldr	r3, [pc, #52]	@ (8009c8c <std+0x64>)
 8009c58:	6323      	str	r3, [r4, #48]	@ 0x30
 8009c5a:	4b0d      	ldr	r3, [pc, #52]	@ (8009c90 <std+0x68>)
 8009c5c:	6224      	str	r4, [r4, #32]
 8009c5e:	429c      	cmp	r4, r3
 8009c60:	d006      	beq.n	8009c70 <std+0x48>
 8009c62:	f103 0268 	add.w	r2, r3, #104	@ 0x68
 8009c66:	4294      	cmp	r4, r2
 8009c68:	d002      	beq.n	8009c70 <std+0x48>
 8009c6a:	33d0      	adds	r3, #208	@ 0xd0
 8009c6c:	429c      	cmp	r4, r3
 8009c6e:	d105      	bne.n	8009c7c <std+0x54>
 8009c70:	f104 0058 	add.w	r0, r4, #88	@ 0x58
 8009c74:	e8bd 4010 	ldmia.w	sp!, {r4, lr}
 8009c78:	f000 b9ec 	b.w	800a054 <__retarget_lock_init_recursive>
 8009c7c:	bd10      	pop	{r4, pc}
 8009c7e:	bf00      	nop
 8009c80:	08009e19 	.word	0x08009e19
 8009c84:	08009e3b 	.word	0x08009e3b
 8009c88:	08009e73 	.word	0x08009e73
 8009c8c:	08009e97 	.word	0x08009e97
 8009c90:	20006f70 	.word	0x20006f70

08009c94 <stdio_exit_handler>:
 8009c94:	4a02      	ldr	r2, [pc, #8]	@ (8009ca0 <stdio_exit_handler+0xc>)
 8009c96:	4903      	ldr	r1, [pc, #12]	@ (8009ca4 <stdio_exit_handler+0x10>)
 8009c98:	4803      	ldr	r0, [pc, #12]	@ (8009ca8 <stdio_exit_handler+0x14>)
 8009c9a:	f000 b869 	b.w	8009d70 <_fwalk_sglue>
 8009c9e:	bf00      	nop
 8009ca0:	20000100 	.word	0x20000100
 8009ca4:	0800b9d5 	.word	0x0800b9d5
 8009ca8:	20000110 	.word	0x20000110

08009cac <cleanup_stdio>:
 8009cac:	6841      	ldr	r1, [r0, #4]
 8009cae:	4b0c      	ldr	r3, [pc, #48]	@ (8009ce0 <cleanup_stdio+0x34>)
 8009cb0:	4299      	cmp	r1, r3
 8009cb2:	b510      	push	{r4, lr}
 8009cb4:	4604      	mov	r4, r0
 8009cb6:	d001      	beq.n	8009cbc <cleanup_stdio+0x10>
 8009cb8:	f001 fe8c 	bl	800b9d4 <_fflush_r>
 8009cbc:	68a1      	ldr	r1, [r4, #8]
 8009cbe:	4b09      	ldr	r3, [pc, #36]	@ (8009ce4 <cleanup_stdio+0x38>)
 8009cc0:	4299      	cmp	r1, r3
 8009cc2:	d002      	beq.n	8009cca <cleanup_stdio+0x1e>
 8009cc4:	4620      	mov	r0, r4
 8009cc6:	f001 fe85 	bl	800b9d4 <_fflush_r>
 8009cca:	68e1      	ldr	r1, [r4, #12]
 8009ccc:	4b06      	ldr	r3, [pc, #24]	@ (8009ce8 <cleanup_stdio+0x3c>)
 8009cce:	4299      	cmp	r1, r3
 8009cd0:	d004      	beq.n	8009cdc <cleanup_stdio+0x30>
 8009cd2:	4620      	mov	r0, r4
 8009cd4:	e8bd 4010 	ldmia.w	sp!, {r4, lr}
 8009cd8:	f001 be7c 	b.w	800b9d4 <_fflush_r>
 8009cdc:	bd10      	pop	{r4, pc}
 8009cde:	bf00      	nop
 8009ce0:	20006f70 	.word	0x20006f70
 8009ce4:	20006fd8 	.word	0x20006fd8
 8009ce8:	20007040 	.word	0x20007040

08009cec <global_stdio_init.part.0>:
 8009cec:	b510      	push	{r4, lr}
 8009cee:	4b0b      	ldr	r3, [pc, #44]	@ (8009d1c <global_stdio_init.part.0+0x30>)
 8009cf0:	4c0b      	ldr	r4, [pc, #44]	@ (8009d20 <global_stdio_init.part.0+0x34>)
 8009cf2:	4a0c      	ldr	r2, [pc, #48]	@ (8009d24 <global_stdio_init.part.0+0x38>)
 8009cf4:	601a      	str	r2, [r3, #0]
 8009cf6:	4620      	mov	r0, r4
 8009cf8:	2200      	movs	r2, #0
 8009cfa:	2104      	movs	r1, #4
 8009cfc:	f7ff ff94 	bl	8009c28 <std>
 8009d00:	f104 0068 	add.w	r0, r4, #104	@ 0x68
 8009d04:	2201      	movs	r2, #1
 8009d06:	2109      	movs	r1, #9
 8009d08:	f7ff ff8e 	bl	8009c28 <std>
 8009d0c:	f104 00d0 	add.w	r0, r4, #208	@ 0xd0
 8009d10:	2202      	movs	r2, #2
 8009d12:	e8bd 4010 	ldmia.w	sp!, {r4, lr}
 8009d16:	2112      	movs	r1, #18
 8009d18:	f7ff bf86 	b.w	8009c28 <std>
 8009d1c:	200070a8 	.word	0x200070a8
 8009d20:	20006f70 	.word	0x20006f70
 8009d24:	08009c95 	.word	0x08009c95

08009d28 <__sfp_lock_acquire>:
 8009d28:	4801      	ldr	r0, [pc, #4]	@ (8009d30 <__sfp_lock_acquire+0x8>)
 8009d2a:	f000 b994 	b.w	800a056 <__retarget_lock_acquire_recursive>
 8009d2e:	bf00      	nop
 8009d30:	200070b1 	.word	0x200070b1

08009d34 <__sfp_lock_release>:
 8009d34:	4801      	ldr	r0, [pc, #4]	@ (8009d3c <__sfp_lock_release+0x8>)
 8009d36:	f000 b98f 	b.w	800a058 <__retarget_lock_release_recursive>
 8009d3a:	bf00      	nop
 8009d3c:	200070b1 	.word	0x200070b1

08009d40 <__sinit>:
 8009d40:	b510      	push	{r4, lr}
 8009d42:	4604      	mov	r4, r0
 8009d44:	f7ff fff0 	bl	8009d28 <__sfp_lock_acquire>
 8009d48:	6a23      	ldr	r3, [r4, #32]
 8009d4a:	b11b      	cbz	r3, 8009d54 <__sinit+0x14>
 8009d4c:	e8bd 4010 	ldmia.w	sp!, {r4, lr}
 8009d50:	f7ff bff0 	b.w	8009d34 <__sfp_lock_release>
 8009d54:	4b04      	ldr	r3, [pc, #16]	@ (8009d68 <__sinit+0x28>)
 8009d56:	6223      	str	r3, [r4, #32]
 8009d58:	4b04      	ldr	r3, [pc, #16]	@ (8009d6c <__sinit+0x2c>)
 8009d5a:	681b      	ldr	r3, [r3, #0]
 8009d5c:	2b00      	cmp	r3, #0
 8009d5e:	d1f5      	bne.n	8009d4c <__sinit+0xc>
 8009d60:	f7ff ffc4 	bl	8009cec <global_stdio_init.part.0>
 8009d64:	e7f2      	b.n	8009d4c <__sinit+0xc>
 8009d66:	bf00      	nop
 8009d68:	08009cad 	.word	0x08009cad
 8009d6c:	200070a8 	.word	0x200070a8

08009d70 <_fwalk_sglue>:
 8009d70:	e92d 43f8 	stmdb	sp!, {r3, r4, r5, r6, r7, r8, r9, lr}
 8009d74:	4607      	mov	r7, r0
 8009d76:	4688      	mov	r8, r1
 8009d78:	4614      	mov	r4, r2
 8009d7a:	2600      	movs	r6, #0
 8009d7c:	e9d4 9501 	ldrd	r9, r5, [r4, #4]
 8009d80:	f1b9 0901 	subs.w	r9, r9, #1
 8009d84:	d505      	bpl.n	8009d92 <_fwalk_sglue+0x22>
 8009d86:	6824      	ldr	r4, [r4, #0]
 8009d88:	2c00      	cmp	r4, #0
 8009d8a:	d1f7      	bne.n	8009d7c <_fwalk_sglue+0xc>
 8009d8c:	4630      	mov	r0, r6
 8009d8e:	e8bd 83f8 	ldmia.w	sp!, {r3, r4, r5, r6, r7, r8, r9, pc}
 8009d92:	89ab      	ldrh	r3, [r5, #12]
 8009d94:	2b01      	cmp	r3, #1
 8009d96:	d907      	bls.n	8009da8 <_fwalk_sglue+0x38>
 8009d98:	f9b5 300e 	ldrsh.w	r3, [r5, #14]
 8009d9c:	3301      	adds	r3, #1
 8009d9e:	d003      	beq.n	8009da8 <_fwalk_sglue+0x38>
 8009da0:	4629      	mov	r1, r5
 8009da2:	4638      	mov	r0, r7
 8009da4:	47c0      	blx	r8
 8009da6:	4306      	orrs	r6, r0
 8009da8:	3568      	adds	r5, #104	@ 0x68
 8009daa:	e7e9      	b.n	8009d80 <_fwalk_sglue+0x10>

08009dac <sniprintf>:
 8009dac:	b40c      	push	{r2, r3}
 8009dae:	b530      	push	{r4, r5, lr}
 8009db0:	4b18      	ldr	r3, [pc, #96]	@ (8009e14 <sniprintf+0x68>)
 8009db2:	1e0c      	subs	r4, r1, #0
 8009db4:	681d      	ldr	r5, [r3, #0]
 8009db6:	b09d      	sub	sp, #116	@ 0x74
 8009db8:	da08      	bge.n	8009dcc <sniprintf+0x20>
 8009dba:	238b      	movs	r3, #139	@ 0x8b
 8009dbc:	602b      	str	r3, [r5, #0]
 8009dbe:	f04f 30ff 	mov.w	r0, #4294967295
 8009dc2:	b01d      	add	sp, #116	@ 0x74
 8009dc4:	e8bd 4030 	ldmia.w	sp!, {r4, r5, lr}
 8009dc8:	b002      	add	sp, #8
 8009dca:	4770      	bx	lr
 8009dcc:	f44f 7302 	mov.w	r3, #520	@ 0x208
 8009dd0:	f8ad 3014 	strh.w	r3, [sp, #20]
 8009dd4:	f04f 0300 	mov.w	r3, #0
 8009dd8:	931b      	str	r3, [sp, #108]	@ 0x6c
 8009dda:	bf14      	ite	ne
 8009ddc:	f104 33ff 	addne.w	r3, r4, #4294967295
 8009de0:	4623      	moveq	r3, r4
 8009de2:	9304      	str	r3, [sp, #16]
 8009de4:	9307      	str	r3, [sp, #28]
 8009de6:	f64f 73ff 	movw	r3, #65535	@ 0xffff
 8009dea:	9002      	str	r0, [sp, #8]
 8009dec:	9006      	str	r0, [sp, #24]
 8009dee:	f8ad 3016 	strh.w	r3, [sp, #22]
 8009df2:	9a20      	ldr	r2, [sp, #128]	@ 0x80
 8009df4:	ab21      	add	r3, sp, #132	@ 0x84
 8009df6:	a902      	add	r1, sp, #8
 8009df8:	4628      	mov	r0, r5
 8009dfa:	9301      	str	r3, [sp, #4]
 8009dfc:	f001 fc6a 	bl	800b6d4 <_svfiprintf_r>
 8009e00:	1c43      	adds	r3, r0, #1
 8009e02:	bfbc      	itt	lt
 8009e04:	238b      	movlt	r3, #139	@ 0x8b
 8009e06:	602b      	strlt	r3, [r5, #0]
 8009e08:	2c00      	cmp	r4, #0
 8009e0a:	d0da      	beq.n	8009dc2 <sniprintf+0x16>
 8009e0c:	9b02      	ldr	r3, [sp, #8]
 8009e0e:	2200      	movs	r2, #0
 8009e10:	701a      	strb	r2, [r3, #0]
 8009e12:	e7d6      	b.n	8009dc2 <sniprintf+0x16>
 8009e14:	2000010c 	.word	0x2000010c

08009e18 <__sread>:
 8009e18:	b510      	push	{r4, lr}
 8009e1a:	460c      	mov	r4, r1
 8009e1c:	f9b1 100e 	ldrsh.w	r1, [r1, #14]
 8009e20:	f000 f8ca 	bl	8009fb8 <_read_r>
 8009e24:	2800      	cmp	r0, #0
 8009e26:	bfab      	itete	ge
 8009e28:	6d63      	ldrge	r3, [r4, #84]	@ 0x54
 8009e2a:	89a3      	ldrhlt	r3, [r4, #12]
 8009e2c:	181b      	addge	r3, r3, r0
 8009e2e:	f423 5380 	biclt.w	r3, r3, #4096	@ 0x1000
 8009e32:	bfac      	ite	ge
 8009e34:	6563      	strge	r3, [r4, #84]	@ 0x54
 8009e36:	81a3      	strhlt	r3, [r4, #12]
 8009e38:	bd10      	pop	{r4, pc}

08009e3a <__swrite>:
 8009e3a:	e92d 41f0 	stmdb	sp!, {r4, r5, r6, r7, r8, lr}
 8009e3e:	461f      	mov	r7, r3
 8009e40:	898b      	ldrh	r3, [r1, #12]
 8009e42:	05db      	lsls	r3, r3, #23
 8009e44:	4605      	mov	r5, r0
 8009e46:	460c      	mov	r4, r1
 8009e48:	4616      	mov	r6, r2
 8009e4a:	d505      	bpl.n	8009e58 <__swrite+0x1e>
 8009e4c:	f9b1 100e 	ldrsh.w	r1, [r1, #14]
 8009e50:	2302      	movs	r3, #2
 8009e52:	2200      	movs	r2, #0
 8009e54:	f000 f89e 	bl	8009f94 <_lseek_r>
 8009e58:	89a3      	ldrh	r3, [r4, #12]
 8009e5a:	f9b4 100e 	ldrsh.w	r1, [r4, #14]
 8009e5e:	f423 5380 	bic.w	r3, r3, #4096	@ 0x1000
 8009e62:	81a3      	strh	r3, [r4, #12]
 8009e64:	4632      	mov	r2, r6
 8009e66:	463b      	mov	r3, r7
 8009e68:	4628      	mov	r0, r5
 8009e6a:	e8bd 41f0 	ldmia.w	sp!, {r4, r5, r6, r7, r8, lr}
 8009e6e:	f000 b8b5 	b.w	8009fdc <_write_r>

08009e72 <__sseek>:
 8009e72:	b510      	push	{r4, lr}
 8009e74:	460c      	mov	r4, r1
 8009e76:	f9b1 100e 	ldrsh.w	r1, [r1, #14]
 8009e7a:	f000 f88b 	bl	8009f94 <_lseek_r>
 8009e7e:	1c43      	adds	r3, r0, #1
 8009e80:	89a3      	ldrh	r3, [r4, #12]
 8009e82:	bf15      	itete	ne
 8009e84:	6560      	strne	r0, [r4, #84]	@ 0x54
 8009e86:	f423 5380 	biceq.w	r3, r3, #4096	@ 0x1000
 8009e8a:	f443 5380 	orrne.w	r3, r3, #4096	@ 0x1000
 8009e8e:	81a3      	strheq	r3, [r4, #12]
 8009e90:	bf18      	it	ne
 8009e92:	81a3      	strhne	r3, [r4, #12]
 8009e94:	bd10      	pop	{r4, pc}

08009e96 <__sclose>:
 8009e96:	f9b1 100e 	ldrsh.w	r1, [r1, #14]
 8009e9a:	f000 b80d 	b.w	8009eb8 <_close_r>

08009e9e <memset>:
 8009e9e:	4402      	add	r2, r0
 8009ea0:	4603      	mov	r3, r0
 8009ea2:	4293      	cmp	r3, r2
 8009ea4:	d100      	bne.n	8009ea8 <memset+0xa>
 8009ea6:	4770      	bx	lr
 8009ea8:	f803 1b01 	strb.w	r1, [r3], #1
 8009eac:	e7f9      	b.n	8009ea2 <memset+0x4>
	...

08009eb0 <_localeconv_r>:
 8009eb0:	4800      	ldr	r0, [pc, #0]	@ (8009eb4 <_localeconv_r+0x4>)
 8009eb2:	4770      	bx	lr
 8009eb4:	2000024c 	.word	0x2000024c

08009eb8 <_close_r>:
 8009eb8:	b538      	push	{r3, r4, r5, lr}
 8009eba:	4d06      	ldr	r5, [pc, #24]	@ (8009ed4 <_close_r+0x1c>)
 8009ebc:	2300      	movs	r3, #0
 8009ebe:	4604      	mov	r4, r0
 8009ec0:	4608      	mov	r0, r1
 8009ec2:	602b      	str	r3, [r5, #0]
 8009ec4:	f7f8 fe62 	bl	8002b8c <_close>
 8009ec8:	1c43      	adds	r3, r0, #1
 8009eca:	d102      	bne.n	8009ed2 <_close_r+0x1a>
 8009ecc:	682b      	ldr	r3, [r5, #0]
 8009ece:	b103      	cbz	r3, 8009ed2 <_close_r+0x1a>
 8009ed0:	6023      	str	r3, [r4, #0]
 8009ed2:	bd38      	pop	{r3, r4, r5, pc}
 8009ed4:	200070ac 	.word	0x200070ac

08009ed8 <_reclaim_reent>:
 8009ed8:	4b2d      	ldr	r3, [pc, #180]	@ (8009f90 <_reclaim_reent+0xb8>)
 8009eda:	681b      	ldr	r3, [r3, #0]
 8009edc:	4283      	cmp	r3, r0
 8009ede:	b570      	push	{r4, r5, r6, lr}
 8009ee0:	4604      	mov	r4, r0
 8009ee2:	d053      	beq.n	8009f8c <_reclaim_reent+0xb4>
 8009ee4:	69c3      	ldr	r3, [r0, #28]
 8009ee6:	b31b      	cbz	r3, 8009f30 <_reclaim_reent+0x58>
 8009ee8:	68db      	ldr	r3, [r3, #12]
 8009eea:	b163      	cbz	r3, 8009f06 <_reclaim_reent+0x2e>
 8009eec:	2500      	movs	r5, #0
 8009eee:	69e3      	ldr	r3, [r4, #28]
 8009ef0:	68db      	ldr	r3, [r3, #12]
 8009ef2:	5959      	ldr	r1, [r3, r5]
 8009ef4:	b9b1      	cbnz	r1, 8009f24 <_reclaim_reent+0x4c>
 8009ef6:	3504      	adds	r5, #4
 8009ef8:	2d80      	cmp	r5, #128	@ 0x80
 8009efa:	d1f8      	bne.n	8009eee <_reclaim_reent+0x16>
 8009efc:	69e3      	ldr	r3, [r4, #28]
 8009efe:	4620      	mov	r0, r4
 8009f00:	68d9      	ldr	r1, [r3, #12]
 8009f02:	f000 ff11 	bl	800ad28 <_free_r>
 8009f06:	69e3      	ldr	r3, [r4, #28]
 8009f08:	6819      	ldr	r1, [r3, #0]
 8009f0a:	b111      	cbz	r1, 8009f12 <_reclaim_reent+0x3a>
 8009f0c:	4620      	mov	r0, r4
 8009f0e:	f000 ff0b 	bl	800ad28 <_free_r>
 8009f12:	69e3      	ldr	r3, [r4, #28]
 8009f14:	689d      	ldr	r5, [r3, #8]
 8009f16:	b15d      	cbz	r5, 8009f30 <_reclaim_reent+0x58>
 8009f18:	4629      	mov	r1, r5
 8009f1a:	4620      	mov	r0, r4
 8009f1c:	682d      	ldr	r5, [r5, #0]
 8009f1e:	f000 ff03 	bl	800ad28 <_free_r>
 8009f22:	e7f8      	b.n	8009f16 <_reclaim_reent+0x3e>
 8009f24:	680e      	ldr	r6, [r1, #0]
 8009f26:	4620      	mov	r0, r4
 8009f28:	f000 fefe 	bl	800ad28 <_free_r>
 8009f2c:	4631      	mov	r1, r6
 8009f2e:	e7e1      	b.n	8009ef4 <_reclaim_reent+0x1c>
 8009f30:	6961      	ldr	r1, [r4, #20]
 8009f32:	b111      	cbz	r1, 8009f3a <_reclaim_reent+0x62>
 8009f34:	4620      	mov	r0, r4
 8009f36:	f000 fef7 	bl	800ad28 <_free_r>
 8009f3a:	69e1      	ldr	r1, [r4, #28]
 8009f3c:	b111      	cbz	r1, 8009f44 <_reclaim_reent+0x6c>
 8009f3e:	4620      	mov	r0, r4
 8009f40:	f000 fef2 	bl	800ad28 <_free_r>
 8009f44:	6b21      	ldr	r1, [r4, #48]	@ 0x30
 8009f46:	b111      	cbz	r1, 8009f4e <_reclaim_reent+0x76>
 8009f48:	4620      	mov	r0, r4
 8009f4a:	f000 feed 	bl	800ad28 <_free_r>
 8009f4e:	6b61      	ldr	r1, [r4, #52]	@ 0x34
 8009f50:	b111      	cbz	r1, 8009f58 <_reclaim_reent+0x80>
 8009f52:	4620      	mov	r0, r4
 8009f54:	f000 fee8 	bl	800ad28 <_free_r>
 8009f58:	6ba1      	ldr	r1, [r4, #56]	@ 0x38
 8009f5a:	b111      	cbz	r1, 8009f62 <_reclaim_reent+0x8a>
 8009f5c:	4620      	mov	r0, r4
 8009f5e:	f000 fee3 	bl	800ad28 <_free_r>
 8009f62:	6ca1      	ldr	r1, [r4, #72]	@ 0x48
 8009f64:	b111      	cbz	r1, 8009f6c <_reclaim_reent+0x94>
 8009f66:	4620      	mov	r0, r4
 8009f68:	f000 fede 	bl	800ad28 <_free_r>
 8009f6c:	6c61      	ldr	r1, [r4, #68]	@ 0x44
 8009f6e:	b111      	cbz	r1, 8009f76 <_reclaim_reent+0x9e>
 8009f70:	4620      	mov	r0, r4
 8009f72:	f000 fed9 	bl	800ad28 <_free_r>
 8009f76:	6ae1      	ldr	r1, [r4, #44]	@ 0x2c
 8009f78:	b111      	cbz	r1, 8009f80 <_reclaim_reent+0xa8>
 8009f7a:	4620      	mov	r0, r4
 8009f7c:	f000 fed4 	bl	800ad28 <_free_r>
 8009f80:	6a23      	ldr	r3, [r4, #32]
 8009f82:	b11b      	cbz	r3, 8009f8c <_reclaim_reent+0xb4>
 8009f84:	4620      	mov	r0, r4
 8009f86:	e8bd 4070 	ldmia.w	sp!, {r4, r5, r6, lr}
 8009f8a:	4718      	bx	r3
 8009f8c:	bd70      	pop	{r4, r5, r6, pc}
 8009f8e:	bf00      	nop
 8009f90:	2000010c 	.word	0x2000010c

08009f94 <_lseek_r>:
 8009f94:	b538      	push	{r3, r4, r5, lr}
 8009f96:	4d07      	ldr	r5, [pc, #28]	@ (8009fb4 <_lseek_r+0x20>)
 8009f98:	4604      	mov	r4, r0
 8009f9a:	4608      	mov	r0, r1
 8009f9c:	4611      	mov	r1, r2
 8009f9e:	2200      	movs	r2, #0
 8009fa0:	602a      	str	r2, [r5, #0]
 8009fa2:	461a      	mov	r2, r3
 8009fa4:	f7f8 fdfc 	bl	8002ba0 <_lseek>
 8009fa8:	1c43      	adds	r3, r0, #1
 8009faa:	d102      	bne.n	8009fb2 <_lseek_r+0x1e>
 8009fac:	682b      	ldr	r3, [r5, #0]
 8009fae:	b103      	cbz	r3, 8009fb2 <_lseek_r+0x1e>
 8009fb0:	6023      	str	r3, [r4, #0]
 8009fb2:	bd38      	pop	{r3, r4, r5, pc}
 8009fb4:	200070ac 	.word	0x200070ac

08009fb8 <_read_r>:
 8009fb8:	b538      	push	{r3, r4, r5, lr}
 8009fba:	4d07      	ldr	r5, [pc, #28]	@ (8009fd8 <_read_r+0x20>)
 8009fbc:	4604      	mov	r4, r0
 8009fbe:	4608      	mov	r0, r1
 8009fc0:	4611      	mov	r1, r2
 8009fc2:	2200      	movs	r2, #0
 8009fc4:	602a      	str	r2, [r5, #0]
 8009fc6:	461a      	mov	r2, r3
 8009fc8:	f7f8 fdc4 	bl	8002b54 <_read>
 8009fcc:	1c43      	adds	r3, r0, #1
 8009fce:	d102      	bne.n	8009fd6 <_read_r+0x1e>
 8009fd0:	682b      	ldr	r3, [r5, #0]
 8009fd2:	b103      	cbz	r3, 8009fd6 <_read_r+0x1e>
 8009fd4:	6023      	str	r3, [r4, #0]
 8009fd6:	bd38      	pop	{r3, r4, r5, pc}
 8009fd8:	200070ac 	.word	0x200070ac

08009fdc <_write_r>:
 8009fdc:	b538      	push	{r3, r4, r5, lr}
 8009fde:	4d07      	ldr	r5, [pc, #28]	@ (8009ffc <_write_r+0x20>)
 8009fe0:	4604      	mov	r4, r0
 8009fe2:	4608      	mov	r0, r1
 8009fe4:	4611      	mov	r1, r2
 8009fe6:	2200      	movs	r2, #0
 8009fe8:	602a      	str	r2, [r5, #0]
 8009fea:	461a      	mov	r2, r3
 8009fec:	f7f8 fdc0 	bl	8002b70 <_write>
 8009ff0:	1c43      	adds	r3, r0, #1
 8009ff2:	d102      	bne.n	8009ffa <_write_r+0x1e>
 8009ff4:	682b      	ldr	r3, [r5, #0]
 8009ff6:	b103      	cbz	r3, 8009ffa <_write_r+0x1e>
 8009ff8:	6023      	str	r3, [r4, #0]
 8009ffa:	bd38      	pop	{r3, r4, r5, pc}
 8009ffc:	200070ac 	.word	0x200070ac

0800a000 <__errno>:
 800a000:	4b01      	ldr	r3, [pc, #4]	@ (800a008 <__errno+0x8>)
 800a002:	6818      	ldr	r0, [r3, #0]
 800a004:	4770      	bx	lr
 800a006:	bf00      	nop
 800a008:	2000010c 	.word	0x2000010c

0800a00c <__libc_init_array>:
 800a00c:	b570      	push	{r4, r5, r6, lr}
 800a00e:	4d0d      	ldr	r5, [pc, #52]	@ (800a044 <__libc_init_array+0x38>)
 800a010:	4c0d      	ldr	r4, [pc, #52]	@ (800a048 <__libc_init_array+0x3c>)
 800a012:	1b64      	subs	r4, r4, r5
 800a014:	10a4      	asrs	r4, r4, #2
 800a016:	2600      	movs	r6, #0
 800a018:	42a6      	cmp	r6, r4
 800a01a:	d109      	bne.n	800a030 <__libc_init_array+0x24>
 800a01c:	4d0b      	ldr	r5, [pc, #44]	@ (800a04c <__libc_init_array+0x40>)
 800a01e:	4c0c      	ldr	r4, [pc, #48]	@ (800a050 <__libc_init_array+0x44>)
 800a020:	f002 f868 	bl	800c0f4 <_init>
 800a024:	1b64      	subs	r4, r4, r5
 800a026:	10a4      	asrs	r4, r4, #2
 800a028:	2600      	movs	r6, #0
 800a02a:	42a6      	cmp	r6, r4
 800a02c:	d105      	bne.n	800a03a <__libc_init_array+0x2e>
 800a02e:	bd70      	pop	{r4, r5, r6, pc}
 800a030:	f855 3b04 	ldr.w	r3, [r5], #4
 800a034:	4798      	blx	r3
 800a036:	3601      	adds	r6, #1
 800a038:	e7ee      	b.n	800a018 <__libc_init_array+0xc>
 800a03a:	f855 3b04 	ldr.w	r3, [r5], #4
 800a03e:	4798      	blx	r3
 800a040:	3601      	adds	r6, #1
 800a042:	e7f2      	b.n	800a02a <__libc_init_array+0x1e>
 800a044:	0800ca04 	.word	0x0800ca04
 800a048:	0800ca04 	.word	0x0800ca04
 800a04c:	0800ca04 	.word	0x0800ca04
 800a050:	0800ca08 	.word	0x0800ca08

0800a054 <__retarget_lock_init_recursive>:
 800a054:	4770      	bx	lr

0800a056 <__retarget_lock_acquire_recursive>:
 800a056:	4770      	bx	lr

0800a058 <__retarget_lock_release_recursive>:
 800a058:	4770      	bx	lr

0800a05a <memcpy>:
 800a05a:	440a      	add	r2, r1
 800a05c:	4291      	cmp	r1, r2
 800a05e:	f100 33ff 	add.w	r3, r0, #4294967295
 800a062:	d100      	bne.n	800a066 <memcpy+0xc>
 800a064:	4770      	bx	lr
 800a066:	b510      	push	{r4, lr}
 800a068:	f811 4b01 	ldrb.w	r4, [r1], #1
 800a06c:	f803 4f01 	strb.w	r4, [r3, #1]!
 800a070:	4291      	cmp	r1, r2
 800a072:	d1f9      	bne.n	800a068 <memcpy+0xe>
 800a074:	bd10      	pop	{r4, pc}

0800a076 <quorem>:
 800a076:	e92d 4ff7 	stmdb	sp!, {r0, r1, r2, r4, r5, r6, r7, r8, r9, sl, fp, lr}
 800a07a:	6903      	ldr	r3, [r0, #16]
 800a07c:	690c      	ldr	r4, [r1, #16]
 800a07e:	42a3      	cmp	r3, r4
 800a080:	4607      	mov	r7, r0
 800a082:	db7e      	blt.n	800a182 <quorem+0x10c>
 800a084:	3c01      	subs	r4, #1
 800a086:	f101 0814 	add.w	r8, r1, #20
 800a08a:	00a3      	lsls	r3, r4, #2
 800a08c:	f100 0514 	add.w	r5, r0, #20
 800a090:	9300      	str	r3, [sp, #0]
 800a092:	eb05 0384 	add.w	r3, r5, r4, lsl #2
 800a096:	9301      	str	r3, [sp, #4]
 800a098:	f858 3024 	ldr.w	r3, [r8, r4, lsl #2]
 800a09c:	f855 2024 	ldr.w	r2, [r5, r4, lsl #2]
 800a0a0:	3301      	adds	r3, #1
 800a0a2:	429a      	cmp	r2, r3
 800a0a4:	eb08 0984 	add.w	r9, r8, r4, lsl #2
 800a0a8:	fbb2 f6f3 	udiv	r6, r2, r3
 800a0ac:	d32e      	bcc.n	800a10c <quorem+0x96>
 800a0ae:	f04f 0a00 	mov.w	sl, #0
 800a0b2:	46c4      	mov	ip, r8
 800a0b4:	46ae      	mov	lr, r5
 800a0b6:	46d3      	mov	fp, sl
 800a0b8:	f85c 3b04 	ldr.w	r3, [ip], #4
 800a0bc:	b298      	uxth	r0, r3
 800a0be:	fb06 a000 	mla	r0, r6, r0, sl
 800a0c2:	0c02      	lsrs	r2, r0, #16
 800a0c4:	0c1b      	lsrs	r3, r3, #16
 800a0c6:	fb06 2303 	mla	r3, r6, r3, r2
 800a0ca:	f8de 2000 	ldr.w	r2, [lr]
 800a0ce:	b280      	uxth	r0, r0
 800a0d0:	b292      	uxth	r2, r2
 800a0d2:	1a12      	subs	r2, r2, r0
 800a0d4:	445a      	add	r2, fp
 800a0d6:	f8de 0000 	ldr.w	r0, [lr]
 800a0da:	ea4f 4a13 	mov.w	sl, r3, lsr #16
 800a0de:	b29b      	uxth	r3, r3
 800a0e0:	ebc3 4322 	rsb	r3, r3, r2, asr #16
 800a0e4:	eb03 4310 	add.w	r3, r3, r0, lsr #16
 800a0e8:	b292      	uxth	r2, r2
 800a0ea:	ea42 4203 	orr.w	r2, r2, r3, lsl #16
 800a0ee:	45e1      	cmp	r9, ip
 800a0f0:	f84e 2b04 	str.w	r2, [lr], #4
 800a0f4:	ea4f 4b23 	mov.w	fp, r3, asr #16
 800a0f8:	d2de      	bcs.n	800a0b8 <quorem+0x42>
 800a0fa:	9b00      	ldr	r3, [sp, #0]
 800a0fc:	58eb      	ldr	r3, [r5, r3]
 800a0fe:	b92b      	cbnz	r3, 800a10c <quorem+0x96>
 800a100:	9b01      	ldr	r3, [sp, #4]
 800a102:	3b04      	subs	r3, #4
 800a104:	429d      	cmp	r5, r3
 800a106:	461a      	mov	r2, r3
 800a108:	d32f      	bcc.n	800a16a <quorem+0xf4>
 800a10a:	613c      	str	r4, [r7, #16]
 800a10c:	4638      	mov	r0, r7
 800a10e:	f001 f97d 	bl	800b40c <__mcmp>
 800a112:	2800      	cmp	r0, #0
 800a114:	db25      	blt.n	800a162 <quorem+0xec>
 800a116:	4629      	mov	r1, r5
 800a118:	2000      	movs	r0, #0
 800a11a:	f858 2b04 	ldr.w	r2, [r8], #4
 800a11e:	f8d1 c000 	ldr.w	ip, [r1]
 800a122:	fa1f fe82 	uxth.w	lr, r2
 800a126:	fa1f f38c 	uxth.w	r3, ip
 800a12a:	eba3 030e 	sub.w	r3, r3, lr
 800a12e:	4403      	add	r3, r0
 800a130:	0c12      	lsrs	r2, r2, #16
 800a132:	ebc2 4223 	rsb	r2, r2, r3, asr #16
 800a136:	eb02 421c 	add.w	r2, r2, ip, lsr #16
 800a13a:	b29b      	uxth	r3, r3
 800a13c:	ea43 4302 	orr.w	r3, r3, r2, lsl #16
 800a140:	45c1      	cmp	r9, r8
 800a142:	f841 3b04 	str.w	r3, [r1], #4
 800a146:	ea4f 4022 	mov.w	r0, r2, asr #16
 800a14a:	d2e6      	bcs.n	800a11a <quorem+0xa4>
 800a14c:	f855 2024 	ldr.w	r2, [r5, r4, lsl #2]
 800a150:	eb05 0384 	add.w	r3, r5, r4, lsl #2
 800a154:	b922      	cbnz	r2, 800a160 <quorem+0xea>
 800a156:	3b04      	subs	r3, #4
 800a158:	429d      	cmp	r5, r3
 800a15a:	461a      	mov	r2, r3
 800a15c:	d30b      	bcc.n	800a176 <quorem+0x100>
 800a15e:	613c      	str	r4, [r7, #16]
 800a160:	3601      	adds	r6, #1
 800a162:	4630      	mov	r0, r6
 800a164:	b003      	add	sp, #12
 800a166:	e8bd 8ff0 	ldmia.w	sp!, {r4, r5, r6, r7, r8, r9, sl, fp, pc}
 800a16a:	6812      	ldr	r2, [r2, #0]
 800a16c:	3b04      	subs	r3, #4
 800a16e:	2a00      	cmp	r2, #0
 800a170:	d1cb      	bne.n	800a10a <quorem+0x94>
 800a172:	3c01      	subs	r4, #1
 800a174:	e7c6      	b.n	800a104 <quorem+0x8e>
 800a176:	6812      	ldr	r2, [r2, #0]
 800a178:	3b04      	subs	r3, #4
 800a17a:	2a00      	cmp	r2, #0
 800a17c:	d1ef      	bne.n	800a15e <quorem+0xe8>
 800a17e:	3c01      	subs	r4, #1
 800a180:	e7ea      	b.n	800a158 <quorem+0xe2>
 800a182:	2000      	movs	r0, #0
 800a184:	e7ee      	b.n	800a164 <quorem+0xee>
	...

0800a188 <_dtoa_r>:
 800a188:	e92d 4ff0 	stmdb	sp!, {r4, r5, r6, r7, r8, r9, sl, fp, lr}
 800a18c:	69c7      	ldr	r7, [r0, #28]
 800a18e:	b097      	sub	sp, #92	@ 0x5c
 800a190:	ed8d 0b04 	vstr	d0, [sp, #16]
 800a194:	ec55 4b10 	vmov	r4, r5, d0
 800a198:	9e20      	ldr	r6, [sp, #128]	@ 0x80
 800a19a:	9107      	str	r1, [sp, #28]
 800a19c:	4681      	mov	r9, r0
 800a19e:	920c      	str	r2, [sp, #48]	@ 0x30
 800a1a0:	9311      	str	r3, [sp, #68]	@ 0x44
 800a1a2:	b97f      	cbnz	r7, 800a1c4 <_dtoa_r+0x3c>
 800a1a4:	2010      	movs	r0, #16
 800a1a6:	f000 fe09 	bl	800adbc <malloc>
 800a1aa:	4602      	mov	r2, r0
 800a1ac:	f8c9 001c 	str.w	r0, [r9, #28]
 800a1b0:	b920      	cbnz	r0, 800a1bc <_dtoa_r+0x34>
 800a1b2:	4ba9      	ldr	r3, [pc, #676]	@ (800a458 <_dtoa_r+0x2d0>)
 800a1b4:	21ef      	movs	r1, #239	@ 0xef
 800a1b6:	48a9      	ldr	r0, [pc, #676]	@ (800a45c <_dtoa_r+0x2d4>)
 800a1b8:	f001 fc5e 	bl	800ba78 <__assert_func>
 800a1bc:	e9c0 7701 	strd	r7, r7, [r0, #4]
 800a1c0:	6007      	str	r7, [r0, #0]
 800a1c2:	60c7      	str	r7, [r0, #12]
 800a1c4:	f8d9 301c 	ldr.w	r3, [r9, #28]
 800a1c8:	6819      	ldr	r1, [r3, #0]
 800a1ca:	b159      	cbz	r1, 800a1e4 <_dtoa_r+0x5c>
 800a1cc:	685a      	ldr	r2, [r3, #4]
 800a1ce:	604a      	str	r2, [r1, #4]
 800a1d0:	2301      	movs	r3, #1
 800a1d2:	4093      	lsls	r3, r2
 800a1d4:	608b      	str	r3, [r1, #8]
 800a1d6:	4648      	mov	r0, r9
 800a1d8:	f000 fee6 	bl	800afa8 <_Bfree>
 800a1dc:	f8d9 301c 	ldr.w	r3, [r9, #28]
 800a1e0:	2200      	movs	r2, #0
 800a1e2:	601a      	str	r2, [r3, #0]
 800a1e4:	1e2b      	subs	r3, r5, #0
 800a1e6:	bfb9      	ittee	lt
 800a1e8:	f023 4300 	biclt.w	r3, r3, #2147483648	@ 0x80000000
 800a1ec:	9305      	strlt	r3, [sp, #20]
 800a1ee:	2300      	movge	r3, #0
 800a1f0:	6033      	strge	r3, [r6, #0]
 800a1f2:	9f05      	ldr	r7, [sp, #20]
 800a1f4:	4b9a      	ldr	r3, [pc, #616]	@ (800a460 <_dtoa_r+0x2d8>)
 800a1f6:	bfbc      	itt	lt
 800a1f8:	2201      	movlt	r2, #1
 800a1fa:	6032      	strlt	r2, [r6, #0]
 800a1fc:	43bb      	bics	r3, r7
 800a1fe:	d112      	bne.n	800a226 <_dtoa_r+0x9e>
 800a200:	9a11      	ldr	r2, [sp, #68]	@ 0x44
 800a202:	f242 730f 	movw	r3, #9999	@ 0x270f
 800a206:	6013      	str	r3, [r2, #0]
 800a208:	f3c7 0313 	ubfx	r3, r7, #0, #20
 800a20c:	4323      	orrs	r3, r4
 800a20e:	f000 855a 	beq.w	800acc6 <_dtoa_r+0xb3e>
 800a212:	9b21      	ldr	r3, [sp, #132]	@ 0x84
 800a214:	f8df a25c 	ldr.w	sl, [pc, #604]	@ 800a474 <_dtoa_r+0x2ec>
 800a218:	2b00      	cmp	r3, #0
 800a21a:	f000 855c 	beq.w	800acd6 <_dtoa_r+0xb4e>
 800a21e:	f10a 0303 	add.w	r3, sl, #3
 800a222:	f000 bd56 	b.w	800acd2 <_dtoa_r+0xb4a>
 800a226:	ed9d 7b04 	vldr	d7, [sp, #16]
 800a22a:	2200      	movs	r2, #0
 800a22c:	ec51 0b17 	vmov	r0, r1, d7
 800a230:	2300      	movs	r3, #0
 800a232:	ed8d 7b0a 	vstr	d7, [sp, #40]	@ 0x28
 800a236:	f7f6 fc4f 	bl	8000ad8 <__aeabi_dcmpeq>
 800a23a:	4680      	mov	r8, r0
 800a23c:	b158      	cbz	r0, 800a256 <_dtoa_r+0xce>
 800a23e:	9a11      	ldr	r2, [sp, #68]	@ 0x44
 800a240:	2301      	movs	r3, #1
 800a242:	6013      	str	r3, [r2, #0]
 800a244:	9b21      	ldr	r3, [sp, #132]	@ 0x84
 800a246:	b113      	cbz	r3, 800a24e <_dtoa_r+0xc6>
 800a248:	9a21      	ldr	r2, [sp, #132]	@ 0x84
 800a24a:	4b86      	ldr	r3, [pc, #536]	@ (800a464 <_dtoa_r+0x2dc>)
 800a24c:	6013      	str	r3, [r2, #0]
 800a24e:	f8df a228 	ldr.w	sl, [pc, #552]	@ 800a478 <_dtoa_r+0x2f0>
 800a252:	f000 bd40 	b.w	800acd6 <_dtoa_r+0xb4e>
 800a256:	ed9d 0b0a 	vldr	d0, [sp, #40]	@ 0x28
 800a25a:	aa14      	add	r2, sp, #80	@ 0x50
 800a25c:	a915      	add	r1, sp, #84	@ 0x54
 800a25e:	4648      	mov	r0, r9
 800a260:	f001 f984 	bl	800b56c <__d2b>
 800a264:	f3c7 560a 	ubfx	r6, r7, #20, #11
 800a268:	9002      	str	r0, [sp, #8]
 800a26a:	2e00      	cmp	r6, #0
 800a26c:	d078      	beq.n	800a360 <_dtoa_r+0x1d8>
 800a26e:	9b0b      	ldr	r3, [sp, #44]	@ 0x2c
 800a270:	f8cd 8048 	str.w	r8, [sp, #72]	@ 0x48
 800a274:	f3c3 0313 	ubfx	r3, r3, #0, #20
 800a278:	e9dd 010a 	ldrd	r0, r1, [sp, #40]	@ 0x28
 800a27c:	f043 537f 	orr.w	r3, r3, #1069547520	@ 0x3fc00000
 800a280:	f443 1340 	orr.w	r3, r3, #3145728	@ 0x300000
 800a284:	f2a6 36ff 	subw	r6, r6, #1023	@ 0x3ff
 800a288:	4619      	mov	r1, r3
 800a28a:	2200      	movs	r2, #0
 800a28c:	4b76      	ldr	r3, [pc, #472]	@ (800a468 <_dtoa_r+0x2e0>)
 800a28e:	f7f6 f803 	bl	8000298 <__aeabi_dsub>
 800a292:	a36b      	add	r3, pc, #428	@ (adr r3, 800a440 <_dtoa_r+0x2b8>)
 800a294:	e9d3 2300 	ldrd	r2, r3, [r3]
 800a298:	f7f6 f9b6 	bl	8000608 <__aeabi_dmul>
 800a29c:	a36a      	add	r3, pc, #424	@ (adr r3, 800a448 <_dtoa_r+0x2c0>)
 800a29e:	e9d3 2300 	ldrd	r2, r3, [r3]
 800a2a2:	f7f5 fffb 	bl	800029c <__adddf3>
 800a2a6:	4604      	mov	r4, r0
 800a2a8:	4630      	mov	r0, r6
 800a2aa:	460d      	mov	r5, r1
 800a2ac:	f7f6 f942 	bl	8000534 <__aeabi_i2d>
 800a2b0:	a367      	add	r3, pc, #412	@ (adr r3, 800a450 <_dtoa_r+0x2c8>)
 800a2b2:	e9d3 2300 	ldrd	r2, r3, [r3]
 800a2b6:	f7f6 f9a7 	bl	8000608 <__aeabi_dmul>
 800a2ba:	4602      	mov	r2, r0
 800a2bc:	460b      	mov	r3, r1
 800a2be:	4620      	mov	r0, r4
 800a2c0:	4629      	mov	r1, r5
 800a2c2:	f7f5 ffeb 	bl	800029c <__adddf3>
 800a2c6:	4604      	mov	r4, r0
 800a2c8:	460d      	mov	r5, r1
 800a2ca:	f7f6 fc4d 	bl	8000b68 <__aeabi_d2iz>
 800a2ce:	2200      	movs	r2, #0
 800a2d0:	4607      	mov	r7, r0
 800a2d2:	2300      	movs	r3, #0
 800a2d4:	4620      	mov	r0, r4
 800a2d6:	4629      	mov	r1, r5
 800a2d8:	f7f6 fc08 	bl	8000aec <__aeabi_dcmplt>
 800a2dc:	b140      	cbz	r0, 800a2f0 <_dtoa_r+0x168>
 800a2de:	4638      	mov	r0, r7
 800a2e0:	f7f6 f928 	bl	8000534 <__aeabi_i2d>
 800a2e4:	4622      	mov	r2, r4
 800a2e6:	462b      	mov	r3, r5
 800a2e8:	f7f6 fbf6 	bl	8000ad8 <__aeabi_dcmpeq>
 800a2ec:	b900      	cbnz	r0, 800a2f0 <_dtoa_r+0x168>
 800a2ee:	3f01      	subs	r7, #1
 800a2f0:	2f16      	cmp	r7, #22
 800a2f2:	d852      	bhi.n	800a39a <_dtoa_r+0x212>
 800a2f4:	4b5d      	ldr	r3, [pc, #372]	@ (800a46c <_dtoa_r+0x2e4>)
 800a2f6:	eb03 03c7 	add.w	r3, r3, r7, lsl #3
 800a2fa:	e9d3 2300 	ldrd	r2, r3, [r3]
 800a2fe:	e9dd 010a 	ldrd	r0, r1, [sp, #40]	@ 0x28
 800a302:	f7f6 fbf3 	bl	8000aec <__aeabi_dcmplt>
 800a306:	2800      	cmp	r0, #0
 800a308:	d049      	beq.n	800a39e <_dtoa_r+0x216>
 800a30a:	3f01      	subs	r7, #1
 800a30c:	2300      	movs	r3, #0
 800a30e:	9310      	str	r3, [sp, #64]	@ 0x40
 800a310:	9b14      	ldr	r3, [sp, #80]	@ 0x50
 800a312:	1b9b      	subs	r3, r3, r6
 800a314:	1e5a      	subs	r2, r3, #1
 800a316:	bf45      	ittet	mi
 800a318:	f1c3 0301 	rsbmi	r3, r3, #1
 800a31c:	9300      	strmi	r3, [sp, #0]
 800a31e:	2300      	movpl	r3, #0
 800a320:	2300      	movmi	r3, #0
 800a322:	9206      	str	r2, [sp, #24]
 800a324:	bf54      	ite	pl
 800a326:	9300      	strpl	r3, [sp, #0]
 800a328:	9306      	strmi	r3, [sp, #24]
 800a32a:	2f00      	cmp	r7, #0
 800a32c:	db39      	blt.n	800a3a2 <_dtoa_r+0x21a>
 800a32e:	9b06      	ldr	r3, [sp, #24]
 800a330:	970d      	str	r7, [sp, #52]	@ 0x34
 800a332:	443b      	add	r3, r7
 800a334:	9306      	str	r3, [sp, #24]
 800a336:	2300      	movs	r3, #0
 800a338:	9308      	str	r3, [sp, #32]
 800a33a:	9b07      	ldr	r3, [sp, #28]
 800a33c:	2b09      	cmp	r3, #9
 800a33e:	d863      	bhi.n	800a408 <_dtoa_r+0x280>
 800a340:	2b05      	cmp	r3, #5
 800a342:	bfc4      	itt	gt
 800a344:	3b04      	subgt	r3, #4
 800a346:	9307      	strgt	r3, [sp, #28]
 800a348:	9b07      	ldr	r3, [sp, #28]
 800a34a:	f1a3 0302 	sub.w	r3, r3, #2
 800a34e:	bfcc      	ite	gt
 800a350:	2400      	movgt	r4, #0
 800a352:	2401      	movle	r4, #1
 800a354:	2b03      	cmp	r3, #3
 800a356:	d863      	bhi.n	800a420 <_dtoa_r+0x298>
 800a358:	e8df f003 	tbb	[pc, r3]
 800a35c:	2b375452 	.word	0x2b375452
 800a360:	e9dd 6314 	ldrd	r6, r3, [sp, #80]	@ 0x50
 800a364:	441e      	add	r6, r3
 800a366:	f206 4332 	addw	r3, r6, #1074	@ 0x432
 800a36a:	2b20      	cmp	r3, #32
 800a36c:	bfc1      	itttt	gt
 800a36e:	f1c3 0340 	rsbgt	r3, r3, #64	@ 0x40
 800a372:	409f      	lslgt	r7, r3
 800a374:	f206 4312 	addwgt	r3, r6, #1042	@ 0x412
 800a378:	fa24 f303 	lsrgt.w	r3, r4, r3
 800a37c:	bfd6      	itet	le
 800a37e:	f1c3 0320 	rsble	r3, r3, #32
 800a382:	ea47 0003 	orrgt.w	r0, r7, r3
 800a386:	fa04 f003 	lslle.w	r0, r4, r3
 800a38a:	f7f6 f8c3 	bl	8000514 <__aeabi_ui2d>
 800a38e:	2201      	movs	r2, #1
 800a390:	f1a1 73f8 	sub.w	r3, r1, #32505856	@ 0x1f00000
 800a394:	3e01      	subs	r6, #1
 800a396:	9212      	str	r2, [sp, #72]	@ 0x48
 800a398:	e776      	b.n	800a288 <_dtoa_r+0x100>
 800a39a:	2301      	movs	r3, #1
 800a39c:	e7b7      	b.n	800a30e <_dtoa_r+0x186>
 800a39e:	9010      	str	r0, [sp, #64]	@ 0x40
 800a3a0:	e7b6      	b.n	800a310 <_dtoa_r+0x188>
 800a3a2:	9b00      	ldr	r3, [sp, #0]
 800a3a4:	1bdb      	subs	r3, r3, r7
 800a3a6:	9300      	str	r3, [sp, #0]
 800a3a8:	427b      	negs	r3, r7
 800a3aa:	9308      	str	r3, [sp, #32]
 800a3ac:	2300      	movs	r3, #0
 800a3ae:	930d      	str	r3, [sp, #52]	@ 0x34
 800a3b0:	e7c3      	b.n	800a33a <_dtoa_r+0x1b2>
 800a3b2:	2301      	movs	r3, #1
 800a3b4:	9309      	str	r3, [sp, #36]	@ 0x24
 800a3b6:	9b0c      	ldr	r3, [sp, #48]	@ 0x30
 800a3b8:	eb07 0b03 	add.w	fp, r7, r3
 800a3bc:	f10b 0301 	add.w	r3, fp, #1
 800a3c0:	2b01      	cmp	r3, #1
 800a3c2:	9303      	str	r3, [sp, #12]
 800a3c4:	bfb8      	it	lt
 800a3c6:	2301      	movlt	r3, #1
 800a3c8:	e006      	b.n	800a3d8 <_dtoa_r+0x250>
 800a3ca:	2301      	movs	r3, #1
 800a3cc:	9309      	str	r3, [sp, #36]	@ 0x24
 800a3ce:	9b0c      	ldr	r3, [sp, #48]	@ 0x30
 800a3d0:	2b00      	cmp	r3, #0
 800a3d2:	dd28      	ble.n	800a426 <_dtoa_r+0x29e>
 800a3d4:	469b      	mov	fp, r3
 800a3d6:	9303      	str	r3, [sp, #12]
 800a3d8:	f8d9 001c 	ldr.w	r0, [r9, #28]
 800a3dc:	2100      	movs	r1, #0
 800a3de:	2204      	movs	r2, #4
 800a3e0:	f102 0514 	add.w	r5, r2, #20
 800a3e4:	429d      	cmp	r5, r3
 800a3e6:	d926      	bls.n	800a436 <_dtoa_r+0x2ae>
 800a3e8:	6041      	str	r1, [r0, #4]
 800a3ea:	4648      	mov	r0, r9
 800a3ec:	f000 fd9c 	bl	800af28 <_Balloc>
 800a3f0:	4682      	mov	sl, r0
 800a3f2:	2800      	cmp	r0, #0
 800a3f4:	d142      	bne.n	800a47c <_dtoa_r+0x2f4>
 800a3f6:	4b1e      	ldr	r3, [pc, #120]	@ (800a470 <_dtoa_r+0x2e8>)
 800a3f8:	4602      	mov	r2, r0
 800a3fa:	f240 11af 	movw	r1, #431	@ 0x1af
 800a3fe:	e6da      	b.n	800a1b6 <_dtoa_r+0x2e>
 800a400:	2300      	movs	r3, #0
 800a402:	e7e3      	b.n	800a3cc <_dtoa_r+0x244>
 800a404:	2300      	movs	r3, #0
 800a406:	e7d5      	b.n	800a3b4 <_dtoa_r+0x22c>
 800a408:	2401      	movs	r4, #1
 800a40a:	2300      	movs	r3, #0
 800a40c:	9307      	str	r3, [sp, #28]
 800a40e:	9409      	str	r4, [sp, #36]	@ 0x24
 800a410:	f04f 3bff 	mov.w	fp, #4294967295
 800a414:	2200      	movs	r2, #0
 800a416:	f8cd b00c 	str.w	fp, [sp, #12]
 800a41a:	2312      	movs	r3, #18
 800a41c:	920c      	str	r2, [sp, #48]	@ 0x30
 800a41e:	e7db      	b.n	800a3d8 <_dtoa_r+0x250>
 800a420:	2301      	movs	r3, #1
 800a422:	9309      	str	r3, [sp, #36]	@ 0x24
 800a424:	e7f4      	b.n	800a410 <_dtoa_r+0x288>
 800a426:	f04f 0b01 	mov.w	fp, #1
 800a42a:	f8cd b00c 	str.w	fp, [sp, #12]
 800a42e:	465b      	mov	r3, fp
 800a430:	f8cd b030 	str.w	fp, [sp, #48]	@ 0x30
 800a434:	e7d0      	b.n	800a3d8 <_dtoa_r+0x250>
 800a436:	3101      	adds	r1, #1
 800a438:	0052      	lsls	r2, r2, #1
 800a43a:	e7d1      	b.n	800a3e0 <_dtoa_r+0x258>
 800a43c:	f3af 8000 	nop.w
 800a440:	636f4361 	.word	0x636f4361
 800a444:	3fd287a7 	.word	0x3fd287a7
 800a448:	8b60c8b3 	.word	0x8b60c8b3
 800a44c:	3fc68a28 	.word	0x3fc68a28
 800a450:	509f79fb 	.word	0x509f79fb
 800a454:	3fd34413 	.word	0x3fd34413
 800a458:	0800c2d9 	.word	0x0800c2d9
 800a45c:	0800c2f0 	.word	0x0800c2f0
 800a460:	7ff00000 	.word	0x7ff00000
 800a464:	0800c2a9 	.word	0x0800c2a9
 800a468:	3ff80000 	.word	0x3ff80000
 800a46c:	0800c830 	.word	0x0800c830
 800a470:	0800c348 	.word	0x0800c348
 800a474:	0800c2d5 	.word	0x0800c2d5
 800a478:	0800c2a8 	.word	0x0800c2a8
 800a47c:	f8d9 301c 	ldr.w	r3, [r9, #28]
 800a480:	6018      	str	r0, [r3, #0]
 800a482:	9b03      	ldr	r3, [sp, #12]
 800a484:	2b0e      	cmp	r3, #14
 800a486:	f200 80a1 	bhi.w	800a5cc <_dtoa_r+0x444>
 800a48a:	2c00      	cmp	r4, #0
 800a48c:	f000 809e 	beq.w	800a5cc <_dtoa_r+0x444>
 800a490:	2f00      	cmp	r7, #0
 800a492:	dd33      	ble.n	800a4fc <_dtoa_r+0x374>
 800a494:	4b9c      	ldr	r3, [pc, #624]	@ (800a708 <_dtoa_r+0x580>)
 800a496:	f007 020f 	and.w	r2, r7, #15
 800a49a:	eb03 03c2 	add.w	r3, r3, r2, lsl #3
 800a49e:	ed93 7b00 	vldr	d7, [r3]
 800a4a2:	05f8      	lsls	r0, r7, #23
 800a4a4:	ed8d 7b0e 	vstr	d7, [sp, #56]	@ 0x38
 800a4a8:	ea4f 1427 	mov.w	r4, r7, asr #4
 800a4ac:	d516      	bpl.n	800a4dc <_dtoa_r+0x354>
 800a4ae:	4b97      	ldr	r3, [pc, #604]	@ (800a70c <_dtoa_r+0x584>)
 800a4b0:	e9dd 010a 	ldrd	r0, r1, [sp, #40]	@ 0x28
 800a4b4:	e9d3 2308 	ldrd	r2, r3, [r3, #32]
 800a4b8:	f7f6 f9d0 	bl	800085c <__aeabi_ddiv>
 800a4bc:	e9cd 0104 	strd	r0, r1, [sp, #16]
 800a4c0:	f004 040f 	and.w	r4, r4, #15
 800a4c4:	2603      	movs	r6, #3
 800a4c6:	4d91      	ldr	r5, [pc, #580]	@ (800a70c <_dtoa_r+0x584>)
 800a4c8:	b954      	cbnz	r4, 800a4e0 <_dtoa_r+0x358>
 800a4ca:	e9dd 230e 	ldrd	r2, r3, [sp, #56]	@ 0x38
 800a4ce:	e9dd 0104 	ldrd	r0, r1, [sp, #16]
 800a4d2:	f7f6 f9c3 	bl	800085c <__aeabi_ddiv>
 800a4d6:	e9cd 0104 	strd	r0, r1, [sp, #16]
 800a4da:	e028      	b.n	800a52e <_dtoa_r+0x3a6>
 800a4dc:	2602      	movs	r6, #2
 800a4de:	e7f2      	b.n	800a4c6 <_dtoa_r+0x33e>
 800a4e0:	07e1      	lsls	r1, r4, #31
 800a4e2:	d508      	bpl.n	800a4f6 <_dtoa_r+0x36e>
 800a4e4:	e9dd 010e 	ldrd	r0, r1, [sp, #56]	@ 0x38
 800a4e8:	e9d5 2300 	ldrd	r2, r3, [r5]
 800a4ec:	f7f6 f88c 	bl	8000608 <__aeabi_dmul>
 800a4f0:	e9cd 010e 	strd	r0, r1, [sp, #56]	@ 0x38
 800a4f4:	3601      	adds	r6, #1
 800a4f6:	1064      	asrs	r4, r4, #1
 800a4f8:	3508      	adds	r5, #8
 800a4fa:	e7e5      	b.n	800a4c8 <_dtoa_r+0x340>
 800a4fc:	f000 80af 	beq.w	800a65e <_dtoa_r+0x4d6>
 800a500:	427c      	negs	r4, r7
 800a502:	4b81      	ldr	r3, [pc, #516]	@ (800a708 <_dtoa_r+0x580>)
 800a504:	4d81      	ldr	r5, [pc, #516]	@ (800a70c <_dtoa_r+0x584>)
 800a506:	f004 020f 	and.w	r2, r4, #15
 800a50a:	eb03 03c2 	add.w	r3, r3, r2, lsl #3
 800a50e:	e9d3 2300 	ldrd	r2, r3, [r3]
 800a512:	e9dd 010a 	ldrd	r0, r1, [sp, #40]	@ 0x28
 800a516:	f7f6 f877 	bl	8000608 <__aeabi_dmul>
 800a51a:	e9cd 0104 	strd	r0, r1, [sp, #16]
 800a51e:	1124      	asrs	r4, r4, #4
 800a520:	2300      	movs	r3, #0
 800a522:	2602      	movs	r6, #2
 800a524:	2c00      	cmp	r4, #0
 800a526:	f040 808f 	bne.w	800a648 <_dtoa_r+0x4c0>
 800a52a:	2b00      	cmp	r3, #0
 800a52c:	d1d3      	bne.n	800a4d6 <_dtoa_r+0x34e>
 800a52e:	9b10      	ldr	r3, [sp, #64]	@ 0x40
 800a530:	e9dd 4504 	ldrd	r4, r5, [sp, #16]
 800a534:	2b00      	cmp	r3, #0
 800a536:	f000 8094 	beq.w	800a662 <_dtoa_r+0x4da>
 800a53a:	4b75      	ldr	r3, [pc, #468]	@ (800a710 <_dtoa_r+0x588>)
 800a53c:	2200      	movs	r2, #0
 800a53e:	4620      	mov	r0, r4
 800a540:	4629      	mov	r1, r5
 800a542:	f7f6 fad3 	bl	8000aec <__aeabi_dcmplt>
 800a546:	2800      	cmp	r0, #0
 800a548:	f000 808b 	beq.w	800a662 <_dtoa_r+0x4da>
 800a54c:	9b03      	ldr	r3, [sp, #12]
 800a54e:	2b00      	cmp	r3, #0
 800a550:	f000 8087 	beq.w	800a662 <_dtoa_r+0x4da>
 800a554:	f1bb 0f00 	cmp.w	fp, #0
 800a558:	dd34      	ble.n	800a5c4 <_dtoa_r+0x43c>
 800a55a:	4620      	mov	r0, r4
 800a55c:	4b6d      	ldr	r3, [pc, #436]	@ (800a714 <_dtoa_r+0x58c>)
 800a55e:	2200      	movs	r2, #0
 800a560:	4629      	mov	r1, r5
 800a562:	f7f6 f851 	bl	8000608 <__aeabi_dmul>
 800a566:	e9cd 0104 	strd	r0, r1, [sp, #16]
 800a56a:	f107 38ff 	add.w	r8, r7, #4294967295
 800a56e:	3601      	adds	r6, #1
 800a570:	465c      	mov	r4, fp
 800a572:	4630      	mov	r0, r6
 800a574:	f7f5 ffde 	bl	8000534 <__aeabi_i2d>
 800a578:	e9dd 2304 	ldrd	r2, r3, [sp, #16]
 800a57c:	f7f6 f844 	bl	8000608 <__aeabi_dmul>
 800a580:	4b65      	ldr	r3, [pc, #404]	@ (800a718 <_dtoa_r+0x590>)
 800a582:	2200      	movs	r2, #0
 800a584:	f7f5 fe8a 	bl	800029c <__adddf3>
 800a588:	4605      	mov	r5, r0
 800a58a:	f1a1 7650 	sub.w	r6, r1, #54525952	@ 0x3400000
 800a58e:	2c00      	cmp	r4, #0
 800a590:	d16a      	bne.n	800a668 <_dtoa_r+0x4e0>
 800a592:	e9dd 0104 	ldrd	r0, r1, [sp, #16]
 800a596:	4b61      	ldr	r3, [pc, #388]	@ (800a71c <_dtoa_r+0x594>)
 800a598:	2200      	movs	r2, #0
 800a59a:	f7f5 fe7d 	bl	8000298 <__aeabi_dsub>
 800a59e:	4602      	mov	r2, r0
 800a5a0:	460b      	mov	r3, r1
 800a5a2:	e9cd 2304 	strd	r2, r3, [sp, #16]
 800a5a6:	462a      	mov	r2, r5
 800a5a8:	4633      	mov	r3, r6
 800a5aa:	f7f6 fabd 	bl	8000b28 <__aeabi_dcmpgt>
 800a5ae:	2800      	cmp	r0, #0
 800a5b0:	f040 8298 	bne.w	800aae4 <_dtoa_r+0x95c>
 800a5b4:	e9dd 0104 	ldrd	r0, r1, [sp, #16]
 800a5b8:	462a      	mov	r2, r5
 800a5ba:	f106 4300 	add.w	r3, r6, #2147483648	@ 0x80000000
 800a5be:	f7f6 fa95 	bl	8000aec <__aeabi_dcmplt>
 800a5c2:	bb38      	cbnz	r0, 800a614 <_dtoa_r+0x48c>
 800a5c4:	e9dd 340a 	ldrd	r3, r4, [sp, #40]	@ 0x28
 800a5c8:	e9cd 3404 	strd	r3, r4, [sp, #16]
 800a5cc:	9b15      	ldr	r3, [sp, #84]	@ 0x54
 800a5ce:	2b00      	cmp	r3, #0
 800a5d0:	f2c0 8157 	blt.w	800a882 <_dtoa_r+0x6fa>
 800a5d4:	2f0e      	cmp	r7, #14
 800a5d6:	f300 8154 	bgt.w	800a882 <_dtoa_r+0x6fa>
 800a5da:	4b4b      	ldr	r3, [pc, #300]	@ (800a708 <_dtoa_r+0x580>)
 800a5dc:	eb03 03c7 	add.w	r3, r3, r7, lsl #3
 800a5e0:	ed93 7b00 	vldr	d7, [r3]
 800a5e4:	9b0c      	ldr	r3, [sp, #48]	@ 0x30
 800a5e6:	2b00      	cmp	r3, #0
 800a5e8:	ed8d 7b00 	vstr	d7, [sp]
 800a5ec:	f280 80e5 	bge.w	800a7ba <_dtoa_r+0x632>
 800a5f0:	9b03      	ldr	r3, [sp, #12]
 800a5f2:	2b00      	cmp	r3, #0
 800a5f4:	f300 80e1 	bgt.w	800a7ba <_dtoa_r+0x632>
 800a5f8:	d10c      	bne.n	800a614 <_dtoa_r+0x48c>
 800a5fa:	4b48      	ldr	r3, [pc, #288]	@ (800a71c <_dtoa_r+0x594>)
 800a5fc:	2200      	movs	r2, #0
 800a5fe:	ec51 0b17 	vmov	r0, r1, d7
 800a602:	f7f6 f801 	bl	8000608 <__aeabi_dmul>
 800a606:	e9dd 2304 	ldrd	r2, r3, [sp, #16]
 800a60a:	f7f6 fa83 	bl	8000b14 <__aeabi_dcmpge>
 800a60e:	2800      	cmp	r0, #0
 800a610:	f000 8266 	beq.w	800aae0 <_dtoa_r+0x958>
 800a614:	2400      	movs	r4, #0
 800a616:	4625      	mov	r5, r4
 800a618:	9b0c      	ldr	r3, [sp, #48]	@ 0x30
 800a61a:	4656      	mov	r6, sl
 800a61c:	ea6f 0803 	mvn.w	r8, r3
 800a620:	2700      	movs	r7, #0
 800a622:	4621      	mov	r1, r4
 800a624:	4648      	mov	r0, r9
 800a626:	f000 fcbf 	bl	800afa8 <_Bfree>
 800a62a:	2d00      	cmp	r5, #0
 800a62c:	f000 80bd 	beq.w	800a7aa <_dtoa_r+0x622>
 800a630:	b12f      	cbz	r7, 800a63e <_dtoa_r+0x4b6>
 800a632:	42af      	cmp	r7, r5
 800a634:	d003      	beq.n	800a63e <_dtoa_r+0x4b6>
 800a636:	4639      	mov	r1, r7
 800a638:	4648      	mov	r0, r9
 800a63a:	f000 fcb5 	bl	800afa8 <_Bfree>
 800a63e:	4629      	mov	r1, r5
 800a640:	4648      	mov	r0, r9
 800a642:	f000 fcb1 	bl	800afa8 <_Bfree>
 800a646:	e0b0      	b.n	800a7aa <_dtoa_r+0x622>
 800a648:	07e2      	lsls	r2, r4, #31
 800a64a:	d505      	bpl.n	800a658 <_dtoa_r+0x4d0>
 800a64c:	e9d5 2300 	ldrd	r2, r3, [r5]
 800a650:	f7f5 ffda 	bl	8000608 <__aeabi_dmul>
 800a654:	3601      	adds	r6, #1
 800a656:	2301      	movs	r3, #1
 800a658:	1064      	asrs	r4, r4, #1
 800a65a:	3508      	adds	r5, #8
 800a65c:	e762      	b.n	800a524 <_dtoa_r+0x39c>
 800a65e:	2602      	movs	r6, #2
 800a660:	e765      	b.n	800a52e <_dtoa_r+0x3a6>
 800a662:	9c03      	ldr	r4, [sp, #12]
 800a664:	46b8      	mov	r8, r7
 800a666:	e784      	b.n	800a572 <_dtoa_r+0x3ea>
 800a668:	4b27      	ldr	r3, [pc, #156]	@ (800a708 <_dtoa_r+0x580>)
 800a66a:	9909      	ldr	r1, [sp, #36]	@ 0x24
 800a66c:	eb03 03c4 	add.w	r3, r3, r4, lsl #3
 800a670:	e953 2302 	ldrd	r2, r3, [r3, #-8]
 800a674:	4454      	add	r4, sl
 800a676:	2900      	cmp	r1, #0
 800a678:	d054      	beq.n	800a724 <_dtoa_r+0x59c>
 800a67a:	4929      	ldr	r1, [pc, #164]	@ (800a720 <_dtoa_r+0x598>)
 800a67c:	2000      	movs	r0, #0
 800a67e:	f7f6 f8ed 	bl	800085c <__aeabi_ddiv>
 800a682:	4633      	mov	r3, r6
 800a684:	462a      	mov	r2, r5
 800a686:	f7f5 fe07 	bl	8000298 <__aeabi_dsub>
 800a68a:	e9cd 010e 	strd	r0, r1, [sp, #56]	@ 0x38
 800a68e:	4656      	mov	r6, sl
 800a690:	e9dd 0104 	ldrd	r0, r1, [sp, #16]
 800a694:	f7f6 fa68 	bl	8000b68 <__aeabi_d2iz>
 800a698:	4605      	mov	r5, r0
 800a69a:	f7f5 ff4b 	bl	8000534 <__aeabi_i2d>
 800a69e:	4602      	mov	r2, r0
 800a6a0:	460b      	mov	r3, r1
 800a6a2:	e9dd 0104 	ldrd	r0, r1, [sp, #16]
 800a6a6:	f7f5 fdf7 	bl	8000298 <__aeabi_dsub>
 800a6aa:	3530      	adds	r5, #48	@ 0x30
 800a6ac:	4602      	mov	r2, r0
 800a6ae:	460b      	mov	r3, r1
 800a6b0:	e9cd 2304 	strd	r2, r3, [sp, #16]
 800a6b4:	f806 5b01 	strb.w	r5, [r6], #1
 800a6b8:	e9dd 230e 	ldrd	r2, r3, [sp, #56]	@ 0x38
 800a6bc:	f7f6 fa16 	bl	8000aec <__aeabi_dcmplt>
 800a6c0:	2800      	cmp	r0, #0
 800a6c2:	d172      	bne.n	800a7aa <_dtoa_r+0x622>
 800a6c4:	e9dd 2304 	ldrd	r2, r3, [sp, #16]
 800a6c8:	4911      	ldr	r1, [pc, #68]	@ (800a710 <_dtoa_r+0x588>)
 800a6ca:	2000      	movs	r0, #0
 800a6cc:	f7f5 fde4 	bl	8000298 <__aeabi_dsub>
 800a6d0:	e9dd 230e 	ldrd	r2, r3, [sp, #56]	@ 0x38
 800a6d4:	f7f6 fa0a 	bl	8000aec <__aeabi_dcmplt>
 800a6d8:	2800      	cmp	r0, #0
 800a6da:	f040 80b4 	bne.w	800a846 <_dtoa_r+0x6be>
 800a6de:	42a6      	cmp	r6, r4
 800a6e0:	f43f af70 	beq.w	800a5c4 <_dtoa_r+0x43c>
 800a6e4:	e9dd 010e 	ldrd	r0, r1, [sp, #56]	@ 0x38
 800a6e8:	4b0a      	ldr	r3, [pc, #40]	@ (800a714 <_dtoa_r+0x58c>)
 800a6ea:	2200      	movs	r2, #0
 800a6ec:	f7f5 ff8c 	bl	8000608 <__aeabi_dmul>
 800a6f0:	4b08      	ldr	r3, [pc, #32]	@ (800a714 <_dtoa_r+0x58c>)
 800a6f2:	e9cd 010e 	strd	r0, r1, [sp, #56]	@ 0x38
 800a6f6:	2200      	movs	r2, #0
 800a6f8:	e9dd 0104 	ldrd	r0, r1, [sp, #16]
 800a6fc:	f7f5 ff84 	bl	8000608 <__aeabi_dmul>
 800a700:	e9cd 0104 	strd	r0, r1, [sp, #16]
 800a704:	e7c4      	b.n	800a690 <_dtoa_r+0x508>
 800a706:	bf00      	nop
 800a708:	0800c830 	.word	0x0800c830
 800a70c:	0800c808 	.word	0x0800c808
 800a710:	3ff00000 	.word	0x3ff00000
 800a714:	40240000 	.word	0x40240000
 800a718:	401c0000 	.word	0x401c0000
 800a71c:	40140000 	.word	0x40140000
 800a720:	3fe00000 	.word	0x3fe00000
 800a724:	4631      	mov	r1, r6
 800a726:	4628      	mov	r0, r5
 800a728:	f7f5 ff6e 	bl	8000608 <__aeabi_dmul>
 800a72c:	e9cd 010e 	strd	r0, r1, [sp, #56]	@ 0x38
 800a730:	9413      	str	r4, [sp, #76]	@ 0x4c
 800a732:	4656      	mov	r6, sl
 800a734:	e9dd 0104 	ldrd	r0, r1, [sp, #16]
 800a738:	f7f6 fa16 	bl	8000b68 <__aeabi_d2iz>
 800a73c:	4605      	mov	r5, r0
 800a73e:	f7f5 fef9 	bl	8000534 <__aeabi_i2d>
 800a742:	4602      	mov	r2, r0
 800a744:	460b      	mov	r3, r1
 800a746:	e9dd 0104 	ldrd	r0, r1, [sp, #16]
 800a74a:	f7f5 fda5 	bl	8000298 <__aeabi_dsub>
 800a74e:	3530      	adds	r5, #48	@ 0x30
 800a750:	f806 5b01 	strb.w	r5, [r6], #1
 800a754:	4602      	mov	r2, r0
 800a756:	460b      	mov	r3, r1
 800a758:	42a6      	cmp	r6, r4
 800a75a:	e9cd 2304 	strd	r2, r3, [sp, #16]
 800a75e:	f04f 0200 	mov.w	r2, #0
 800a762:	d124      	bne.n	800a7ae <_dtoa_r+0x626>
 800a764:	4baf      	ldr	r3, [pc, #700]	@ (800aa24 <_dtoa_r+0x89c>)
 800a766:	e9dd 010e 	ldrd	r0, r1, [sp, #56]	@ 0x38
 800a76a:	f7f5 fd97 	bl	800029c <__adddf3>
 800a76e:	4602      	mov	r2, r0
 800a770:	460b      	mov	r3, r1
 800a772:	e9dd 0104 	ldrd	r0, r1, [sp, #16]
 800a776:	f7f6 f9d7 	bl	8000b28 <__aeabi_dcmpgt>
 800a77a:	2800      	cmp	r0, #0
 800a77c:	d163      	bne.n	800a846 <_dtoa_r+0x6be>
 800a77e:	e9dd 230e 	ldrd	r2, r3, [sp, #56]	@ 0x38
 800a782:	49a8      	ldr	r1, [pc, #672]	@ (800aa24 <_dtoa_r+0x89c>)
 800a784:	2000      	movs	r0, #0
 800a786:	f7f5 fd87 	bl	8000298 <__aeabi_dsub>
 800a78a:	4602      	mov	r2, r0
 800a78c:	460b      	mov	r3, r1
 800a78e:	e9dd 0104 	ldrd	r0, r1, [sp, #16]
 800a792:	f7f6 f9ab 	bl	8000aec <__aeabi_dcmplt>
 800a796:	2800      	cmp	r0, #0
 800a798:	f43f af14 	beq.w	800a5c4 <_dtoa_r+0x43c>
 800a79c:	9e13      	ldr	r6, [sp, #76]	@ 0x4c
 800a79e:	1e73      	subs	r3, r6, #1
 800a7a0:	9313      	str	r3, [sp, #76]	@ 0x4c
 800a7a2:	f816 3c01 	ldrb.w	r3, [r6, #-1]
 800a7a6:	2b30      	cmp	r3, #48	@ 0x30
 800a7a8:	d0f8      	beq.n	800a79c <_dtoa_r+0x614>
 800a7aa:	4647      	mov	r7, r8
 800a7ac:	e03b      	b.n	800a826 <_dtoa_r+0x69e>
 800a7ae:	4b9e      	ldr	r3, [pc, #632]	@ (800aa28 <_dtoa_r+0x8a0>)
 800a7b0:	f7f5 ff2a 	bl	8000608 <__aeabi_dmul>
 800a7b4:	e9cd 0104 	strd	r0, r1, [sp, #16]
 800a7b8:	e7bc      	b.n	800a734 <_dtoa_r+0x5ac>
 800a7ba:	e9dd 4504 	ldrd	r4, r5, [sp, #16]
 800a7be:	4656      	mov	r6, sl
 800a7c0:	e9dd 2300 	ldrd	r2, r3, [sp]
 800a7c4:	4620      	mov	r0, r4
 800a7c6:	4629      	mov	r1, r5
 800a7c8:	f7f6 f848 	bl	800085c <__aeabi_ddiv>
 800a7cc:	f7f6 f9cc 	bl	8000b68 <__aeabi_d2iz>
 800a7d0:	4680      	mov	r8, r0
 800a7d2:	f7f5 feaf 	bl	8000534 <__aeabi_i2d>
 800a7d6:	e9dd 2300 	ldrd	r2, r3, [sp]
 800a7da:	f7f5 ff15 	bl	8000608 <__aeabi_dmul>
 800a7de:	4602      	mov	r2, r0
 800a7e0:	460b      	mov	r3, r1
 800a7e2:	4620      	mov	r0, r4
 800a7e4:	4629      	mov	r1, r5
 800a7e6:	f108 0430 	add.w	r4, r8, #48	@ 0x30
 800a7ea:	f7f5 fd55 	bl	8000298 <__aeabi_dsub>
 800a7ee:	f806 4b01 	strb.w	r4, [r6], #1
 800a7f2:	9d03      	ldr	r5, [sp, #12]
 800a7f4:	eba6 040a 	sub.w	r4, r6, sl
 800a7f8:	42a5      	cmp	r5, r4
 800a7fa:	4602      	mov	r2, r0
 800a7fc:	460b      	mov	r3, r1
 800a7fe:	d133      	bne.n	800a868 <_dtoa_r+0x6e0>
 800a800:	f7f5 fd4c 	bl	800029c <__adddf3>
 800a804:	e9dd 2300 	ldrd	r2, r3, [sp]
 800a808:	4604      	mov	r4, r0
 800a80a:	460d      	mov	r5, r1
 800a80c:	f7f6 f98c 	bl	8000b28 <__aeabi_dcmpgt>
 800a810:	b9c0      	cbnz	r0, 800a844 <_dtoa_r+0x6bc>
 800a812:	e9dd 2300 	ldrd	r2, r3, [sp]
 800a816:	4620      	mov	r0, r4
 800a818:	4629      	mov	r1, r5
 800a81a:	f7f6 f95d 	bl	8000ad8 <__aeabi_dcmpeq>
 800a81e:	b110      	cbz	r0, 800a826 <_dtoa_r+0x69e>
 800a820:	f018 0f01 	tst.w	r8, #1
 800a824:	d10e      	bne.n	800a844 <_dtoa_r+0x6bc>
 800a826:	9902      	ldr	r1, [sp, #8]
 800a828:	4648      	mov	r0, r9
 800a82a:	f000 fbbd 	bl	800afa8 <_Bfree>
 800a82e:	2300      	movs	r3, #0
 800a830:	7033      	strb	r3, [r6, #0]
 800a832:	9b11      	ldr	r3, [sp, #68]	@ 0x44
 800a834:	3701      	adds	r7, #1
 800a836:	601f      	str	r7, [r3, #0]
 800a838:	9b21      	ldr	r3, [sp, #132]	@ 0x84
 800a83a:	2b00      	cmp	r3, #0
 800a83c:	f000 824b 	beq.w	800acd6 <_dtoa_r+0xb4e>
 800a840:	601e      	str	r6, [r3, #0]
 800a842:	e248      	b.n	800acd6 <_dtoa_r+0xb4e>
 800a844:	46b8      	mov	r8, r7
 800a846:	4633      	mov	r3, r6
 800a848:	461e      	mov	r6, r3
 800a84a:	f813 2d01 	ldrb.w	r2, [r3, #-1]!
 800a84e:	2a39      	cmp	r2, #57	@ 0x39
 800a850:	d106      	bne.n	800a860 <_dtoa_r+0x6d8>
 800a852:	459a      	cmp	sl, r3
 800a854:	d1f8      	bne.n	800a848 <_dtoa_r+0x6c0>
 800a856:	2230      	movs	r2, #48	@ 0x30
 800a858:	f108 0801 	add.w	r8, r8, #1
 800a85c:	f88a 2000 	strb.w	r2, [sl]
 800a860:	781a      	ldrb	r2, [r3, #0]
 800a862:	3201      	adds	r2, #1
 800a864:	701a      	strb	r2, [r3, #0]
 800a866:	e7a0      	b.n	800a7aa <_dtoa_r+0x622>
 800a868:	4b6f      	ldr	r3, [pc, #444]	@ (800aa28 <_dtoa_r+0x8a0>)
 800a86a:	2200      	movs	r2, #0
 800a86c:	f7f5 fecc 	bl	8000608 <__aeabi_dmul>
 800a870:	2200      	movs	r2, #0
 800a872:	2300      	movs	r3, #0
 800a874:	4604      	mov	r4, r0
 800a876:	460d      	mov	r5, r1
 800a878:	f7f6 f92e 	bl	8000ad8 <__aeabi_dcmpeq>
 800a87c:	2800      	cmp	r0, #0
 800a87e:	d09f      	beq.n	800a7c0 <_dtoa_r+0x638>
 800a880:	e7d1      	b.n	800a826 <_dtoa_r+0x69e>
 800a882:	9a09      	ldr	r2, [sp, #36]	@ 0x24
 800a884:	2a00      	cmp	r2, #0
 800a886:	f000 80ea 	beq.w	800aa5e <_dtoa_r+0x8d6>
 800a88a:	9a07      	ldr	r2, [sp, #28]
 800a88c:	2a01      	cmp	r2, #1
 800a88e:	f300 80cd 	bgt.w	800aa2c <_dtoa_r+0x8a4>
 800a892:	9a12      	ldr	r2, [sp, #72]	@ 0x48
 800a894:	2a00      	cmp	r2, #0
 800a896:	f000 80c1 	beq.w	800aa1c <_dtoa_r+0x894>
 800a89a:	f203 4333 	addw	r3, r3, #1075	@ 0x433
 800a89e:	9c08      	ldr	r4, [sp, #32]
 800a8a0:	9e00      	ldr	r6, [sp, #0]
 800a8a2:	9a00      	ldr	r2, [sp, #0]
 800a8a4:	441a      	add	r2, r3
 800a8a6:	9200      	str	r2, [sp, #0]
 800a8a8:	9a06      	ldr	r2, [sp, #24]
 800a8aa:	2101      	movs	r1, #1
 800a8ac:	441a      	add	r2, r3
 800a8ae:	4648      	mov	r0, r9
 800a8b0:	9206      	str	r2, [sp, #24]
 800a8b2:	f000 fc2d 	bl	800b110 <__i2b>
 800a8b6:	4605      	mov	r5, r0
 800a8b8:	b166      	cbz	r6, 800a8d4 <_dtoa_r+0x74c>
 800a8ba:	9b06      	ldr	r3, [sp, #24]
 800a8bc:	2b00      	cmp	r3, #0
 800a8be:	dd09      	ble.n	800a8d4 <_dtoa_r+0x74c>
 800a8c0:	42b3      	cmp	r3, r6
 800a8c2:	9a00      	ldr	r2, [sp, #0]
 800a8c4:	bfa8      	it	ge
 800a8c6:	4633      	movge	r3, r6
 800a8c8:	1ad2      	subs	r2, r2, r3
 800a8ca:	9200      	str	r2, [sp, #0]
 800a8cc:	9a06      	ldr	r2, [sp, #24]
 800a8ce:	1af6      	subs	r6, r6, r3
 800a8d0:	1ad3      	subs	r3, r2, r3
 800a8d2:	9306      	str	r3, [sp, #24]
 800a8d4:	9b08      	ldr	r3, [sp, #32]
 800a8d6:	b30b      	cbz	r3, 800a91c <_dtoa_r+0x794>
 800a8d8:	9b09      	ldr	r3, [sp, #36]	@ 0x24
 800a8da:	2b00      	cmp	r3, #0
 800a8dc:	f000 80c6 	beq.w	800aa6c <_dtoa_r+0x8e4>
 800a8e0:	2c00      	cmp	r4, #0
 800a8e2:	f000 80c0 	beq.w	800aa66 <_dtoa_r+0x8de>
 800a8e6:	4629      	mov	r1, r5
 800a8e8:	4622      	mov	r2, r4
 800a8ea:	4648      	mov	r0, r9
 800a8ec:	f000 fcc8 	bl	800b280 <__pow5mult>
 800a8f0:	9a02      	ldr	r2, [sp, #8]
 800a8f2:	4601      	mov	r1, r0
 800a8f4:	4605      	mov	r5, r0
 800a8f6:	4648      	mov	r0, r9
 800a8f8:	f000 fc20 	bl	800b13c <__multiply>
 800a8fc:	9902      	ldr	r1, [sp, #8]
 800a8fe:	4680      	mov	r8, r0
 800a900:	4648      	mov	r0, r9
 800a902:	f000 fb51 	bl	800afa8 <_Bfree>
 800a906:	9b08      	ldr	r3, [sp, #32]
 800a908:	1b1b      	subs	r3, r3, r4
 800a90a:	9308      	str	r3, [sp, #32]
 800a90c:	f000 80b1 	beq.w	800aa72 <_dtoa_r+0x8ea>
 800a910:	9a08      	ldr	r2, [sp, #32]
 800a912:	4641      	mov	r1, r8
 800a914:	4648      	mov	r0, r9
 800a916:	f000 fcb3 	bl	800b280 <__pow5mult>
 800a91a:	9002      	str	r0, [sp, #8]
 800a91c:	2101      	movs	r1, #1
 800a91e:	4648      	mov	r0, r9
 800a920:	f000 fbf6 	bl	800b110 <__i2b>
 800a924:	9b0d      	ldr	r3, [sp, #52]	@ 0x34
 800a926:	4604      	mov	r4, r0
 800a928:	2b00      	cmp	r3, #0
 800a92a:	f000 81d8 	beq.w	800acde <_dtoa_r+0xb56>
 800a92e:	461a      	mov	r2, r3
 800a930:	4601      	mov	r1, r0
 800a932:	4648      	mov	r0, r9
 800a934:	f000 fca4 	bl	800b280 <__pow5mult>
 800a938:	9b07      	ldr	r3, [sp, #28]
 800a93a:	2b01      	cmp	r3, #1
 800a93c:	4604      	mov	r4, r0
 800a93e:	f300 809f 	bgt.w	800aa80 <_dtoa_r+0x8f8>
 800a942:	9b04      	ldr	r3, [sp, #16]
 800a944:	2b00      	cmp	r3, #0
 800a946:	f040 8097 	bne.w	800aa78 <_dtoa_r+0x8f0>
 800a94a:	9b05      	ldr	r3, [sp, #20]
 800a94c:	f3c3 0313 	ubfx	r3, r3, #0, #20
 800a950:	2b00      	cmp	r3, #0
 800a952:	f040 8093 	bne.w	800aa7c <_dtoa_r+0x8f4>
 800a956:	9b05      	ldr	r3, [sp, #20]
 800a958:	f023 4300 	bic.w	r3, r3, #2147483648	@ 0x80000000
 800a95c:	0d1b      	lsrs	r3, r3, #20
 800a95e:	051b      	lsls	r3, r3, #20
 800a960:	b133      	cbz	r3, 800a970 <_dtoa_r+0x7e8>
 800a962:	9b00      	ldr	r3, [sp, #0]
 800a964:	3301      	adds	r3, #1
 800a966:	9300      	str	r3, [sp, #0]
 800a968:	9b06      	ldr	r3, [sp, #24]
 800a96a:	3301      	adds	r3, #1
 800a96c:	9306      	str	r3, [sp, #24]
 800a96e:	2301      	movs	r3, #1
 800a970:	9308      	str	r3, [sp, #32]
 800a972:	9b0d      	ldr	r3, [sp, #52]	@ 0x34
 800a974:	2b00      	cmp	r3, #0
 800a976:	f000 81b8 	beq.w	800acea <_dtoa_r+0xb62>
 800a97a:	6923      	ldr	r3, [r4, #16]
 800a97c:	eb04 0383 	add.w	r3, r4, r3, lsl #2
 800a980:	6918      	ldr	r0, [r3, #16]
 800a982:	f000 fb79 	bl	800b078 <__hi0bits>
 800a986:	f1c0 0020 	rsb	r0, r0, #32
 800a98a:	9b06      	ldr	r3, [sp, #24]
 800a98c:	4418      	add	r0, r3
 800a98e:	f010 001f 	ands.w	r0, r0, #31
 800a992:	f000 8082 	beq.w	800aa9a <_dtoa_r+0x912>
 800a996:	f1c0 0320 	rsb	r3, r0, #32
 800a99a:	2b04      	cmp	r3, #4
 800a99c:	dd73      	ble.n	800aa86 <_dtoa_r+0x8fe>
 800a99e:	9b00      	ldr	r3, [sp, #0]
 800a9a0:	f1c0 001c 	rsb	r0, r0, #28
 800a9a4:	4403      	add	r3, r0
 800a9a6:	9300      	str	r3, [sp, #0]
 800a9a8:	9b06      	ldr	r3, [sp, #24]
 800a9aa:	4403      	add	r3, r0
 800a9ac:	4406      	add	r6, r0
 800a9ae:	9306      	str	r3, [sp, #24]
 800a9b0:	9b00      	ldr	r3, [sp, #0]
 800a9b2:	2b00      	cmp	r3, #0
 800a9b4:	dd05      	ble.n	800a9c2 <_dtoa_r+0x83a>
 800a9b6:	9902      	ldr	r1, [sp, #8]
 800a9b8:	461a      	mov	r2, r3
 800a9ba:	4648      	mov	r0, r9
 800a9bc:	f000 fcba 	bl	800b334 <__lshift>
 800a9c0:	9002      	str	r0, [sp, #8]
 800a9c2:	9b06      	ldr	r3, [sp, #24]
 800a9c4:	2b00      	cmp	r3, #0
 800a9c6:	dd05      	ble.n	800a9d4 <_dtoa_r+0x84c>
 800a9c8:	4621      	mov	r1, r4
 800a9ca:	461a      	mov	r2, r3
 800a9cc:	4648      	mov	r0, r9
 800a9ce:	f000 fcb1 	bl	800b334 <__lshift>
 800a9d2:	4604      	mov	r4, r0
 800a9d4:	9b10      	ldr	r3, [sp, #64]	@ 0x40
 800a9d6:	2b00      	cmp	r3, #0
 800a9d8:	d061      	beq.n	800aa9e <_dtoa_r+0x916>
 800a9da:	9802      	ldr	r0, [sp, #8]
 800a9dc:	4621      	mov	r1, r4
 800a9de:	f000 fd15 	bl	800b40c <__mcmp>
 800a9e2:	2800      	cmp	r0, #0
 800a9e4:	da5b      	bge.n	800aa9e <_dtoa_r+0x916>
 800a9e6:	2300      	movs	r3, #0
 800a9e8:	9902      	ldr	r1, [sp, #8]
 800a9ea:	220a      	movs	r2, #10
 800a9ec:	4648      	mov	r0, r9
 800a9ee:	f000 fafd 	bl	800afec <__multadd>
 800a9f2:	9b09      	ldr	r3, [sp, #36]	@ 0x24
 800a9f4:	9002      	str	r0, [sp, #8]
 800a9f6:	f107 38ff 	add.w	r8, r7, #4294967295
 800a9fa:	2b00      	cmp	r3, #0
 800a9fc:	f000 8177 	beq.w	800acee <_dtoa_r+0xb66>
 800aa00:	4629      	mov	r1, r5
 800aa02:	2300      	movs	r3, #0
 800aa04:	220a      	movs	r2, #10
 800aa06:	4648      	mov	r0, r9
 800aa08:	f000 faf0 	bl	800afec <__multadd>
 800aa0c:	f1bb 0f00 	cmp.w	fp, #0
 800aa10:	4605      	mov	r5, r0
 800aa12:	dc6f      	bgt.n	800aaf4 <_dtoa_r+0x96c>
 800aa14:	9b07      	ldr	r3, [sp, #28]
 800aa16:	2b02      	cmp	r3, #2
 800aa18:	dc49      	bgt.n	800aaae <_dtoa_r+0x926>
 800aa1a:	e06b      	b.n	800aaf4 <_dtoa_r+0x96c>
 800aa1c:	9b14      	ldr	r3, [sp, #80]	@ 0x50
 800aa1e:	f1c3 0336 	rsb	r3, r3, #54	@ 0x36
 800aa22:	e73c      	b.n	800a89e <_dtoa_r+0x716>
 800aa24:	3fe00000 	.word	0x3fe00000
 800aa28:	40240000 	.word	0x40240000
 800aa2c:	9b03      	ldr	r3, [sp, #12]
 800aa2e:	1e5c      	subs	r4, r3, #1
 800aa30:	9b08      	ldr	r3, [sp, #32]
 800aa32:	42a3      	cmp	r3, r4
 800aa34:	db09      	blt.n	800aa4a <_dtoa_r+0x8c2>
 800aa36:	1b1c      	subs	r4, r3, r4
 800aa38:	9b03      	ldr	r3, [sp, #12]
 800aa3a:	2b00      	cmp	r3, #0
 800aa3c:	f6bf af30 	bge.w	800a8a0 <_dtoa_r+0x718>
 800aa40:	9b00      	ldr	r3, [sp, #0]
 800aa42:	9a03      	ldr	r2, [sp, #12]
 800aa44:	1a9e      	subs	r6, r3, r2
 800aa46:	2300      	movs	r3, #0
 800aa48:	e72b      	b.n	800a8a2 <_dtoa_r+0x71a>
 800aa4a:	9b08      	ldr	r3, [sp, #32]
 800aa4c:	9a0d      	ldr	r2, [sp, #52]	@ 0x34
 800aa4e:	9408      	str	r4, [sp, #32]
 800aa50:	1ae3      	subs	r3, r4, r3
 800aa52:	441a      	add	r2, r3
 800aa54:	9e00      	ldr	r6, [sp, #0]
 800aa56:	9b03      	ldr	r3, [sp, #12]
 800aa58:	920d      	str	r2, [sp, #52]	@ 0x34
 800aa5a:	2400      	movs	r4, #0
 800aa5c:	e721      	b.n	800a8a2 <_dtoa_r+0x71a>
 800aa5e:	9c08      	ldr	r4, [sp, #32]
 800aa60:	9e00      	ldr	r6, [sp, #0]
 800aa62:	9d09      	ldr	r5, [sp, #36]	@ 0x24
 800aa64:	e728      	b.n	800a8b8 <_dtoa_r+0x730>
 800aa66:	f8dd 8008 	ldr.w	r8, [sp, #8]
 800aa6a:	e751      	b.n	800a910 <_dtoa_r+0x788>
 800aa6c:	9a08      	ldr	r2, [sp, #32]
 800aa6e:	9902      	ldr	r1, [sp, #8]
 800aa70:	e750      	b.n	800a914 <_dtoa_r+0x78c>
 800aa72:	f8cd 8008 	str.w	r8, [sp, #8]
 800aa76:	e751      	b.n	800a91c <_dtoa_r+0x794>
 800aa78:	2300      	movs	r3, #0
 800aa7a:	e779      	b.n	800a970 <_dtoa_r+0x7e8>
 800aa7c:	9b04      	ldr	r3, [sp, #16]
 800aa7e:	e777      	b.n	800a970 <_dtoa_r+0x7e8>
 800aa80:	2300      	movs	r3, #0
 800aa82:	9308      	str	r3, [sp, #32]
 800aa84:	e779      	b.n	800a97a <_dtoa_r+0x7f2>
 800aa86:	d093      	beq.n	800a9b0 <_dtoa_r+0x828>
 800aa88:	9a00      	ldr	r2, [sp, #0]
 800aa8a:	331c      	adds	r3, #28
 800aa8c:	441a      	add	r2, r3
 800aa8e:	9200      	str	r2, [sp, #0]
 800aa90:	9a06      	ldr	r2, [sp, #24]
 800aa92:	441a      	add	r2, r3
 800aa94:	441e      	add	r6, r3
 800aa96:	9206      	str	r2, [sp, #24]
 800aa98:	e78a      	b.n	800a9b0 <_dtoa_r+0x828>
 800aa9a:	4603      	mov	r3, r0
 800aa9c:	e7f4      	b.n	800aa88 <_dtoa_r+0x900>
 800aa9e:	9b03      	ldr	r3, [sp, #12]
 800aaa0:	2b00      	cmp	r3, #0
 800aaa2:	46b8      	mov	r8, r7
 800aaa4:	dc20      	bgt.n	800aae8 <_dtoa_r+0x960>
 800aaa6:	469b      	mov	fp, r3
 800aaa8:	9b07      	ldr	r3, [sp, #28]
 800aaaa:	2b02      	cmp	r3, #2
 800aaac:	dd1e      	ble.n	800aaec <_dtoa_r+0x964>
 800aaae:	f1bb 0f00 	cmp.w	fp, #0
 800aab2:	f47f adb1 	bne.w	800a618 <_dtoa_r+0x490>
 800aab6:	4621      	mov	r1, r4
 800aab8:	465b      	mov	r3, fp
 800aaba:	2205      	movs	r2, #5
 800aabc:	4648      	mov	r0, r9
 800aabe:	f000 fa95 	bl	800afec <__multadd>
 800aac2:	4601      	mov	r1, r0
 800aac4:	4604      	mov	r4, r0
 800aac6:	9802      	ldr	r0, [sp, #8]
 800aac8:	f000 fca0 	bl	800b40c <__mcmp>
 800aacc:	2800      	cmp	r0, #0
 800aace:	f77f ada3 	ble.w	800a618 <_dtoa_r+0x490>
 800aad2:	4656      	mov	r6, sl
 800aad4:	2331      	movs	r3, #49	@ 0x31
 800aad6:	f806 3b01 	strb.w	r3, [r6], #1
 800aada:	f108 0801 	add.w	r8, r8, #1
 800aade:	e59f      	b.n	800a620 <_dtoa_r+0x498>
 800aae0:	9c03      	ldr	r4, [sp, #12]
 800aae2:	46b8      	mov	r8, r7
 800aae4:	4625      	mov	r5, r4
 800aae6:	e7f4      	b.n	800aad2 <_dtoa_r+0x94a>
 800aae8:	f8dd b00c 	ldr.w	fp, [sp, #12]
 800aaec:	9b09      	ldr	r3, [sp, #36]	@ 0x24
 800aaee:	2b00      	cmp	r3, #0
 800aaf0:	f000 8101 	beq.w	800acf6 <_dtoa_r+0xb6e>
 800aaf4:	2e00      	cmp	r6, #0
 800aaf6:	dd05      	ble.n	800ab04 <_dtoa_r+0x97c>
 800aaf8:	4629      	mov	r1, r5
 800aafa:	4632      	mov	r2, r6
 800aafc:	4648      	mov	r0, r9
 800aafe:	f000 fc19 	bl	800b334 <__lshift>
 800ab02:	4605      	mov	r5, r0
 800ab04:	9b08      	ldr	r3, [sp, #32]
 800ab06:	2b00      	cmp	r3, #0
 800ab08:	d05c      	beq.n	800abc4 <_dtoa_r+0xa3c>
 800ab0a:	6869      	ldr	r1, [r5, #4]
 800ab0c:	4648      	mov	r0, r9
 800ab0e:	f000 fa0b 	bl	800af28 <_Balloc>
 800ab12:	4606      	mov	r6, r0
 800ab14:	b928      	cbnz	r0, 800ab22 <_dtoa_r+0x99a>
 800ab16:	4b82      	ldr	r3, [pc, #520]	@ (800ad20 <_dtoa_r+0xb98>)
 800ab18:	4602      	mov	r2, r0
 800ab1a:	f240 21ef 	movw	r1, #751	@ 0x2ef
 800ab1e:	f7ff bb4a 	b.w	800a1b6 <_dtoa_r+0x2e>
 800ab22:	692a      	ldr	r2, [r5, #16]
 800ab24:	3202      	adds	r2, #2
 800ab26:	0092      	lsls	r2, r2, #2
 800ab28:	f105 010c 	add.w	r1, r5, #12
 800ab2c:	300c      	adds	r0, #12
 800ab2e:	f7ff fa94 	bl	800a05a <memcpy>
 800ab32:	2201      	movs	r2, #1
 800ab34:	4631      	mov	r1, r6
 800ab36:	4648      	mov	r0, r9
 800ab38:	f000 fbfc 	bl	800b334 <__lshift>
 800ab3c:	f10a 0301 	add.w	r3, sl, #1
 800ab40:	9300      	str	r3, [sp, #0]
 800ab42:	eb0a 030b 	add.w	r3, sl, fp
 800ab46:	9308      	str	r3, [sp, #32]
 800ab48:	9b04      	ldr	r3, [sp, #16]
 800ab4a:	f003 0301 	and.w	r3, r3, #1
 800ab4e:	462f      	mov	r7, r5
 800ab50:	9306      	str	r3, [sp, #24]
 800ab52:	4605      	mov	r5, r0
 800ab54:	9b00      	ldr	r3, [sp, #0]
 800ab56:	9802      	ldr	r0, [sp, #8]
 800ab58:	4621      	mov	r1, r4
 800ab5a:	f103 3bff 	add.w	fp, r3, #4294967295
 800ab5e:	f7ff fa8a 	bl	800a076 <quorem>
 800ab62:	4603      	mov	r3, r0
 800ab64:	3330      	adds	r3, #48	@ 0x30
 800ab66:	9003      	str	r0, [sp, #12]
 800ab68:	4639      	mov	r1, r7
 800ab6a:	9802      	ldr	r0, [sp, #8]
 800ab6c:	9309      	str	r3, [sp, #36]	@ 0x24
 800ab6e:	f000 fc4d 	bl	800b40c <__mcmp>
 800ab72:	462a      	mov	r2, r5
 800ab74:	9004      	str	r0, [sp, #16]
 800ab76:	4621      	mov	r1, r4
 800ab78:	4648      	mov	r0, r9
 800ab7a:	f000 fc63 	bl	800b444 <__mdiff>
 800ab7e:	68c2      	ldr	r2, [r0, #12]
 800ab80:	9b09      	ldr	r3, [sp, #36]	@ 0x24
 800ab82:	4606      	mov	r6, r0
 800ab84:	bb02      	cbnz	r2, 800abc8 <_dtoa_r+0xa40>
 800ab86:	4601      	mov	r1, r0
 800ab88:	9802      	ldr	r0, [sp, #8]
 800ab8a:	f000 fc3f 	bl	800b40c <__mcmp>
 800ab8e:	9b09      	ldr	r3, [sp, #36]	@ 0x24
 800ab90:	4602      	mov	r2, r0
 800ab92:	4631      	mov	r1, r6
 800ab94:	4648      	mov	r0, r9
 800ab96:	920c      	str	r2, [sp, #48]	@ 0x30
 800ab98:	9309      	str	r3, [sp, #36]	@ 0x24
 800ab9a:	f000 fa05 	bl	800afa8 <_Bfree>
 800ab9e:	9b07      	ldr	r3, [sp, #28]
 800aba0:	9a0c      	ldr	r2, [sp, #48]	@ 0x30
 800aba2:	9e00      	ldr	r6, [sp, #0]
 800aba4:	ea42 0103 	orr.w	r1, r2, r3
 800aba8:	9b06      	ldr	r3, [sp, #24]
 800abaa:	4319      	orrs	r1, r3
 800abac:	9b09      	ldr	r3, [sp, #36]	@ 0x24
 800abae:	d10d      	bne.n	800abcc <_dtoa_r+0xa44>
 800abb0:	2b39      	cmp	r3, #57	@ 0x39
 800abb2:	d027      	beq.n	800ac04 <_dtoa_r+0xa7c>
 800abb4:	9a04      	ldr	r2, [sp, #16]
 800abb6:	2a00      	cmp	r2, #0
 800abb8:	dd01      	ble.n	800abbe <_dtoa_r+0xa36>
 800abba:	9b03      	ldr	r3, [sp, #12]
 800abbc:	3331      	adds	r3, #49	@ 0x31
 800abbe:	f88b 3000 	strb.w	r3, [fp]
 800abc2:	e52e      	b.n	800a622 <_dtoa_r+0x49a>
 800abc4:	4628      	mov	r0, r5
 800abc6:	e7b9      	b.n	800ab3c <_dtoa_r+0x9b4>
 800abc8:	2201      	movs	r2, #1
 800abca:	e7e2      	b.n	800ab92 <_dtoa_r+0xa0a>
 800abcc:	9904      	ldr	r1, [sp, #16]
 800abce:	2900      	cmp	r1, #0
 800abd0:	db04      	blt.n	800abdc <_dtoa_r+0xa54>
 800abd2:	9807      	ldr	r0, [sp, #28]
 800abd4:	4301      	orrs	r1, r0
 800abd6:	9806      	ldr	r0, [sp, #24]
 800abd8:	4301      	orrs	r1, r0
 800abda:	d120      	bne.n	800ac1e <_dtoa_r+0xa96>
 800abdc:	2a00      	cmp	r2, #0
 800abde:	ddee      	ble.n	800abbe <_dtoa_r+0xa36>
 800abe0:	9902      	ldr	r1, [sp, #8]
 800abe2:	9300      	str	r3, [sp, #0]
 800abe4:	2201      	movs	r2, #1
 800abe6:	4648      	mov	r0, r9
 800abe8:	f000 fba4 	bl	800b334 <__lshift>
 800abec:	4621      	mov	r1, r4
 800abee:	9002      	str	r0, [sp, #8]
 800abf0:	f000 fc0c 	bl	800b40c <__mcmp>
 800abf4:	2800      	cmp	r0, #0
 800abf6:	9b00      	ldr	r3, [sp, #0]
 800abf8:	dc02      	bgt.n	800ac00 <_dtoa_r+0xa78>
 800abfa:	d1e0      	bne.n	800abbe <_dtoa_r+0xa36>
 800abfc:	07da      	lsls	r2, r3, #31
 800abfe:	d5de      	bpl.n	800abbe <_dtoa_r+0xa36>
 800ac00:	2b39      	cmp	r3, #57	@ 0x39
 800ac02:	d1da      	bne.n	800abba <_dtoa_r+0xa32>
 800ac04:	2339      	movs	r3, #57	@ 0x39
 800ac06:	f88b 3000 	strb.w	r3, [fp]
 800ac0a:	4633      	mov	r3, r6
 800ac0c:	461e      	mov	r6, r3
 800ac0e:	3b01      	subs	r3, #1
 800ac10:	f816 2c01 	ldrb.w	r2, [r6, #-1]
 800ac14:	2a39      	cmp	r2, #57	@ 0x39
 800ac16:	d04e      	beq.n	800acb6 <_dtoa_r+0xb2e>
 800ac18:	3201      	adds	r2, #1
 800ac1a:	701a      	strb	r2, [r3, #0]
 800ac1c:	e501      	b.n	800a622 <_dtoa_r+0x49a>
 800ac1e:	2a00      	cmp	r2, #0
 800ac20:	dd03      	ble.n	800ac2a <_dtoa_r+0xaa2>
 800ac22:	2b39      	cmp	r3, #57	@ 0x39
 800ac24:	d0ee      	beq.n	800ac04 <_dtoa_r+0xa7c>
 800ac26:	3301      	adds	r3, #1
 800ac28:	e7c9      	b.n	800abbe <_dtoa_r+0xa36>
 800ac2a:	9a00      	ldr	r2, [sp, #0]
 800ac2c:	9908      	ldr	r1, [sp, #32]
 800ac2e:	f802 3c01 	strb.w	r3, [r2, #-1]
 800ac32:	428a      	cmp	r2, r1
 800ac34:	d028      	beq.n	800ac88 <_dtoa_r+0xb00>
 800ac36:	9902      	ldr	r1, [sp, #8]
 800ac38:	2300      	movs	r3, #0
 800ac3a:	220a      	movs	r2, #10
 800ac3c:	4648      	mov	r0, r9
 800ac3e:	f000 f9d5 	bl	800afec <__multadd>
 800ac42:	42af      	cmp	r7, r5
 800ac44:	9002      	str	r0, [sp, #8]
 800ac46:	f04f 0300 	mov.w	r3, #0
 800ac4a:	f04f 020a 	mov.w	r2, #10
 800ac4e:	4639      	mov	r1, r7
 800ac50:	4648      	mov	r0, r9
 800ac52:	d107      	bne.n	800ac64 <_dtoa_r+0xadc>
 800ac54:	f000 f9ca 	bl	800afec <__multadd>
 800ac58:	4607      	mov	r7, r0
 800ac5a:	4605      	mov	r5, r0
 800ac5c:	9b00      	ldr	r3, [sp, #0]
 800ac5e:	3301      	adds	r3, #1
 800ac60:	9300      	str	r3, [sp, #0]
 800ac62:	e777      	b.n	800ab54 <_dtoa_r+0x9cc>
 800ac64:	f000 f9c2 	bl	800afec <__multadd>
 800ac68:	4629      	mov	r1, r5
 800ac6a:	4607      	mov	r7, r0
 800ac6c:	2300      	movs	r3, #0
 800ac6e:	220a      	movs	r2, #10
 800ac70:	4648      	mov	r0, r9
 800ac72:	f000 f9bb 	bl	800afec <__multadd>
 800ac76:	4605      	mov	r5, r0
 800ac78:	e7f0      	b.n	800ac5c <_dtoa_r+0xad4>
 800ac7a:	f1bb 0f00 	cmp.w	fp, #0
 800ac7e:	bfcc      	ite	gt
 800ac80:	465e      	movgt	r6, fp
 800ac82:	2601      	movle	r6, #1
 800ac84:	4456      	add	r6, sl
 800ac86:	2700      	movs	r7, #0
 800ac88:	9902      	ldr	r1, [sp, #8]
 800ac8a:	9300      	str	r3, [sp, #0]
 800ac8c:	2201      	movs	r2, #1
 800ac8e:	4648      	mov	r0, r9
 800ac90:	f000 fb50 	bl	800b334 <__lshift>
 800ac94:	4621      	mov	r1, r4
 800ac96:	9002      	str	r0, [sp, #8]
 800ac98:	f000 fbb8 	bl	800b40c <__mcmp>
 800ac9c:	2800      	cmp	r0, #0
 800ac9e:	dcb4      	bgt.n	800ac0a <_dtoa_r+0xa82>
 800aca0:	d102      	bne.n	800aca8 <_dtoa_r+0xb20>
 800aca2:	9b00      	ldr	r3, [sp, #0]
 800aca4:	07db      	lsls	r3, r3, #31
 800aca6:	d4b0      	bmi.n	800ac0a <_dtoa_r+0xa82>
 800aca8:	4633      	mov	r3, r6
 800acaa:	461e      	mov	r6, r3
 800acac:	f813 2d01 	ldrb.w	r2, [r3, #-1]!
 800acb0:	2a30      	cmp	r2, #48	@ 0x30
 800acb2:	d0fa      	beq.n	800acaa <_dtoa_r+0xb22>
 800acb4:	e4b5      	b.n	800a622 <_dtoa_r+0x49a>
 800acb6:	459a      	cmp	sl, r3
 800acb8:	d1a8      	bne.n	800ac0c <_dtoa_r+0xa84>
 800acba:	2331      	movs	r3, #49	@ 0x31
 800acbc:	f108 0801 	add.w	r8, r8, #1
 800acc0:	f88a 3000 	strb.w	r3, [sl]
 800acc4:	e4ad      	b.n	800a622 <_dtoa_r+0x49a>
 800acc6:	9b21      	ldr	r3, [sp, #132]	@ 0x84
 800acc8:	f8df a058 	ldr.w	sl, [pc, #88]	@ 800ad24 <_dtoa_r+0xb9c>
 800accc:	b11b      	cbz	r3, 800acd6 <_dtoa_r+0xb4e>
 800acce:	f10a 0308 	add.w	r3, sl, #8
 800acd2:	9a21      	ldr	r2, [sp, #132]	@ 0x84
 800acd4:	6013      	str	r3, [r2, #0]
 800acd6:	4650      	mov	r0, sl
 800acd8:	b017      	add	sp, #92	@ 0x5c
 800acda:	e8bd 8ff0 	ldmia.w	sp!, {r4, r5, r6, r7, r8, r9, sl, fp, pc}
 800acde:	9b07      	ldr	r3, [sp, #28]
 800ace0:	2b01      	cmp	r3, #1
 800ace2:	f77f ae2e 	ble.w	800a942 <_dtoa_r+0x7ba>
 800ace6:	9b0d      	ldr	r3, [sp, #52]	@ 0x34
 800ace8:	9308      	str	r3, [sp, #32]
 800acea:	2001      	movs	r0, #1
 800acec:	e64d      	b.n	800a98a <_dtoa_r+0x802>
 800acee:	f1bb 0f00 	cmp.w	fp, #0
 800acf2:	f77f aed9 	ble.w	800aaa8 <_dtoa_r+0x920>
 800acf6:	4656      	mov	r6, sl
 800acf8:	9802      	ldr	r0, [sp, #8]
 800acfa:	4621      	mov	r1, r4
 800acfc:	f7ff f9bb 	bl	800a076 <quorem>
 800ad00:	f100 0330 	add.w	r3, r0, #48	@ 0x30
 800ad04:	f806 3b01 	strb.w	r3, [r6], #1
 800ad08:	eba6 020a 	sub.w	r2, r6, sl
 800ad0c:	4593      	cmp	fp, r2
 800ad0e:	ddb4      	ble.n	800ac7a <_dtoa_r+0xaf2>
 800ad10:	9902      	ldr	r1, [sp, #8]
 800ad12:	2300      	movs	r3, #0
 800ad14:	220a      	movs	r2, #10
 800ad16:	4648      	mov	r0, r9
 800ad18:	f000 f968 	bl	800afec <__multadd>
 800ad1c:	9002      	str	r0, [sp, #8]
 800ad1e:	e7eb      	b.n	800acf8 <_dtoa_r+0xb70>
 800ad20:	0800c348 	.word	0x0800c348
 800ad24:	0800c2cc 	.word	0x0800c2cc

0800ad28 <_free_r>:
 800ad28:	b538      	push	{r3, r4, r5, lr}
 800ad2a:	4605      	mov	r5, r0
 800ad2c:	2900      	cmp	r1, #0
 800ad2e:	d041      	beq.n	800adb4 <_free_r+0x8c>
 800ad30:	f851 3c04 	ldr.w	r3, [r1, #-4]
 800ad34:	1f0c      	subs	r4, r1, #4
 800ad36:	2b00      	cmp	r3, #0
 800ad38:	bfb8      	it	lt
 800ad3a:	18e4      	addlt	r4, r4, r3
 800ad3c:	f000 f8e8 	bl	800af10 <__malloc_lock>
 800ad40:	4a1d      	ldr	r2, [pc, #116]	@ (800adb8 <_free_r+0x90>)
 800ad42:	6813      	ldr	r3, [r2, #0]
 800ad44:	b933      	cbnz	r3, 800ad54 <_free_r+0x2c>
 800ad46:	6063      	str	r3, [r4, #4]
 800ad48:	6014      	str	r4, [r2, #0]
 800ad4a:	4628      	mov	r0, r5
 800ad4c:	e8bd 4038 	ldmia.w	sp!, {r3, r4, r5, lr}
 800ad50:	f000 b8e4 	b.w	800af1c <__malloc_unlock>
 800ad54:	42a3      	cmp	r3, r4
 800ad56:	d908      	bls.n	800ad6a <_free_r+0x42>
 800ad58:	6820      	ldr	r0, [r4, #0]
 800ad5a:	1821      	adds	r1, r4, r0
 800ad5c:	428b      	cmp	r3, r1
 800ad5e:	bf01      	itttt	eq
 800ad60:	6819      	ldreq	r1, [r3, #0]
 800ad62:	685b      	ldreq	r3, [r3, #4]
 800ad64:	1809      	addeq	r1, r1, r0
 800ad66:	6021      	streq	r1, [r4, #0]
 800ad68:	e7ed      	b.n	800ad46 <_free_r+0x1e>
 800ad6a:	461a      	mov	r2, r3
 800ad6c:	685b      	ldr	r3, [r3, #4]
 800ad6e:	b10b      	cbz	r3, 800ad74 <_free_r+0x4c>
 800ad70:	42a3      	cmp	r3, r4
 800ad72:	d9fa      	bls.n	800ad6a <_free_r+0x42>
 800ad74:	6811      	ldr	r1, [r2, #0]
 800ad76:	1850      	adds	r0, r2, r1
 800ad78:	42a0      	cmp	r0, r4
 800ad7a:	d10b      	bne.n	800ad94 <_free_r+0x6c>
 800ad7c:	6820      	ldr	r0, [r4, #0]
 800ad7e:	4401      	add	r1, r0
 800ad80:	1850      	adds	r0, r2, r1
 800ad82:	4283      	cmp	r3, r0
 800ad84:	6011      	str	r1, [r2, #0]
 800ad86:	d1e0      	bne.n	800ad4a <_free_r+0x22>
 800ad88:	6818      	ldr	r0, [r3, #0]
 800ad8a:	685b      	ldr	r3, [r3, #4]
 800ad8c:	6053      	str	r3, [r2, #4]
 800ad8e:	4408      	add	r0, r1
 800ad90:	6010      	str	r0, [r2, #0]
 800ad92:	e7da      	b.n	800ad4a <_free_r+0x22>
 800ad94:	d902      	bls.n	800ad9c <_free_r+0x74>
 800ad96:	230c      	movs	r3, #12
 800ad98:	602b      	str	r3, [r5, #0]
 800ad9a:	e7d6      	b.n	800ad4a <_free_r+0x22>
 800ad9c:	6820      	ldr	r0, [r4, #0]
 800ad9e:	1821      	adds	r1, r4, r0
 800ada0:	428b      	cmp	r3, r1
 800ada2:	bf04      	itt	eq
 800ada4:	6819      	ldreq	r1, [r3, #0]
 800ada6:	685b      	ldreq	r3, [r3, #4]
 800ada8:	6063      	str	r3, [r4, #4]
 800adaa:	bf04      	itt	eq
 800adac:	1809      	addeq	r1, r1, r0
 800adae:	6021      	streq	r1, [r4, #0]
 800adb0:	6054      	str	r4, [r2, #4]
 800adb2:	e7ca      	b.n	800ad4a <_free_r+0x22>
 800adb4:	bd38      	pop	{r3, r4, r5, pc}
 800adb6:	bf00      	nop
 800adb8:	200070b8 	.word	0x200070b8

0800adbc <malloc>:
 800adbc:	4b02      	ldr	r3, [pc, #8]	@ (800adc8 <malloc+0xc>)
 800adbe:	4601      	mov	r1, r0
 800adc0:	6818      	ldr	r0, [r3, #0]
 800adc2:	f000 b825 	b.w	800ae10 <_malloc_r>
 800adc6:	bf00      	nop
 800adc8:	2000010c 	.word	0x2000010c

0800adcc <sbrk_aligned>:
 800adcc:	b570      	push	{r4, r5, r6, lr}
 800adce:	4e0f      	ldr	r6, [pc, #60]	@ (800ae0c <sbrk_aligned+0x40>)
 800add0:	460c      	mov	r4, r1
 800add2:	6831      	ldr	r1, [r6, #0]
 800add4:	4605      	mov	r5, r0
 800add6:	b911      	cbnz	r1, 800adde <sbrk_aligned+0x12>
 800add8:	f000 fe3e 	bl	800ba58 <_sbrk_r>
 800addc:	6030      	str	r0, [r6, #0]
 800adde:	4621      	mov	r1, r4
 800ade0:	4628      	mov	r0, r5
 800ade2:	f000 fe39 	bl	800ba58 <_sbrk_r>
 800ade6:	1c43      	adds	r3, r0, #1
 800ade8:	d103      	bne.n	800adf2 <sbrk_aligned+0x26>
 800adea:	f04f 34ff 	mov.w	r4, #4294967295
 800adee:	4620      	mov	r0, r4
 800adf0:	bd70      	pop	{r4, r5, r6, pc}
 800adf2:	1cc4      	adds	r4, r0, #3
 800adf4:	f024 0403 	bic.w	r4, r4, #3
 800adf8:	42a0      	cmp	r0, r4
 800adfa:	d0f8      	beq.n	800adee <sbrk_aligned+0x22>
 800adfc:	1a21      	subs	r1, r4, r0
 800adfe:	4628      	mov	r0, r5
 800ae00:	f000 fe2a 	bl	800ba58 <_sbrk_r>
 800ae04:	3001      	adds	r0, #1
 800ae06:	d1f2      	bne.n	800adee <sbrk_aligned+0x22>
 800ae08:	e7ef      	b.n	800adea <sbrk_aligned+0x1e>
 800ae0a:	bf00      	nop
 800ae0c:	200070b4 	.word	0x200070b4

0800ae10 <_malloc_r>:
 800ae10:	e92d 43f8 	stmdb	sp!, {r3, r4, r5, r6, r7, r8, r9, lr}
 800ae14:	1ccd      	adds	r5, r1, #3
 800ae16:	f025 0503 	bic.w	r5, r5, #3
 800ae1a:	3508      	adds	r5, #8
 800ae1c:	2d0c      	cmp	r5, #12
 800ae1e:	bf38      	it	cc
 800ae20:	250c      	movcc	r5, #12
 800ae22:	2d00      	cmp	r5, #0
 800ae24:	4606      	mov	r6, r0
 800ae26:	db01      	blt.n	800ae2c <_malloc_r+0x1c>
 800ae28:	42a9      	cmp	r1, r5
 800ae2a:	d904      	bls.n	800ae36 <_malloc_r+0x26>
 800ae2c:	230c      	movs	r3, #12
 800ae2e:	6033      	str	r3, [r6, #0]
 800ae30:	2000      	movs	r0, #0
 800ae32:	e8bd 83f8 	ldmia.w	sp!, {r3, r4, r5, r6, r7, r8, r9, pc}
 800ae36:	f8df 80d4 	ldr.w	r8, [pc, #212]	@ 800af0c <_malloc_r+0xfc>
 800ae3a:	f000 f869 	bl	800af10 <__malloc_lock>
 800ae3e:	f8d8 3000 	ldr.w	r3, [r8]
 800ae42:	461c      	mov	r4, r3
 800ae44:	bb44      	cbnz	r4, 800ae98 <_malloc_r+0x88>
 800ae46:	4629      	mov	r1, r5
 800ae48:	4630      	mov	r0, r6
 800ae4a:	f7ff ffbf 	bl	800adcc <sbrk_aligned>
 800ae4e:	1c43      	adds	r3, r0, #1
 800ae50:	4604      	mov	r4, r0
 800ae52:	d158      	bne.n	800af06 <_malloc_r+0xf6>
 800ae54:	f8d8 4000 	ldr.w	r4, [r8]
 800ae58:	4627      	mov	r7, r4
 800ae5a:	2f00      	cmp	r7, #0
 800ae5c:	d143      	bne.n	800aee6 <_malloc_r+0xd6>
 800ae5e:	2c00      	cmp	r4, #0
 800ae60:	d04b      	beq.n	800aefa <_malloc_r+0xea>
 800ae62:	6823      	ldr	r3, [r4, #0]
 800ae64:	4639      	mov	r1, r7
 800ae66:	4630      	mov	r0, r6
 800ae68:	eb04 0903 	add.w	r9, r4, r3
 800ae6c:	f000 fdf4 	bl	800ba58 <_sbrk_r>
 800ae70:	4581      	cmp	r9, r0
 800ae72:	d142      	bne.n	800aefa <_malloc_r+0xea>
 800ae74:	6821      	ldr	r1, [r4, #0]
 800ae76:	1a6d      	subs	r5, r5, r1
 800ae78:	4629      	mov	r1, r5
 800ae7a:	4630      	mov	r0, r6
 800ae7c:	f7ff ffa6 	bl	800adcc <sbrk_aligned>
 800ae80:	3001      	adds	r0, #1
 800ae82:	d03a      	beq.n	800aefa <_malloc_r+0xea>
 800ae84:	6823      	ldr	r3, [r4, #0]
 800ae86:	442b      	add	r3, r5
 800ae88:	6023      	str	r3, [r4, #0]
 800ae8a:	f8d8 3000 	ldr.w	r3, [r8]
 800ae8e:	685a      	ldr	r2, [r3, #4]
 800ae90:	bb62      	cbnz	r2, 800aeec <_malloc_r+0xdc>
 800ae92:	f8c8 7000 	str.w	r7, [r8]
 800ae96:	e00f      	b.n	800aeb8 <_malloc_r+0xa8>
 800ae98:	6822      	ldr	r2, [r4, #0]
 800ae9a:	1b52      	subs	r2, r2, r5
 800ae9c:	d420      	bmi.n	800aee0 <_malloc_r+0xd0>
 800ae9e:	2a0b      	cmp	r2, #11
 800aea0:	d917      	bls.n	800aed2 <_malloc_r+0xc2>
 800aea2:	1961      	adds	r1, r4, r5
 800aea4:	42a3      	cmp	r3, r4
 800aea6:	6025      	str	r5, [r4, #0]
 800aea8:	bf18      	it	ne
 800aeaa:	6059      	strne	r1, [r3, #4]
 800aeac:	6863      	ldr	r3, [r4, #4]
 800aeae:	bf08      	it	eq
 800aeb0:	f8c8 1000 	streq.w	r1, [r8]
 800aeb4:	5162      	str	r2, [r4, r5]
 800aeb6:	604b      	str	r3, [r1, #4]
 800aeb8:	4630      	mov	r0, r6
 800aeba:	f000 f82f 	bl	800af1c <__malloc_unlock>
 800aebe:	f104 000b 	add.w	r0, r4, #11
 800aec2:	1d23      	adds	r3, r4, #4
 800aec4:	f020 0007 	bic.w	r0, r0, #7
 800aec8:	1ac2      	subs	r2, r0, r3
 800aeca:	bf1c      	itt	ne
 800aecc:	1a1b      	subne	r3, r3, r0
 800aece:	50a3      	strne	r3, [r4, r2]
 800aed0:	e7af      	b.n	800ae32 <_malloc_r+0x22>
 800aed2:	6862      	ldr	r2, [r4, #4]
 800aed4:	42a3      	cmp	r3, r4
 800aed6:	bf0c      	ite	eq
 800aed8:	f8c8 2000 	streq.w	r2, [r8]
 800aedc:	605a      	strne	r2, [r3, #4]
 800aede:	e7eb      	b.n	800aeb8 <_malloc_r+0xa8>
 800aee0:	4623      	mov	r3, r4
 800aee2:	6864      	ldr	r4, [r4, #4]
 800aee4:	e7ae      	b.n	800ae44 <_malloc_r+0x34>
 800aee6:	463c      	mov	r4, r7
 800aee8:	687f      	ldr	r7, [r7, #4]
 800aeea:	e7b6      	b.n	800ae5a <_malloc_r+0x4a>
 800aeec:	461a      	mov	r2, r3
 800aeee:	685b      	ldr	r3, [r3, #4]
 800aef0:	42a3      	cmp	r3, r4
 800aef2:	d1fb      	bne.n	800aeec <_malloc_r+0xdc>
 800aef4:	2300      	movs	r3, #0
 800aef6:	6053      	str	r3, [r2, #4]
 800aef8:	e7de      	b.n	800aeb8 <_malloc_r+0xa8>
 800aefa:	230c      	movs	r3, #12
 800aefc:	6033      	str	r3, [r6, #0]
 800aefe:	4630      	mov	r0, r6
 800af00:	f000 f80c 	bl	800af1c <__malloc_unlock>
 800af04:	e794      	b.n	800ae30 <_malloc_r+0x20>
 800af06:	6005      	str	r5, [r0, #0]
 800af08:	e7d6      	b.n	800aeb8 <_malloc_r+0xa8>
 800af0a:	bf00      	nop
 800af0c:	200070b8 	.word	0x200070b8

0800af10 <__malloc_lock>:
 800af10:	4801      	ldr	r0, [pc, #4]	@ (800af18 <__malloc_lock+0x8>)
 800af12:	f7ff b8a0 	b.w	800a056 <__retarget_lock_acquire_recursive>
 800af16:	bf00      	nop
 800af18:	200070b0 	.word	0x200070b0

0800af1c <__malloc_unlock>:
 800af1c:	4801      	ldr	r0, [pc, #4]	@ (800af24 <__malloc_unlock+0x8>)
 800af1e:	f7ff b89b 	b.w	800a058 <__retarget_lock_release_recursive>
 800af22:	bf00      	nop
 800af24:	200070b0 	.word	0x200070b0

0800af28 <_Balloc>:
 800af28:	b570      	push	{r4, r5, r6, lr}
 800af2a:	69c6      	ldr	r6, [r0, #28]
 800af2c:	4604      	mov	r4, r0
 800af2e:	460d      	mov	r5, r1
 800af30:	b976      	cbnz	r6, 800af50 <_Balloc+0x28>
 800af32:	2010      	movs	r0, #16
 800af34:	f7ff ff42 	bl	800adbc <malloc>
 800af38:	4602      	mov	r2, r0
 800af3a:	61e0      	str	r0, [r4, #28]
 800af3c:	b920      	cbnz	r0, 800af48 <_Balloc+0x20>
 800af3e:	4b18      	ldr	r3, [pc, #96]	@ (800afa0 <_Balloc+0x78>)
 800af40:	4818      	ldr	r0, [pc, #96]	@ (800afa4 <_Balloc+0x7c>)
 800af42:	216b      	movs	r1, #107	@ 0x6b
 800af44:	f000 fd98 	bl	800ba78 <__assert_func>
 800af48:	e9c0 6601 	strd	r6, r6, [r0, #4]
 800af4c:	6006      	str	r6, [r0, #0]
 800af4e:	60c6      	str	r6, [r0, #12]
 800af50:	69e6      	ldr	r6, [r4, #28]
 800af52:	68f3      	ldr	r3, [r6, #12]
 800af54:	b183      	cbz	r3, 800af78 <_Balloc+0x50>
 800af56:	69e3      	ldr	r3, [r4, #28]
 800af58:	68db      	ldr	r3, [r3, #12]
 800af5a:	f853 0025 	ldr.w	r0, [r3, r5, lsl #2]
 800af5e:	b9b8      	cbnz	r0, 800af90 <_Balloc+0x68>
 800af60:	2101      	movs	r1, #1
 800af62:	fa01 f605 	lsl.w	r6, r1, r5
 800af66:	1d72      	adds	r2, r6, #5
 800af68:	0092      	lsls	r2, r2, #2
 800af6a:	4620      	mov	r0, r4
 800af6c:	f000 fda2 	bl	800bab4 <_calloc_r>
 800af70:	b160      	cbz	r0, 800af8c <_Balloc+0x64>
 800af72:	e9c0 5601 	strd	r5, r6, [r0, #4]
 800af76:	e00e      	b.n	800af96 <_Balloc+0x6e>
 800af78:	2221      	movs	r2, #33	@ 0x21
 800af7a:	2104      	movs	r1, #4
 800af7c:	4620      	mov	r0, r4
 800af7e:	f000 fd99 	bl	800bab4 <_calloc_r>
 800af82:	69e3      	ldr	r3, [r4, #28]
 800af84:	60f0      	str	r0, [r6, #12]
 800af86:	68db      	ldr	r3, [r3, #12]
 800af88:	2b00      	cmp	r3, #0
 800af8a:	d1e4      	bne.n	800af56 <_Balloc+0x2e>
 800af8c:	2000      	movs	r0, #0
 800af8e:	bd70      	pop	{r4, r5, r6, pc}
 800af90:	6802      	ldr	r2, [r0, #0]
 800af92:	f843 2025 	str.w	r2, [r3, r5, lsl #2]
 800af96:	2300      	movs	r3, #0
 800af98:	e9c0 3303 	strd	r3, r3, [r0, #12]
 800af9c:	e7f7      	b.n	800af8e <_Balloc+0x66>
 800af9e:	bf00      	nop
 800afa0:	0800c2d9 	.word	0x0800c2d9
 800afa4:	0800c359 	.word	0x0800c359

0800afa8 <_Bfree>:
 800afa8:	b570      	push	{r4, r5, r6, lr}
 800afaa:	69c6      	ldr	r6, [r0, #28]
 800afac:	4605      	mov	r5, r0
 800afae:	460c      	mov	r4, r1
 800afb0:	b976      	cbnz	r6, 800afd0 <_Bfree+0x28>
 800afb2:	2010      	movs	r0, #16
 800afb4:	f7ff ff02 	bl	800adbc <malloc>
 800afb8:	4602      	mov	r2, r0
 800afba:	61e8      	str	r0, [r5, #28]
 800afbc:	b920      	cbnz	r0, 800afc8 <_Bfree+0x20>
 800afbe:	4b09      	ldr	r3, [pc, #36]	@ (800afe4 <_Bfree+0x3c>)
 800afc0:	4809      	ldr	r0, [pc, #36]	@ (800afe8 <_Bfree+0x40>)
 800afc2:	218f      	movs	r1, #143	@ 0x8f
 800afc4:	f000 fd58 	bl	800ba78 <__assert_func>
 800afc8:	e9c0 6601 	strd	r6, r6, [r0, #4]
 800afcc:	6006      	str	r6, [r0, #0]
 800afce:	60c6      	str	r6, [r0, #12]
 800afd0:	b13c      	cbz	r4, 800afe2 <_Bfree+0x3a>
 800afd2:	69eb      	ldr	r3, [r5, #28]
 800afd4:	6862      	ldr	r2, [r4, #4]
 800afd6:	68db      	ldr	r3, [r3, #12]
 800afd8:	f853 1022 	ldr.w	r1, [r3, r2, lsl #2]
 800afdc:	6021      	str	r1, [r4, #0]
 800afde:	f843 4022 	str.w	r4, [r3, r2, lsl #2]
 800afe2:	bd70      	pop	{r4, r5, r6, pc}
 800afe4:	0800c2d9 	.word	0x0800c2d9
 800afe8:	0800c359 	.word	0x0800c359

0800afec <__multadd>:
 800afec:	e92d 41f0 	stmdb	sp!, {r4, r5, r6, r7, r8, lr}
 800aff0:	690d      	ldr	r5, [r1, #16]
 800aff2:	4607      	mov	r7, r0
 800aff4:	460c      	mov	r4, r1
 800aff6:	461e      	mov	r6, r3
 800aff8:	f101 0c14 	add.w	ip, r1, #20
 800affc:	2000      	movs	r0, #0
 800affe:	f8dc 3000 	ldr.w	r3, [ip]
 800b002:	b299      	uxth	r1, r3
 800b004:	fb02 6101 	mla	r1, r2, r1, r6
 800b008:	0c1e      	lsrs	r6, r3, #16
 800b00a:	0c0b      	lsrs	r3, r1, #16
 800b00c:	fb02 3306 	mla	r3, r2, r6, r3
 800b010:	b289      	uxth	r1, r1
 800b012:	3001      	adds	r0, #1
 800b014:	eb01 4103 	add.w	r1, r1, r3, lsl #16
 800b018:	4285      	cmp	r5, r0
 800b01a:	f84c 1b04 	str.w	r1, [ip], #4
 800b01e:	ea4f 4613 	mov.w	r6, r3, lsr #16
 800b022:	dcec      	bgt.n	800affe <__multadd+0x12>
 800b024:	b30e      	cbz	r6, 800b06a <__multadd+0x7e>
 800b026:	68a3      	ldr	r3, [r4, #8]
 800b028:	42ab      	cmp	r3, r5
 800b02a:	dc19      	bgt.n	800b060 <__multadd+0x74>
 800b02c:	6861      	ldr	r1, [r4, #4]
 800b02e:	4638      	mov	r0, r7
 800b030:	3101      	adds	r1, #1
 800b032:	f7ff ff79 	bl	800af28 <_Balloc>
 800b036:	4680      	mov	r8, r0
 800b038:	b928      	cbnz	r0, 800b046 <__multadd+0x5a>
 800b03a:	4602      	mov	r2, r0
 800b03c:	4b0c      	ldr	r3, [pc, #48]	@ (800b070 <__multadd+0x84>)
 800b03e:	480d      	ldr	r0, [pc, #52]	@ (800b074 <__multadd+0x88>)
 800b040:	21ba      	movs	r1, #186	@ 0xba
 800b042:	f000 fd19 	bl	800ba78 <__assert_func>
 800b046:	6922      	ldr	r2, [r4, #16]
 800b048:	3202      	adds	r2, #2
 800b04a:	f104 010c 	add.w	r1, r4, #12
 800b04e:	0092      	lsls	r2, r2, #2
 800b050:	300c      	adds	r0, #12
 800b052:	f7ff f802 	bl	800a05a <memcpy>
 800b056:	4621      	mov	r1, r4
 800b058:	4638      	mov	r0, r7
 800b05a:	f7ff ffa5 	bl	800afa8 <_Bfree>
 800b05e:	4644      	mov	r4, r8
 800b060:	eb04 0385 	add.w	r3, r4, r5, lsl #2
 800b064:	3501      	adds	r5, #1
 800b066:	615e      	str	r6, [r3, #20]
 800b068:	6125      	str	r5, [r4, #16]
 800b06a:	4620      	mov	r0, r4
 800b06c:	e8bd 81f0 	ldmia.w	sp!, {r4, r5, r6, r7, r8, pc}
 800b070:	0800c348 	.word	0x0800c348
 800b074:	0800c359 	.word	0x0800c359

0800b078 <__hi0bits>:
 800b078:	f5b0 3f80 	cmp.w	r0, #65536	@ 0x10000
 800b07c:	4603      	mov	r3, r0
 800b07e:	bf36      	itet	cc
 800b080:	0403      	lslcc	r3, r0, #16
 800b082:	2000      	movcs	r0, #0
 800b084:	2010      	movcc	r0, #16
 800b086:	f1b3 7f80 	cmp.w	r3, #16777216	@ 0x1000000
 800b08a:	bf3c      	itt	cc
 800b08c:	021b      	lslcc	r3, r3, #8
 800b08e:	3008      	addcc	r0, #8
 800b090:	f1b3 5f80 	cmp.w	r3, #268435456	@ 0x10000000
 800b094:	bf3c      	itt	cc
 800b096:	011b      	lslcc	r3, r3, #4
 800b098:	3004      	addcc	r0, #4
 800b09a:	f1b3 4f80 	cmp.w	r3, #1073741824	@ 0x40000000
 800b09e:	bf3c      	itt	cc
 800b0a0:	009b      	lslcc	r3, r3, #2
 800b0a2:	3002      	addcc	r0, #2
 800b0a4:	2b00      	cmp	r3, #0
 800b0a6:	db05      	blt.n	800b0b4 <__hi0bits+0x3c>
 800b0a8:	f013 4f80 	tst.w	r3, #1073741824	@ 0x40000000
 800b0ac:	f100 0001 	add.w	r0, r0, #1
 800b0b0:	bf08      	it	eq
 800b0b2:	2020      	moveq	r0, #32
 800b0b4:	4770      	bx	lr

0800b0b6 <__lo0bits>:
 800b0b6:	6803      	ldr	r3, [r0, #0]
 800b0b8:	4602      	mov	r2, r0
 800b0ba:	f013 0007 	ands.w	r0, r3, #7
 800b0be:	d00b      	beq.n	800b0d8 <__lo0bits+0x22>
 800b0c0:	07d9      	lsls	r1, r3, #31
 800b0c2:	d421      	bmi.n	800b108 <__lo0bits+0x52>
 800b0c4:	0798      	lsls	r0, r3, #30
 800b0c6:	bf49      	itett	mi
 800b0c8:	085b      	lsrmi	r3, r3, #1
 800b0ca:	089b      	lsrpl	r3, r3, #2
 800b0cc:	2001      	movmi	r0, #1
 800b0ce:	6013      	strmi	r3, [r2, #0]
 800b0d0:	bf5c      	itt	pl
 800b0d2:	6013      	strpl	r3, [r2, #0]
 800b0d4:	2002      	movpl	r0, #2
 800b0d6:	4770      	bx	lr
 800b0d8:	b299      	uxth	r1, r3
 800b0da:	b909      	cbnz	r1, 800b0e0 <__lo0bits+0x2a>
 800b0dc:	0c1b      	lsrs	r3, r3, #16
 800b0de:	2010      	movs	r0, #16
 800b0e0:	b2d9      	uxtb	r1, r3
 800b0e2:	b909      	cbnz	r1, 800b0e8 <__lo0bits+0x32>
 800b0e4:	3008      	adds	r0, #8
 800b0e6:	0a1b      	lsrs	r3, r3, #8
 800b0e8:	0719      	lsls	r1, r3, #28
 800b0ea:	bf04      	itt	eq
 800b0ec:	091b      	lsreq	r3, r3, #4
 800b0ee:	3004      	addeq	r0, #4
 800b0f0:	0799      	lsls	r1, r3, #30
 800b0f2:	bf04      	itt	eq
 800b0f4:	089b      	lsreq	r3, r3, #2
 800b0f6:	3002      	addeq	r0, #2
 800b0f8:	07d9      	lsls	r1, r3, #31
 800b0fa:	d403      	bmi.n	800b104 <__lo0bits+0x4e>
 800b0fc:	085b      	lsrs	r3, r3, #1
 800b0fe:	f100 0001 	add.w	r0, r0, #1
 800b102:	d003      	beq.n	800b10c <__lo0bits+0x56>
 800b104:	6013      	str	r3, [r2, #0]
 800b106:	4770      	bx	lr
 800b108:	2000      	movs	r0, #0
 800b10a:	4770      	bx	lr
 800b10c:	2020      	movs	r0, #32
 800b10e:	4770      	bx	lr

0800b110 <__i2b>:
 800b110:	b510      	push	{r4, lr}
 800b112:	460c      	mov	r4, r1
 800b114:	2101      	movs	r1, #1
 800b116:	f7ff ff07 	bl	800af28 <_Balloc>
 800b11a:	4602      	mov	r2, r0
 800b11c:	b928      	cbnz	r0, 800b12a <__i2b+0x1a>
 800b11e:	4b05      	ldr	r3, [pc, #20]	@ (800b134 <__i2b+0x24>)
 800b120:	4805      	ldr	r0, [pc, #20]	@ (800b138 <__i2b+0x28>)
 800b122:	f240 1145 	movw	r1, #325	@ 0x145
 800b126:	f000 fca7 	bl	800ba78 <__assert_func>
 800b12a:	2301      	movs	r3, #1
 800b12c:	6144      	str	r4, [r0, #20]
 800b12e:	6103      	str	r3, [r0, #16]
 800b130:	bd10      	pop	{r4, pc}
 800b132:	bf00      	nop
 800b134:	0800c348 	.word	0x0800c348
 800b138:	0800c359 	.word	0x0800c359

0800b13c <__multiply>:
 800b13c:	e92d 4ff0 	stmdb	sp!, {r4, r5, r6, r7, r8, r9, sl, fp, lr}
 800b140:	4617      	mov	r7, r2
 800b142:	690a      	ldr	r2, [r1, #16]
 800b144:	693b      	ldr	r3, [r7, #16]
 800b146:	429a      	cmp	r2, r3
 800b148:	bfa8      	it	ge
 800b14a:	463b      	movge	r3, r7
 800b14c:	4689      	mov	r9, r1
 800b14e:	bfa4      	itt	ge
 800b150:	460f      	movge	r7, r1
 800b152:	4699      	movge	r9, r3
 800b154:	693d      	ldr	r5, [r7, #16]
 800b156:	f8d9 a010 	ldr.w	sl, [r9, #16]
 800b15a:	68bb      	ldr	r3, [r7, #8]
 800b15c:	6879      	ldr	r1, [r7, #4]
 800b15e:	eb05 060a 	add.w	r6, r5, sl
 800b162:	42b3      	cmp	r3, r6
 800b164:	b085      	sub	sp, #20
 800b166:	bfb8      	it	lt
 800b168:	3101      	addlt	r1, #1
 800b16a:	f7ff fedd 	bl	800af28 <_Balloc>
 800b16e:	b930      	cbnz	r0, 800b17e <__multiply+0x42>
 800b170:	4602      	mov	r2, r0
 800b172:	4b41      	ldr	r3, [pc, #260]	@ (800b278 <__multiply+0x13c>)
 800b174:	4841      	ldr	r0, [pc, #260]	@ (800b27c <__multiply+0x140>)
 800b176:	f44f 71b1 	mov.w	r1, #354	@ 0x162
 800b17a:	f000 fc7d 	bl	800ba78 <__assert_func>
 800b17e:	f100 0414 	add.w	r4, r0, #20
 800b182:	eb04 0e86 	add.w	lr, r4, r6, lsl #2
 800b186:	4623      	mov	r3, r4
 800b188:	2200      	movs	r2, #0
 800b18a:	4573      	cmp	r3, lr
 800b18c:	d320      	bcc.n	800b1d0 <__multiply+0x94>
 800b18e:	f107 0814 	add.w	r8, r7, #20
 800b192:	f109 0114 	add.w	r1, r9, #20
 800b196:	eb08 0585 	add.w	r5, r8, r5, lsl #2
 800b19a:	eb01 038a 	add.w	r3, r1, sl, lsl #2
 800b19e:	9302      	str	r3, [sp, #8]
 800b1a0:	1beb      	subs	r3, r5, r7
 800b1a2:	3b15      	subs	r3, #21
 800b1a4:	f023 0303 	bic.w	r3, r3, #3
 800b1a8:	3304      	adds	r3, #4
 800b1aa:	3715      	adds	r7, #21
 800b1ac:	42bd      	cmp	r5, r7
 800b1ae:	bf38      	it	cc
 800b1b0:	2304      	movcc	r3, #4
 800b1b2:	9301      	str	r3, [sp, #4]
 800b1b4:	9b02      	ldr	r3, [sp, #8]
 800b1b6:	9103      	str	r1, [sp, #12]
 800b1b8:	428b      	cmp	r3, r1
 800b1ba:	d80c      	bhi.n	800b1d6 <__multiply+0x9a>
 800b1bc:	2e00      	cmp	r6, #0
 800b1be:	dd03      	ble.n	800b1c8 <__multiply+0x8c>
 800b1c0:	f85e 3d04 	ldr.w	r3, [lr, #-4]!
 800b1c4:	2b00      	cmp	r3, #0
 800b1c6:	d055      	beq.n	800b274 <__multiply+0x138>
 800b1c8:	6106      	str	r6, [r0, #16]
 800b1ca:	b005      	add	sp, #20
 800b1cc:	e8bd 8ff0 	ldmia.w	sp!, {r4, r5, r6, r7, r8, r9, sl, fp, pc}
 800b1d0:	f843 2b04 	str.w	r2, [r3], #4
 800b1d4:	e7d9      	b.n	800b18a <__multiply+0x4e>
 800b1d6:	f8b1 a000 	ldrh.w	sl, [r1]
 800b1da:	f1ba 0f00 	cmp.w	sl, #0
 800b1de:	d01f      	beq.n	800b220 <__multiply+0xe4>
 800b1e0:	46c4      	mov	ip, r8
 800b1e2:	46a1      	mov	r9, r4
 800b1e4:	2700      	movs	r7, #0
 800b1e6:	f85c 2b04 	ldr.w	r2, [ip], #4
 800b1ea:	f8d9 3000 	ldr.w	r3, [r9]
 800b1ee:	fa1f fb82 	uxth.w	fp, r2
 800b1f2:	b29b      	uxth	r3, r3
 800b1f4:	fb0a 330b 	mla	r3, sl, fp, r3
 800b1f8:	443b      	add	r3, r7
 800b1fa:	f8d9 7000 	ldr.w	r7, [r9]
 800b1fe:	0c12      	lsrs	r2, r2, #16
 800b200:	0c3f      	lsrs	r7, r7, #16
 800b202:	fb0a 7202 	mla	r2, sl, r2, r7
 800b206:	eb02 4213 	add.w	r2, r2, r3, lsr #16
 800b20a:	b29b      	uxth	r3, r3
 800b20c:	ea43 4302 	orr.w	r3, r3, r2, lsl #16
 800b210:	4565      	cmp	r5, ip
 800b212:	f849 3b04 	str.w	r3, [r9], #4
 800b216:	ea4f 4712 	mov.w	r7, r2, lsr #16
 800b21a:	d8e4      	bhi.n	800b1e6 <__multiply+0xaa>
 800b21c:	9b01      	ldr	r3, [sp, #4]
 800b21e:	50e7      	str	r7, [r4, r3]
 800b220:	9b03      	ldr	r3, [sp, #12]
 800b222:	f8b3 9002 	ldrh.w	r9, [r3, #2]
 800b226:	3104      	adds	r1, #4
 800b228:	f1b9 0f00 	cmp.w	r9, #0
 800b22c:	d020      	beq.n	800b270 <__multiply+0x134>
 800b22e:	6823      	ldr	r3, [r4, #0]
 800b230:	4647      	mov	r7, r8
 800b232:	46a4      	mov	ip, r4
 800b234:	f04f 0a00 	mov.w	sl, #0
 800b238:	f8b7 b000 	ldrh.w	fp, [r7]
 800b23c:	f8bc 2002 	ldrh.w	r2, [ip, #2]
 800b240:	fb09 220b 	mla	r2, r9, fp, r2
 800b244:	4452      	add	r2, sl
 800b246:	b29b      	uxth	r3, r3
 800b248:	ea43 4302 	orr.w	r3, r3, r2, lsl #16
 800b24c:	f84c 3b04 	str.w	r3, [ip], #4
 800b250:	f857 3b04 	ldr.w	r3, [r7], #4
 800b254:	ea4f 4a13 	mov.w	sl, r3, lsr #16
 800b258:	f8bc 3000 	ldrh.w	r3, [ip]
 800b25c:	fb09 330a 	mla	r3, r9, sl, r3
 800b260:	eb03 4312 	add.w	r3, r3, r2, lsr #16
 800b264:	42bd      	cmp	r5, r7
 800b266:	ea4f 4a13 	mov.w	sl, r3, lsr #16
 800b26a:	d8e5      	bhi.n	800b238 <__multiply+0xfc>
 800b26c:	9a01      	ldr	r2, [sp, #4]
 800b26e:	50a3      	str	r3, [r4, r2]
 800b270:	3404      	adds	r4, #4
 800b272:	e79f      	b.n	800b1b4 <__multiply+0x78>
 800b274:	3e01      	subs	r6, #1
 800b276:	e7a1      	b.n	800b1bc <__multiply+0x80>
 800b278:	0800c348 	.word	0x0800c348
 800b27c:	0800c359 	.word	0x0800c359

0800b280 <__pow5mult>:
 800b280:	e92d 43f8 	stmdb	sp!, {r3, r4, r5, r6, r7, r8, r9, lr}
 800b284:	4615      	mov	r5, r2
 800b286:	f012 0203 	ands.w	r2, r2, #3
 800b28a:	4607      	mov	r7, r0
 800b28c:	460e      	mov	r6, r1
 800b28e:	d007      	beq.n	800b2a0 <__pow5mult+0x20>
 800b290:	4c25      	ldr	r4, [pc, #148]	@ (800b328 <__pow5mult+0xa8>)
 800b292:	3a01      	subs	r2, #1
 800b294:	2300      	movs	r3, #0
 800b296:	f854 2022 	ldr.w	r2, [r4, r2, lsl #2]
 800b29a:	f7ff fea7 	bl	800afec <__multadd>
 800b29e:	4606      	mov	r6, r0
 800b2a0:	10ad      	asrs	r5, r5, #2
 800b2a2:	d03d      	beq.n	800b320 <__pow5mult+0xa0>
 800b2a4:	69fc      	ldr	r4, [r7, #28]
 800b2a6:	b97c      	cbnz	r4, 800b2c8 <__pow5mult+0x48>
 800b2a8:	2010      	movs	r0, #16
 800b2aa:	f7ff fd87 	bl	800adbc <malloc>
 800b2ae:	4602      	mov	r2, r0
 800b2b0:	61f8      	str	r0, [r7, #28]
 800b2b2:	b928      	cbnz	r0, 800b2c0 <__pow5mult+0x40>
 800b2b4:	4b1d      	ldr	r3, [pc, #116]	@ (800b32c <__pow5mult+0xac>)
 800b2b6:	481e      	ldr	r0, [pc, #120]	@ (800b330 <__pow5mult+0xb0>)
 800b2b8:	f240 11b3 	movw	r1, #435	@ 0x1b3
 800b2bc:	f000 fbdc 	bl	800ba78 <__assert_func>
 800b2c0:	e9c0 4401 	strd	r4, r4, [r0, #4]
 800b2c4:	6004      	str	r4, [r0, #0]
 800b2c6:	60c4      	str	r4, [r0, #12]
 800b2c8:	f8d7 801c 	ldr.w	r8, [r7, #28]
 800b2cc:	f8d8 4008 	ldr.w	r4, [r8, #8]
 800b2d0:	b94c      	cbnz	r4, 800b2e6 <__pow5mult+0x66>
 800b2d2:	f240 2171 	movw	r1, #625	@ 0x271
 800b2d6:	4638      	mov	r0, r7
 800b2d8:	f7ff ff1a 	bl	800b110 <__i2b>
 800b2dc:	2300      	movs	r3, #0
 800b2de:	f8c8 0008 	str.w	r0, [r8, #8]
 800b2e2:	4604      	mov	r4, r0
 800b2e4:	6003      	str	r3, [r0, #0]
 800b2e6:	f04f 0900 	mov.w	r9, #0
 800b2ea:	07eb      	lsls	r3, r5, #31
 800b2ec:	d50a      	bpl.n	800b304 <__pow5mult+0x84>
 800b2ee:	4631      	mov	r1, r6
 800b2f0:	4622      	mov	r2, r4
 800b2f2:	4638      	mov	r0, r7
 800b2f4:	f7ff ff22 	bl	800b13c <__multiply>
 800b2f8:	4631      	mov	r1, r6
 800b2fa:	4680      	mov	r8, r0
 800b2fc:	4638      	mov	r0, r7
 800b2fe:	f7ff fe53 	bl	800afa8 <_Bfree>
 800b302:	4646      	mov	r6, r8
 800b304:	106d      	asrs	r5, r5, #1
 800b306:	d00b      	beq.n	800b320 <__pow5mult+0xa0>
 800b308:	6820      	ldr	r0, [r4, #0]
 800b30a:	b938      	cbnz	r0, 800b31c <__pow5mult+0x9c>
 800b30c:	4622      	mov	r2, r4
 800b30e:	4621      	mov	r1, r4
 800b310:	4638      	mov	r0, r7
 800b312:	f7ff ff13 	bl	800b13c <__multiply>
 800b316:	6020      	str	r0, [r4, #0]
 800b318:	f8c0 9000 	str.w	r9, [r0]
 800b31c:	4604      	mov	r4, r0
 800b31e:	e7e4      	b.n	800b2ea <__pow5mult+0x6a>
 800b320:	4630      	mov	r0, r6
 800b322:	e8bd 83f8 	ldmia.w	sp!, {r3, r4, r5, r6, r7, r8, r9, pc}
 800b326:	bf00      	nop
 800b328:	0800c7fc 	.word	0x0800c7fc
 800b32c:	0800c2d9 	.word	0x0800c2d9
 800b330:	0800c359 	.word	0x0800c359

0800b334 <__lshift>:
 800b334:	e92d 47f0 	stmdb	sp!, {r4, r5, r6, r7, r8, r9, sl, lr}
 800b338:	460c      	mov	r4, r1
 800b33a:	6849      	ldr	r1, [r1, #4]
 800b33c:	6923      	ldr	r3, [r4, #16]
 800b33e:	eb03 1862 	add.w	r8, r3, r2, asr #5
 800b342:	68a3      	ldr	r3, [r4, #8]
 800b344:	4607      	mov	r7, r0
 800b346:	4691      	mov	r9, r2
 800b348:	ea4f 1a62 	mov.w	sl, r2, asr #5
 800b34c:	f108 0601 	add.w	r6, r8, #1
 800b350:	42b3      	cmp	r3, r6
 800b352:	db0b      	blt.n	800b36c <__lshift+0x38>
 800b354:	4638      	mov	r0, r7
 800b356:	f7ff fde7 	bl	800af28 <_Balloc>
 800b35a:	4605      	mov	r5, r0
 800b35c:	b948      	cbnz	r0, 800b372 <__lshift+0x3e>
 800b35e:	4602      	mov	r2, r0
 800b360:	4b28      	ldr	r3, [pc, #160]	@ (800b404 <__lshift+0xd0>)
 800b362:	4829      	ldr	r0, [pc, #164]	@ (800b408 <__lshift+0xd4>)
 800b364:	f44f 71ef 	mov.w	r1, #478	@ 0x1de
 800b368:	f000 fb86 	bl	800ba78 <__assert_func>
 800b36c:	3101      	adds	r1, #1
 800b36e:	005b      	lsls	r3, r3, #1
 800b370:	e7ee      	b.n	800b350 <__lshift+0x1c>
 800b372:	2300      	movs	r3, #0
 800b374:	f100 0114 	add.w	r1, r0, #20
 800b378:	f100 0210 	add.w	r2, r0, #16
 800b37c:	4618      	mov	r0, r3
 800b37e:	4553      	cmp	r3, sl
 800b380:	db33      	blt.n	800b3ea <__lshift+0xb6>
 800b382:	6920      	ldr	r0, [r4, #16]
 800b384:	ea2a 7aea 	bic.w	sl, sl, sl, asr #31
 800b388:	f104 0314 	add.w	r3, r4, #20
 800b38c:	f019 091f 	ands.w	r9, r9, #31
 800b390:	eb01 018a 	add.w	r1, r1, sl, lsl #2
 800b394:	eb03 0c80 	add.w	ip, r3, r0, lsl #2
 800b398:	d02b      	beq.n	800b3f2 <__lshift+0xbe>
 800b39a:	f1c9 0e20 	rsb	lr, r9, #32
 800b39e:	468a      	mov	sl, r1
 800b3a0:	2200      	movs	r2, #0
 800b3a2:	6818      	ldr	r0, [r3, #0]
 800b3a4:	fa00 f009 	lsl.w	r0, r0, r9
 800b3a8:	4310      	orrs	r0, r2
 800b3aa:	f84a 0b04 	str.w	r0, [sl], #4
 800b3ae:	f853 2b04 	ldr.w	r2, [r3], #4
 800b3b2:	459c      	cmp	ip, r3
 800b3b4:	fa22 f20e 	lsr.w	r2, r2, lr
 800b3b8:	d8f3      	bhi.n	800b3a2 <__lshift+0x6e>
 800b3ba:	ebac 0304 	sub.w	r3, ip, r4
 800b3be:	3b15      	subs	r3, #21
 800b3c0:	f023 0303 	bic.w	r3, r3, #3
 800b3c4:	3304      	adds	r3, #4
 800b3c6:	f104 0015 	add.w	r0, r4, #21
 800b3ca:	4560      	cmp	r0, ip
 800b3cc:	bf88      	it	hi
 800b3ce:	2304      	movhi	r3, #4
 800b3d0:	50ca      	str	r2, [r1, r3]
 800b3d2:	b10a      	cbz	r2, 800b3d8 <__lshift+0xa4>
 800b3d4:	f108 0602 	add.w	r6, r8, #2
 800b3d8:	3e01      	subs	r6, #1
 800b3da:	4638      	mov	r0, r7
 800b3dc:	612e      	str	r6, [r5, #16]
 800b3de:	4621      	mov	r1, r4
 800b3e0:	f7ff fde2 	bl	800afa8 <_Bfree>
 800b3e4:	4628      	mov	r0, r5
 800b3e6:	e8bd 87f0 	ldmia.w	sp!, {r4, r5, r6, r7, r8, r9, sl, pc}
 800b3ea:	f842 0f04 	str.w	r0, [r2, #4]!
 800b3ee:	3301      	adds	r3, #1
 800b3f0:	e7c5      	b.n	800b37e <__lshift+0x4a>
 800b3f2:	3904      	subs	r1, #4
 800b3f4:	f853 2b04 	ldr.w	r2, [r3], #4
 800b3f8:	f841 2f04 	str.w	r2, [r1, #4]!
 800b3fc:	459c      	cmp	ip, r3
 800b3fe:	d8f9      	bhi.n	800b3f4 <__lshift+0xc0>
 800b400:	e7ea      	b.n	800b3d8 <__lshift+0xa4>
 800b402:	bf00      	nop
 800b404:	0800c348 	.word	0x0800c348
 800b408:	0800c359 	.word	0x0800c359

0800b40c <__mcmp>:
 800b40c:	690a      	ldr	r2, [r1, #16]
 800b40e:	4603      	mov	r3, r0
 800b410:	6900      	ldr	r0, [r0, #16]
 800b412:	1a80      	subs	r0, r0, r2
 800b414:	b530      	push	{r4, r5, lr}
 800b416:	d10e      	bne.n	800b436 <__mcmp+0x2a>
 800b418:	3314      	adds	r3, #20
 800b41a:	3114      	adds	r1, #20
 800b41c:	eb03 0482 	add.w	r4, r3, r2, lsl #2
 800b420:	eb01 0182 	add.w	r1, r1, r2, lsl #2
 800b424:	f854 5d04 	ldr.w	r5, [r4, #-4]!
 800b428:	f851 2d04 	ldr.w	r2, [r1, #-4]!
 800b42c:	4295      	cmp	r5, r2
 800b42e:	d003      	beq.n	800b438 <__mcmp+0x2c>
 800b430:	d205      	bcs.n	800b43e <__mcmp+0x32>
 800b432:	f04f 30ff 	mov.w	r0, #4294967295
 800b436:	bd30      	pop	{r4, r5, pc}
 800b438:	42a3      	cmp	r3, r4
 800b43a:	d3f3      	bcc.n	800b424 <__mcmp+0x18>
 800b43c:	e7fb      	b.n	800b436 <__mcmp+0x2a>
 800b43e:	2001      	movs	r0, #1
 800b440:	e7f9      	b.n	800b436 <__mcmp+0x2a>
	...

0800b444 <__mdiff>:
 800b444:	e92d 4ff7 	stmdb	sp!, {r0, r1, r2, r4, r5, r6, r7, r8, r9, sl, fp, lr}
 800b448:	4689      	mov	r9, r1
 800b44a:	4606      	mov	r6, r0
 800b44c:	4611      	mov	r1, r2
 800b44e:	4648      	mov	r0, r9
 800b450:	4614      	mov	r4, r2
 800b452:	f7ff ffdb 	bl	800b40c <__mcmp>
 800b456:	1e05      	subs	r5, r0, #0
 800b458:	d112      	bne.n	800b480 <__mdiff+0x3c>
 800b45a:	4629      	mov	r1, r5
 800b45c:	4630      	mov	r0, r6
 800b45e:	f7ff fd63 	bl	800af28 <_Balloc>
 800b462:	4602      	mov	r2, r0
 800b464:	b928      	cbnz	r0, 800b472 <__mdiff+0x2e>
 800b466:	4b3f      	ldr	r3, [pc, #252]	@ (800b564 <__mdiff+0x120>)
 800b468:	f240 2137 	movw	r1, #567	@ 0x237
 800b46c:	483e      	ldr	r0, [pc, #248]	@ (800b568 <__mdiff+0x124>)
 800b46e:	f000 fb03 	bl	800ba78 <__assert_func>
 800b472:	2301      	movs	r3, #1
 800b474:	e9c0 3504 	strd	r3, r5, [r0, #16]
 800b478:	4610      	mov	r0, r2
 800b47a:	b003      	add	sp, #12
 800b47c:	e8bd 8ff0 	ldmia.w	sp!, {r4, r5, r6, r7, r8, r9, sl, fp, pc}
 800b480:	bfbc      	itt	lt
 800b482:	464b      	movlt	r3, r9
 800b484:	46a1      	movlt	r9, r4
 800b486:	4630      	mov	r0, r6
 800b488:	f8d9 1004 	ldr.w	r1, [r9, #4]
 800b48c:	bfba      	itte	lt
 800b48e:	461c      	movlt	r4, r3
 800b490:	2501      	movlt	r5, #1
 800b492:	2500      	movge	r5, #0
 800b494:	f7ff fd48 	bl	800af28 <_Balloc>
 800b498:	4602      	mov	r2, r0
 800b49a:	b918      	cbnz	r0, 800b4a4 <__mdiff+0x60>
 800b49c:	4b31      	ldr	r3, [pc, #196]	@ (800b564 <__mdiff+0x120>)
 800b49e:	f240 2145 	movw	r1, #581	@ 0x245
 800b4a2:	e7e3      	b.n	800b46c <__mdiff+0x28>
 800b4a4:	f8d9 7010 	ldr.w	r7, [r9, #16]
 800b4a8:	6926      	ldr	r6, [r4, #16]
 800b4aa:	60c5      	str	r5, [r0, #12]
 800b4ac:	f109 0310 	add.w	r3, r9, #16
 800b4b0:	f109 0514 	add.w	r5, r9, #20
 800b4b4:	f104 0e14 	add.w	lr, r4, #20
 800b4b8:	f100 0b14 	add.w	fp, r0, #20
 800b4bc:	eb05 0887 	add.w	r8, r5, r7, lsl #2
 800b4c0:	eb0e 0686 	add.w	r6, lr, r6, lsl #2
 800b4c4:	9301      	str	r3, [sp, #4]
 800b4c6:	46d9      	mov	r9, fp
 800b4c8:	f04f 0c00 	mov.w	ip, #0
 800b4cc:	9b01      	ldr	r3, [sp, #4]
 800b4ce:	f85e 0b04 	ldr.w	r0, [lr], #4
 800b4d2:	f853 af04 	ldr.w	sl, [r3, #4]!
 800b4d6:	9301      	str	r3, [sp, #4]
 800b4d8:	fa1f f38a 	uxth.w	r3, sl
 800b4dc:	4619      	mov	r1, r3
 800b4de:	b283      	uxth	r3, r0
 800b4e0:	1acb      	subs	r3, r1, r3
 800b4e2:	0c00      	lsrs	r0, r0, #16
 800b4e4:	4463      	add	r3, ip
 800b4e6:	ebc0 401a 	rsb	r0, r0, sl, lsr #16
 800b4ea:	eb00 4023 	add.w	r0, r0, r3, asr #16
 800b4ee:	b29b      	uxth	r3, r3
 800b4f0:	ea43 4300 	orr.w	r3, r3, r0, lsl #16
 800b4f4:	4576      	cmp	r6, lr
 800b4f6:	f849 3b04 	str.w	r3, [r9], #4
 800b4fa:	ea4f 4c20 	mov.w	ip, r0, asr #16
 800b4fe:	d8e5      	bhi.n	800b4cc <__mdiff+0x88>
 800b500:	1b33      	subs	r3, r6, r4
 800b502:	3b15      	subs	r3, #21
 800b504:	f023 0303 	bic.w	r3, r3, #3
 800b508:	3415      	adds	r4, #21
 800b50a:	3304      	adds	r3, #4
 800b50c:	42a6      	cmp	r6, r4
 800b50e:	bf38      	it	cc
 800b510:	2304      	movcc	r3, #4
 800b512:	441d      	add	r5, r3
 800b514:	445b      	add	r3, fp
 800b516:	461e      	mov	r6, r3
 800b518:	462c      	mov	r4, r5
 800b51a:	4544      	cmp	r4, r8
 800b51c:	d30e      	bcc.n	800b53c <__mdiff+0xf8>
 800b51e:	f108 0103 	add.w	r1, r8, #3
 800b522:	1b49      	subs	r1, r1, r5
 800b524:	f021 0103 	bic.w	r1, r1, #3
 800b528:	3d03      	subs	r5, #3
 800b52a:	45a8      	cmp	r8, r5
 800b52c:	bf38      	it	cc
 800b52e:	2100      	movcc	r1, #0
 800b530:	440b      	add	r3, r1
 800b532:	f853 1d04 	ldr.w	r1, [r3, #-4]!
 800b536:	b191      	cbz	r1, 800b55e <__mdiff+0x11a>
 800b538:	6117      	str	r7, [r2, #16]
 800b53a:	e79d      	b.n	800b478 <__mdiff+0x34>
 800b53c:	f854 1b04 	ldr.w	r1, [r4], #4
 800b540:	46e6      	mov	lr, ip
 800b542:	0c08      	lsrs	r0, r1, #16
 800b544:	fa1c fc81 	uxtah	ip, ip, r1
 800b548:	4471      	add	r1, lr
 800b54a:	eb00 402c 	add.w	r0, r0, ip, asr #16
 800b54e:	b289      	uxth	r1, r1
 800b550:	ea41 4100 	orr.w	r1, r1, r0, lsl #16
 800b554:	f846 1b04 	str.w	r1, [r6], #4
 800b558:	ea4f 4c20 	mov.w	ip, r0, asr #16
 800b55c:	e7dd      	b.n	800b51a <__mdiff+0xd6>
 800b55e:	3f01      	subs	r7, #1
 800b560:	e7e7      	b.n	800b532 <__mdiff+0xee>
 800b562:	bf00      	nop
 800b564:	0800c348 	.word	0x0800c348
 800b568:	0800c359 	.word	0x0800c359

0800b56c <__d2b>:
 800b56c:	e92d 43f7 	stmdb	sp!, {r0, r1, r2, r4, r5, r6, r7, r8, r9, lr}
 800b570:	460f      	mov	r7, r1
 800b572:	2101      	movs	r1, #1
 800b574:	ec59 8b10 	vmov	r8, r9, d0
 800b578:	4616      	mov	r6, r2
 800b57a:	f7ff fcd5 	bl	800af28 <_Balloc>
 800b57e:	4604      	mov	r4, r0
 800b580:	b930      	cbnz	r0, 800b590 <__d2b+0x24>
 800b582:	4602      	mov	r2, r0
 800b584:	4b23      	ldr	r3, [pc, #140]	@ (800b614 <__d2b+0xa8>)
 800b586:	4824      	ldr	r0, [pc, #144]	@ (800b618 <__d2b+0xac>)
 800b588:	f240 310f 	movw	r1, #783	@ 0x30f
 800b58c:	f000 fa74 	bl	800ba78 <__assert_func>
 800b590:	f3c9 550a 	ubfx	r5, r9, #20, #11
 800b594:	f3c9 0313 	ubfx	r3, r9, #0, #20
 800b598:	b10d      	cbz	r5, 800b59e <__d2b+0x32>
 800b59a:	f443 1380 	orr.w	r3, r3, #1048576	@ 0x100000
 800b59e:	9301      	str	r3, [sp, #4]
 800b5a0:	f1b8 0300 	subs.w	r3, r8, #0
 800b5a4:	d023      	beq.n	800b5ee <__d2b+0x82>
 800b5a6:	4668      	mov	r0, sp
 800b5a8:	9300      	str	r3, [sp, #0]
 800b5aa:	f7ff fd84 	bl	800b0b6 <__lo0bits>
 800b5ae:	e9dd 1200 	ldrd	r1, r2, [sp]
 800b5b2:	b1d0      	cbz	r0, 800b5ea <__d2b+0x7e>
 800b5b4:	f1c0 0320 	rsb	r3, r0, #32
 800b5b8:	fa02 f303 	lsl.w	r3, r2, r3
 800b5bc:	430b      	orrs	r3, r1
 800b5be:	40c2      	lsrs	r2, r0
 800b5c0:	6163      	str	r3, [r4, #20]
 800b5c2:	9201      	str	r2, [sp, #4]
 800b5c4:	9b01      	ldr	r3, [sp, #4]
 800b5c6:	61a3      	str	r3, [r4, #24]
 800b5c8:	2b00      	cmp	r3, #0
 800b5ca:	bf0c      	ite	eq
 800b5cc:	2201      	moveq	r2, #1
 800b5ce:	2202      	movne	r2, #2
 800b5d0:	6122      	str	r2, [r4, #16]
 800b5d2:	b1a5      	cbz	r5, 800b5fe <__d2b+0x92>
 800b5d4:	f2a5 4533 	subw	r5, r5, #1075	@ 0x433
 800b5d8:	4405      	add	r5, r0
 800b5da:	603d      	str	r5, [r7, #0]
 800b5dc:	f1c0 0035 	rsb	r0, r0, #53	@ 0x35
 800b5e0:	6030      	str	r0, [r6, #0]
 800b5e2:	4620      	mov	r0, r4
 800b5e4:	b003      	add	sp, #12
 800b5e6:	e8bd 83f0 	ldmia.w	sp!, {r4, r5, r6, r7, r8, r9, pc}
 800b5ea:	6161      	str	r1, [r4, #20]
 800b5ec:	e7ea      	b.n	800b5c4 <__d2b+0x58>
 800b5ee:	a801      	add	r0, sp, #4
 800b5f0:	f7ff fd61 	bl	800b0b6 <__lo0bits>
 800b5f4:	9b01      	ldr	r3, [sp, #4]
 800b5f6:	6163      	str	r3, [r4, #20]
 800b5f8:	3020      	adds	r0, #32
 800b5fa:	2201      	movs	r2, #1
 800b5fc:	e7e8      	b.n	800b5d0 <__d2b+0x64>
 800b5fe:	eb04 0382 	add.w	r3, r4, r2, lsl #2
 800b602:	f2a0 4032 	subw	r0, r0, #1074	@ 0x432
 800b606:	6038      	str	r0, [r7, #0]
 800b608:	6918      	ldr	r0, [r3, #16]
 800b60a:	f7ff fd35 	bl	800b078 <__hi0bits>
 800b60e:	ebc0 1042 	rsb	r0, r0, r2, lsl #5
 800b612:	e7e5      	b.n	800b5e0 <__d2b+0x74>
 800b614:	0800c348 	.word	0x0800c348
 800b618:	0800c359 	.word	0x0800c359

0800b61c <__ssputs_r>:
 800b61c:	e92d 47f0 	stmdb	sp!, {r4, r5, r6, r7, r8, r9, sl, lr}
 800b620:	688e      	ldr	r6, [r1, #8]
 800b622:	461f      	mov	r7, r3
 800b624:	42be      	cmp	r6, r7
 800b626:	680b      	ldr	r3, [r1, #0]
 800b628:	4682      	mov	sl, r0
 800b62a:	460c      	mov	r4, r1
 800b62c:	4690      	mov	r8, r2
 800b62e:	d82d      	bhi.n	800b68c <__ssputs_r+0x70>
 800b630:	f9b1 200c 	ldrsh.w	r2, [r1, #12]
 800b634:	f412 6f90 	tst.w	r2, #1152	@ 0x480
 800b638:	d026      	beq.n	800b688 <__ssputs_r+0x6c>
 800b63a:	6965      	ldr	r5, [r4, #20]
 800b63c:	6909      	ldr	r1, [r1, #16]
 800b63e:	eb05 0545 	add.w	r5, r5, r5, lsl #1
 800b642:	eba3 0901 	sub.w	r9, r3, r1
 800b646:	eb05 75d5 	add.w	r5, r5, r5, lsr #31
 800b64a:	1c7b      	adds	r3, r7, #1
 800b64c:	444b      	add	r3, r9
 800b64e:	106d      	asrs	r5, r5, #1
 800b650:	429d      	cmp	r5, r3
 800b652:	bf38      	it	cc
 800b654:	461d      	movcc	r5, r3
 800b656:	0553      	lsls	r3, r2, #21
 800b658:	d527      	bpl.n	800b6aa <__ssputs_r+0x8e>
 800b65a:	4629      	mov	r1, r5
 800b65c:	f7ff fbd8 	bl	800ae10 <_malloc_r>
 800b660:	4606      	mov	r6, r0
 800b662:	b360      	cbz	r0, 800b6be <__ssputs_r+0xa2>
 800b664:	6921      	ldr	r1, [r4, #16]
 800b666:	464a      	mov	r2, r9
 800b668:	f7fe fcf7 	bl	800a05a <memcpy>
 800b66c:	89a3      	ldrh	r3, [r4, #12]
 800b66e:	f423 6390 	bic.w	r3, r3, #1152	@ 0x480
 800b672:	f043 0380 	orr.w	r3, r3, #128	@ 0x80
 800b676:	81a3      	strh	r3, [r4, #12]
 800b678:	6126      	str	r6, [r4, #16]
 800b67a:	6165      	str	r5, [r4, #20]
 800b67c:	444e      	add	r6, r9
 800b67e:	eba5 0509 	sub.w	r5, r5, r9
 800b682:	6026      	str	r6, [r4, #0]
 800b684:	60a5      	str	r5, [r4, #8]
 800b686:	463e      	mov	r6, r7
 800b688:	42be      	cmp	r6, r7
 800b68a:	d900      	bls.n	800b68e <__ssputs_r+0x72>
 800b68c:	463e      	mov	r6, r7
 800b68e:	6820      	ldr	r0, [r4, #0]
 800b690:	4632      	mov	r2, r6
 800b692:	4641      	mov	r1, r8
 800b694:	f000 f9c6 	bl	800ba24 <memmove>
 800b698:	68a3      	ldr	r3, [r4, #8]
 800b69a:	1b9b      	subs	r3, r3, r6
 800b69c:	60a3      	str	r3, [r4, #8]
 800b69e:	6823      	ldr	r3, [r4, #0]
 800b6a0:	4433      	add	r3, r6
 800b6a2:	6023      	str	r3, [r4, #0]
 800b6a4:	2000      	movs	r0, #0
 800b6a6:	e8bd 87f0 	ldmia.w	sp!, {r4, r5, r6, r7, r8, r9, sl, pc}
 800b6aa:	462a      	mov	r2, r5
 800b6ac:	f000 fa28 	bl	800bb00 <_realloc_r>
 800b6b0:	4606      	mov	r6, r0
 800b6b2:	2800      	cmp	r0, #0
 800b6b4:	d1e0      	bne.n	800b678 <__ssputs_r+0x5c>
 800b6b6:	6921      	ldr	r1, [r4, #16]
 800b6b8:	4650      	mov	r0, sl
 800b6ba:	f7ff fb35 	bl	800ad28 <_free_r>
 800b6be:	230c      	movs	r3, #12
 800b6c0:	f8ca 3000 	str.w	r3, [sl]
 800b6c4:	89a3      	ldrh	r3, [r4, #12]
 800b6c6:	f043 0340 	orr.w	r3, r3, #64	@ 0x40
 800b6ca:	81a3      	strh	r3, [r4, #12]
 800b6cc:	f04f 30ff 	mov.w	r0, #4294967295
 800b6d0:	e7e9      	b.n	800b6a6 <__ssputs_r+0x8a>
	...

0800b6d4 <_svfiprintf_r>:
 800b6d4:	e92d 4ff0 	stmdb	sp!, {r4, r5, r6, r7, r8, r9, sl, fp, lr}
 800b6d8:	4698      	mov	r8, r3
 800b6da:	898b      	ldrh	r3, [r1, #12]
 800b6dc:	061b      	lsls	r3, r3, #24
 800b6de:	b09d      	sub	sp, #116	@ 0x74
 800b6e0:	4607      	mov	r7, r0
 800b6e2:	460d      	mov	r5, r1
 800b6e4:	4614      	mov	r4, r2
 800b6e6:	d510      	bpl.n	800b70a <_svfiprintf_r+0x36>
 800b6e8:	690b      	ldr	r3, [r1, #16]
 800b6ea:	b973      	cbnz	r3, 800b70a <_svfiprintf_r+0x36>
 800b6ec:	2140      	movs	r1, #64	@ 0x40
 800b6ee:	f7ff fb8f 	bl	800ae10 <_malloc_r>
 800b6f2:	6028      	str	r0, [r5, #0]
 800b6f4:	6128      	str	r0, [r5, #16]
 800b6f6:	b930      	cbnz	r0, 800b706 <_svfiprintf_r+0x32>
 800b6f8:	230c      	movs	r3, #12
 800b6fa:	603b      	str	r3, [r7, #0]
 800b6fc:	f04f 30ff 	mov.w	r0, #4294967295
 800b700:	b01d      	add	sp, #116	@ 0x74
 800b702:	e8bd 8ff0 	ldmia.w	sp!, {r4, r5, r6, r7, r8, r9, sl, fp, pc}
 800b706:	2340      	movs	r3, #64	@ 0x40
 800b708:	616b      	str	r3, [r5, #20]
 800b70a:	2300      	movs	r3, #0
 800b70c:	9309      	str	r3, [sp, #36]	@ 0x24
 800b70e:	2320      	movs	r3, #32
 800b710:	f88d 3029 	strb.w	r3, [sp, #41]	@ 0x29
 800b714:	f8cd 800c 	str.w	r8, [sp, #12]
 800b718:	2330      	movs	r3, #48	@ 0x30
 800b71a:	f8df 819c 	ldr.w	r8, [pc, #412]	@ 800b8b8 <_svfiprintf_r+0x1e4>
 800b71e:	f88d 302a 	strb.w	r3, [sp, #42]	@ 0x2a
 800b722:	f04f 0901 	mov.w	r9, #1
 800b726:	4623      	mov	r3, r4
 800b728:	469a      	mov	sl, r3
 800b72a:	f813 2b01 	ldrb.w	r2, [r3], #1
 800b72e:	b10a      	cbz	r2, 800b734 <_svfiprintf_r+0x60>
 800b730:	2a25      	cmp	r2, #37	@ 0x25
 800b732:	d1f9      	bne.n	800b728 <_svfiprintf_r+0x54>
 800b734:	ebba 0b04 	subs.w	fp, sl, r4
 800b738:	d00b      	beq.n	800b752 <_svfiprintf_r+0x7e>
 800b73a:	465b      	mov	r3, fp
 800b73c:	4622      	mov	r2, r4
 800b73e:	4629      	mov	r1, r5
 800b740:	4638      	mov	r0, r7
 800b742:	f7ff ff6b 	bl	800b61c <__ssputs_r>
 800b746:	3001      	adds	r0, #1
 800b748:	f000 80a7 	beq.w	800b89a <_svfiprintf_r+0x1c6>
 800b74c:	9a09      	ldr	r2, [sp, #36]	@ 0x24
 800b74e:	445a      	add	r2, fp
 800b750:	9209      	str	r2, [sp, #36]	@ 0x24
 800b752:	f89a 3000 	ldrb.w	r3, [sl]
 800b756:	2b00      	cmp	r3, #0
 800b758:	f000 809f 	beq.w	800b89a <_svfiprintf_r+0x1c6>
 800b75c:	2300      	movs	r3, #0
 800b75e:	f04f 32ff 	mov.w	r2, #4294967295
 800b762:	e9cd 2305 	strd	r2, r3, [sp, #20]
 800b766:	f10a 0a01 	add.w	sl, sl, #1
 800b76a:	9304      	str	r3, [sp, #16]
 800b76c:	9307      	str	r3, [sp, #28]
 800b76e:	f88d 3053 	strb.w	r3, [sp, #83]	@ 0x53
 800b772:	931a      	str	r3, [sp, #104]	@ 0x68
 800b774:	4654      	mov	r4, sl
 800b776:	2205      	movs	r2, #5
 800b778:	f814 1b01 	ldrb.w	r1, [r4], #1
 800b77c:	484e      	ldr	r0, [pc, #312]	@ (800b8b8 <_svfiprintf_r+0x1e4>)
 800b77e:	f7f4 fd2f 	bl	80001e0 <memchr>
 800b782:	9a04      	ldr	r2, [sp, #16]
 800b784:	b9d8      	cbnz	r0, 800b7be <_svfiprintf_r+0xea>
 800b786:	06d0      	lsls	r0, r2, #27
 800b788:	bf44      	itt	mi
 800b78a:	2320      	movmi	r3, #32
 800b78c:	f88d 3053 	strbmi.w	r3, [sp, #83]	@ 0x53
 800b790:	0711      	lsls	r1, r2, #28
 800b792:	bf44      	itt	mi
 800b794:	232b      	movmi	r3, #43	@ 0x2b
 800b796:	f88d 3053 	strbmi.w	r3, [sp, #83]	@ 0x53
 800b79a:	f89a 3000 	ldrb.w	r3, [sl]
 800b79e:	2b2a      	cmp	r3, #42	@ 0x2a
 800b7a0:	d015      	beq.n	800b7ce <_svfiprintf_r+0xfa>
 800b7a2:	9a07      	ldr	r2, [sp, #28]
 800b7a4:	4654      	mov	r4, sl
 800b7a6:	2000      	movs	r0, #0
 800b7a8:	f04f 0c0a 	mov.w	ip, #10
 800b7ac:	4621      	mov	r1, r4
 800b7ae:	f811 3b01 	ldrb.w	r3, [r1], #1
 800b7b2:	3b30      	subs	r3, #48	@ 0x30
 800b7b4:	2b09      	cmp	r3, #9
 800b7b6:	d94b      	bls.n	800b850 <_svfiprintf_r+0x17c>
 800b7b8:	b1b0      	cbz	r0, 800b7e8 <_svfiprintf_r+0x114>
 800b7ba:	9207      	str	r2, [sp, #28]
 800b7bc:	e014      	b.n	800b7e8 <_svfiprintf_r+0x114>
 800b7be:	eba0 0308 	sub.w	r3, r0, r8
 800b7c2:	fa09 f303 	lsl.w	r3, r9, r3
 800b7c6:	4313      	orrs	r3, r2
 800b7c8:	9304      	str	r3, [sp, #16]
 800b7ca:	46a2      	mov	sl, r4
 800b7cc:	e7d2      	b.n	800b774 <_svfiprintf_r+0xa0>
 800b7ce:	9b03      	ldr	r3, [sp, #12]
 800b7d0:	1d19      	adds	r1, r3, #4
 800b7d2:	681b      	ldr	r3, [r3, #0]
 800b7d4:	9103      	str	r1, [sp, #12]
 800b7d6:	2b00      	cmp	r3, #0
 800b7d8:	bfbb      	ittet	lt
 800b7da:	425b      	neglt	r3, r3
 800b7dc:	f042 0202 	orrlt.w	r2, r2, #2
 800b7e0:	9307      	strge	r3, [sp, #28]
 800b7e2:	9307      	strlt	r3, [sp, #28]
 800b7e4:	bfb8      	it	lt
 800b7e6:	9204      	strlt	r2, [sp, #16]
 800b7e8:	7823      	ldrb	r3, [r4, #0]
 800b7ea:	2b2e      	cmp	r3, #46	@ 0x2e
 800b7ec:	d10a      	bne.n	800b804 <_svfiprintf_r+0x130>
 800b7ee:	7863      	ldrb	r3, [r4, #1]
 800b7f0:	2b2a      	cmp	r3, #42	@ 0x2a
 800b7f2:	d132      	bne.n	800b85a <_svfiprintf_r+0x186>
 800b7f4:	9b03      	ldr	r3, [sp, #12]
 800b7f6:	1d1a      	adds	r2, r3, #4
 800b7f8:	681b      	ldr	r3, [r3, #0]
 800b7fa:	9203      	str	r2, [sp, #12]
 800b7fc:	ea43 73e3 	orr.w	r3, r3, r3, asr #31
 800b800:	3402      	adds	r4, #2
 800b802:	9305      	str	r3, [sp, #20]
 800b804:	f8df a0c0 	ldr.w	sl, [pc, #192]	@ 800b8c8 <_svfiprintf_r+0x1f4>
 800b808:	7821      	ldrb	r1, [r4, #0]
 800b80a:	2203      	movs	r2, #3
 800b80c:	4650      	mov	r0, sl
 800b80e:	f7f4 fce7 	bl	80001e0 <memchr>
 800b812:	b138      	cbz	r0, 800b824 <_svfiprintf_r+0x150>
 800b814:	9b04      	ldr	r3, [sp, #16]
 800b816:	eba0 000a 	sub.w	r0, r0, sl
 800b81a:	2240      	movs	r2, #64	@ 0x40
 800b81c:	4082      	lsls	r2, r0
 800b81e:	4313      	orrs	r3, r2
 800b820:	3401      	adds	r4, #1
 800b822:	9304      	str	r3, [sp, #16]
 800b824:	f814 1b01 	ldrb.w	r1, [r4], #1
 800b828:	4824      	ldr	r0, [pc, #144]	@ (800b8bc <_svfiprintf_r+0x1e8>)
 800b82a:	f88d 1028 	strb.w	r1, [sp, #40]	@ 0x28
 800b82e:	2206      	movs	r2, #6
 800b830:	f7f4 fcd6 	bl	80001e0 <memchr>
 800b834:	2800      	cmp	r0, #0
 800b836:	d036      	beq.n	800b8a6 <_svfiprintf_r+0x1d2>
 800b838:	4b21      	ldr	r3, [pc, #132]	@ (800b8c0 <_svfiprintf_r+0x1ec>)
 800b83a:	bb1b      	cbnz	r3, 800b884 <_svfiprintf_r+0x1b0>
 800b83c:	9b03      	ldr	r3, [sp, #12]
 800b83e:	3307      	adds	r3, #7
 800b840:	f023 0307 	bic.w	r3, r3, #7
 800b844:	3308      	adds	r3, #8
 800b846:	9303      	str	r3, [sp, #12]
 800b848:	9b09      	ldr	r3, [sp, #36]	@ 0x24
 800b84a:	4433      	add	r3, r6
 800b84c:	9309      	str	r3, [sp, #36]	@ 0x24
 800b84e:	e76a      	b.n	800b726 <_svfiprintf_r+0x52>
 800b850:	fb0c 3202 	mla	r2, ip, r2, r3
 800b854:	460c      	mov	r4, r1
 800b856:	2001      	movs	r0, #1
 800b858:	e7a8      	b.n	800b7ac <_svfiprintf_r+0xd8>
 800b85a:	2300      	movs	r3, #0
 800b85c:	3401      	adds	r4, #1
 800b85e:	9305      	str	r3, [sp, #20]
 800b860:	4619      	mov	r1, r3
 800b862:	f04f 0c0a 	mov.w	ip, #10
 800b866:	4620      	mov	r0, r4
 800b868:	f810 2b01 	ldrb.w	r2, [r0], #1
 800b86c:	3a30      	subs	r2, #48	@ 0x30
 800b86e:	2a09      	cmp	r2, #9
 800b870:	d903      	bls.n	800b87a <_svfiprintf_r+0x1a6>
 800b872:	2b00      	cmp	r3, #0
 800b874:	d0c6      	beq.n	800b804 <_svfiprintf_r+0x130>
 800b876:	9105      	str	r1, [sp, #20]
 800b878:	e7c4      	b.n	800b804 <_svfiprintf_r+0x130>
 800b87a:	fb0c 2101 	mla	r1, ip, r1, r2
 800b87e:	4604      	mov	r4, r0
 800b880:	2301      	movs	r3, #1
 800b882:	e7f0      	b.n	800b866 <_svfiprintf_r+0x192>
 800b884:	ab03      	add	r3, sp, #12
 800b886:	9300      	str	r3, [sp, #0]
 800b888:	462a      	mov	r2, r5
 800b88a:	4b0e      	ldr	r3, [pc, #56]	@ (800b8c4 <_svfiprintf_r+0x1f0>)
 800b88c:	a904      	add	r1, sp, #16
 800b88e:	4638      	mov	r0, r7
 800b890:	f7fd fe14 	bl	80094bc <_printf_float>
 800b894:	1c42      	adds	r2, r0, #1
 800b896:	4606      	mov	r6, r0
 800b898:	d1d6      	bne.n	800b848 <_svfiprintf_r+0x174>
 800b89a:	89ab      	ldrh	r3, [r5, #12]
 800b89c:	065b      	lsls	r3, r3, #25
 800b89e:	f53f af2d 	bmi.w	800b6fc <_svfiprintf_r+0x28>
 800b8a2:	9809      	ldr	r0, [sp, #36]	@ 0x24
 800b8a4:	e72c      	b.n	800b700 <_svfiprintf_r+0x2c>
 800b8a6:	ab03      	add	r3, sp, #12
 800b8a8:	9300      	str	r3, [sp, #0]
 800b8aa:	462a      	mov	r2, r5
 800b8ac:	4b05      	ldr	r3, [pc, #20]	@ (800b8c4 <_svfiprintf_r+0x1f0>)
 800b8ae:	a904      	add	r1, sp, #16
 800b8b0:	4638      	mov	r0, r7
 800b8b2:	f7fe f89b 	bl	80099ec <_printf_i>
 800b8b6:	e7ed      	b.n	800b894 <_svfiprintf_r+0x1c0>
 800b8b8:	0800c3b2 	.word	0x0800c3b2
 800b8bc:	0800c3bc 	.word	0x0800c3bc
 800b8c0:	080094bd 	.word	0x080094bd
 800b8c4:	0800b61d 	.word	0x0800b61d
 800b8c8:	0800c3b8 	.word	0x0800c3b8

0800b8cc <__sflush_r>:
 800b8cc:	f9b1 200c 	ldrsh.w	r2, [r1, #12]
 800b8d0:	e92d 41f0 	stmdb	sp!, {r4, r5, r6, r7, r8, lr}
 800b8d4:	0716      	lsls	r6, r2, #28
 800b8d6:	4605      	mov	r5, r0
 800b8d8:	460c      	mov	r4, r1
 800b8da:	d454      	bmi.n	800b986 <__sflush_r+0xba>
 800b8dc:	684b      	ldr	r3, [r1, #4]
 800b8de:	2b00      	cmp	r3, #0
 800b8e0:	dc02      	bgt.n	800b8e8 <__sflush_r+0x1c>
 800b8e2:	6c0b      	ldr	r3, [r1, #64]	@ 0x40
 800b8e4:	2b00      	cmp	r3, #0
 800b8e6:	dd48      	ble.n	800b97a <__sflush_r+0xae>
 800b8e8:	6ae6      	ldr	r6, [r4, #44]	@ 0x2c
 800b8ea:	2e00      	cmp	r6, #0
 800b8ec:	d045      	beq.n	800b97a <__sflush_r+0xae>
 800b8ee:	2300      	movs	r3, #0
 800b8f0:	f412 5280 	ands.w	r2, r2, #4096	@ 0x1000
 800b8f4:	682f      	ldr	r7, [r5, #0]
 800b8f6:	6a21      	ldr	r1, [r4, #32]
 800b8f8:	602b      	str	r3, [r5, #0]
 800b8fa:	d030      	beq.n	800b95e <__sflush_r+0x92>
 800b8fc:	6d62      	ldr	r2, [r4, #84]	@ 0x54
 800b8fe:	89a3      	ldrh	r3, [r4, #12]
 800b900:	0759      	lsls	r1, r3, #29
 800b902:	d505      	bpl.n	800b910 <__sflush_r+0x44>
 800b904:	6863      	ldr	r3, [r4, #4]
 800b906:	1ad2      	subs	r2, r2, r3
 800b908:	6b63      	ldr	r3, [r4, #52]	@ 0x34
 800b90a:	b10b      	cbz	r3, 800b910 <__sflush_r+0x44>
 800b90c:	6c23      	ldr	r3, [r4, #64]	@ 0x40
 800b90e:	1ad2      	subs	r2, r2, r3
 800b910:	2300      	movs	r3, #0
 800b912:	6ae6      	ldr	r6, [r4, #44]	@ 0x2c
 800b914:	6a21      	ldr	r1, [r4, #32]
 800b916:	4628      	mov	r0, r5
 800b918:	47b0      	blx	r6
 800b91a:	1c43      	adds	r3, r0, #1
 800b91c:	89a3      	ldrh	r3, [r4, #12]
 800b91e:	d106      	bne.n	800b92e <__sflush_r+0x62>
 800b920:	6829      	ldr	r1, [r5, #0]
 800b922:	291d      	cmp	r1, #29
 800b924:	d82b      	bhi.n	800b97e <__sflush_r+0xb2>
 800b926:	4a2a      	ldr	r2, [pc, #168]	@ (800b9d0 <__sflush_r+0x104>)
 800b928:	40ca      	lsrs	r2, r1
 800b92a:	07d6      	lsls	r6, r2, #31
 800b92c:	d527      	bpl.n	800b97e <__sflush_r+0xb2>
 800b92e:	2200      	movs	r2, #0
 800b930:	6062      	str	r2, [r4, #4]
 800b932:	04d9      	lsls	r1, r3, #19
 800b934:	6922      	ldr	r2, [r4, #16]
 800b936:	6022      	str	r2, [r4, #0]
 800b938:	d504      	bpl.n	800b944 <__sflush_r+0x78>
 800b93a:	1c42      	adds	r2, r0, #1
 800b93c:	d101      	bne.n	800b942 <__sflush_r+0x76>
 800b93e:	682b      	ldr	r3, [r5, #0]
 800b940:	b903      	cbnz	r3, 800b944 <__sflush_r+0x78>
 800b942:	6560      	str	r0, [r4, #84]	@ 0x54
 800b944:	6b61      	ldr	r1, [r4, #52]	@ 0x34
 800b946:	602f      	str	r7, [r5, #0]
 800b948:	b1b9      	cbz	r1, 800b97a <__sflush_r+0xae>
 800b94a:	f104 0344 	add.w	r3, r4, #68	@ 0x44
 800b94e:	4299      	cmp	r1, r3
 800b950:	d002      	beq.n	800b958 <__sflush_r+0x8c>
 800b952:	4628      	mov	r0, r5
 800b954:	f7ff f9e8 	bl	800ad28 <_free_r>
 800b958:	2300      	movs	r3, #0
 800b95a:	6363      	str	r3, [r4, #52]	@ 0x34
 800b95c:	e00d      	b.n	800b97a <__sflush_r+0xae>
 800b95e:	2301      	movs	r3, #1
 800b960:	4628      	mov	r0, r5
 800b962:	47b0      	blx	r6
 800b964:	4602      	mov	r2, r0
 800b966:	1c50      	adds	r0, r2, #1
 800b968:	d1c9      	bne.n	800b8fe <__sflush_r+0x32>
 800b96a:	682b      	ldr	r3, [r5, #0]
 800b96c:	2b00      	cmp	r3, #0
 800b96e:	d0c6      	beq.n	800b8fe <__sflush_r+0x32>
 800b970:	2b1d      	cmp	r3, #29
 800b972:	d001      	beq.n	800b978 <__sflush_r+0xac>
 800b974:	2b16      	cmp	r3, #22
 800b976:	d11e      	bne.n	800b9b6 <__sflush_r+0xea>
 800b978:	602f      	str	r7, [r5, #0]
 800b97a:	2000      	movs	r0, #0
 800b97c:	e022      	b.n	800b9c4 <__sflush_r+0xf8>
 800b97e:	f043 0340 	orr.w	r3, r3, #64	@ 0x40
 800b982:	b21b      	sxth	r3, r3
 800b984:	e01b      	b.n	800b9be <__sflush_r+0xf2>
 800b986:	690f      	ldr	r7, [r1, #16]
 800b988:	2f00      	cmp	r7, #0
 800b98a:	d0f6      	beq.n	800b97a <__sflush_r+0xae>
 800b98c:	0793      	lsls	r3, r2, #30
 800b98e:	680e      	ldr	r6, [r1, #0]
 800b990:	bf08      	it	eq
 800b992:	694b      	ldreq	r3, [r1, #20]
 800b994:	600f      	str	r7, [r1, #0]
 800b996:	bf18      	it	ne
 800b998:	2300      	movne	r3, #0
 800b99a:	eba6 0807 	sub.w	r8, r6, r7
 800b99e:	608b      	str	r3, [r1, #8]
 800b9a0:	f1b8 0f00 	cmp.w	r8, #0
 800b9a4:	dde9      	ble.n	800b97a <__sflush_r+0xae>
 800b9a6:	6a21      	ldr	r1, [r4, #32]
 800b9a8:	6aa6      	ldr	r6, [r4, #40]	@ 0x28
 800b9aa:	4643      	mov	r3, r8
 800b9ac:	463a      	mov	r2, r7
 800b9ae:	4628      	mov	r0, r5
 800b9b0:	47b0      	blx	r6
 800b9b2:	2800      	cmp	r0, #0
 800b9b4:	dc08      	bgt.n	800b9c8 <__sflush_r+0xfc>
 800b9b6:	f9b4 300c 	ldrsh.w	r3, [r4, #12]
 800b9ba:	f043 0340 	orr.w	r3, r3, #64	@ 0x40
 800b9be:	81a3      	strh	r3, [r4, #12]
 800b9c0:	f04f 30ff 	mov.w	r0, #4294967295
 800b9c4:	e8bd 81f0 	ldmia.w	sp!, {r4, r5, r6, r7, r8, pc}
 800b9c8:	4407      	add	r7, r0
 800b9ca:	eba8 0800 	sub.w	r8, r8, r0
 800b9ce:	e7e7      	b.n	800b9a0 <__sflush_r+0xd4>
 800b9d0:	20400001 	.word	0x20400001

0800b9d4 <_fflush_r>:
 800b9d4:	b538      	push	{r3, r4, r5, lr}
 800b9d6:	690b      	ldr	r3, [r1, #16]
 800b9d8:	4605      	mov	r5, r0
 800b9da:	460c      	mov	r4, r1
 800b9dc:	b913      	cbnz	r3, 800b9e4 <_fflush_r+0x10>
 800b9de:	2500      	movs	r5, #0
 800b9e0:	4628      	mov	r0, r5
 800b9e2:	bd38      	pop	{r3, r4, r5, pc}
 800b9e4:	b118      	cbz	r0, 800b9ee <_fflush_r+0x1a>
 800b9e6:	6a03      	ldr	r3, [r0, #32]
 800b9e8:	b90b      	cbnz	r3, 800b9ee <_fflush_r+0x1a>
 800b9ea:	f7fe f9a9 	bl	8009d40 <__sinit>
 800b9ee:	f9b4 300c 	ldrsh.w	r3, [r4, #12]
 800b9f2:	2b00      	cmp	r3, #0
 800b9f4:	d0f3      	beq.n	800b9de <_fflush_r+0xa>
 800b9f6:	6e62      	ldr	r2, [r4, #100]	@ 0x64
 800b9f8:	07d0      	lsls	r0, r2, #31
 800b9fa:	d404      	bmi.n	800ba06 <_fflush_r+0x32>
 800b9fc:	0599      	lsls	r1, r3, #22
 800b9fe:	d402      	bmi.n	800ba06 <_fflush_r+0x32>
 800ba00:	6da0      	ldr	r0, [r4, #88]	@ 0x58
 800ba02:	f7fe fb28 	bl	800a056 <__retarget_lock_acquire_recursive>
 800ba06:	4628      	mov	r0, r5
 800ba08:	4621      	mov	r1, r4
 800ba0a:	f7ff ff5f 	bl	800b8cc <__sflush_r>
 800ba0e:	6e63      	ldr	r3, [r4, #100]	@ 0x64
 800ba10:	07da      	lsls	r2, r3, #31
 800ba12:	4605      	mov	r5, r0
 800ba14:	d4e4      	bmi.n	800b9e0 <_fflush_r+0xc>
 800ba16:	89a3      	ldrh	r3, [r4, #12]
 800ba18:	059b      	lsls	r3, r3, #22
 800ba1a:	d4e1      	bmi.n	800b9e0 <_fflush_r+0xc>
 800ba1c:	6da0      	ldr	r0, [r4, #88]	@ 0x58
 800ba1e:	f7fe fb1b 	bl	800a058 <__retarget_lock_release_recursive>
 800ba22:	e7dd      	b.n	800b9e0 <_fflush_r+0xc>

0800ba24 <memmove>:
 800ba24:	4288      	cmp	r0, r1
 800ba26:	b510      	push	{r4, lr}
 800ba28:	eb01 0402 	add.w	r4, r1, r2
 800ba2c:	d902      	bls.n	800ba34 <memmove+0x10>
 800ba2e:	4284      	cmp	r4, r0
 800ba30:	4623      	mov	r3, r4
 800ba32:	d807      	bhi.n	800ba44 <memmove+0x20>
 800ba34:	1e43      	subs	r3, r0, #1
 800ba36:	42a1      	cmp	r1, r4
 800ba38:	d008      	beq.n	800ba4c <memmove+0x28>
 800ba3a:	f811 2b01 	ldrb.w	r2, [r1], #1
 800ba3e:	f803 2f01 	strb.w	r2, [r3, #1]!
 800ba42:	e7f8      	b.n	800ba36 <memmove+0x12>
 800ba44:	4402      	add	r2, r0
 800ba46:	4601      	mov	r1, r0
 800ba48:	428a      	cmp	r2, r1
 800ba4a:	d100      	bne.n	800ba4e <memmove+0x2a>
 800ba4c:	bd10      	pop	{r4, pc}
 800ba4e:	f813 4d01 	ldrb.w	r4, [r3, #-1]!
 800ba52:	f802 4d01 	strb.w	r4, [r2, #-1]!
 800ba56:	e7f7      	b.n	800ba48 <memmove+0x24>

0800ba58 <_sbrk_r>:
 800ba58:	b538      	push	{r3, r4, r5, lr}
 800ba5a:	4d06      	ldr	r5, [pc, #24]	@ (800ba74 <_sbrk_r+0x1c>)
 800ba5c:	2300      	movs	r3, #0
 800ba5e:	4604      	mov	r4, r0
 800ba60:	4608      	mov	r0, r1
 800ba62:	602b      	str	r3, [r5, #0]
 800ba64:	f7f7 f89e 	bl	8002ba4 <_sbrk>
 800ba68:	1c43      	adds	r3, r0, #1
 800ba6a:	d102      	bne.n	800ba72 <_sbrk_r+0x1a>
 800ba6c:	682b      	ldr	r3, [r5, #0]
 800ba6e:	b103      	cbz	r3, 800ba72 <_sbrk_r+0x1a>
 800ba70:	6023      	str	r3, [r4, #0]
 800ba72:	bd38      	pop	{r3, r4, r5, pc}
 800ba74:	200070ac 	.word	0x200070ac

0800ba78 <__assert_func>:
 800ba78:	b51f      	push	{r0, r1, r2, r3, r4, lr}
 800ba7a:	4614      	mov	r4, r2
 800ba7c:	461a      	mov	r2, r3
 800ba7e:	4b09      	ldr	r3, [pc, #36]	@ (800baa4 <__assert_func+0x2c>)
 800ba80:	681b      	ldr	r3, [r3, #0]
 800ba82:	4605      	mov	r5, r0
 800ba84:	68d8      	ldr	r0, [r3, #12]
 800ba86:	b14c      	cbz	r4, 800ba9c <__assert_func+0x24>
 800ba88:	4b07      	ldr	r3, [pc, #28]	@ (800baa8 <__assert_func+0x30>)
 800ba8a:	9100      	str	r1, [sp, #0]
 800ba8c:	e9cd 3401 	strd	r3, r4, [sp, #4]
 800ba90:	4906      	ldr	r1, [pc, #24]	@ (800baac <__assert_func+0x34>)
 800ba92:	462b      	mov	r3, r5
 800ba94:	f000 f870 	bl	800bb78 <fiprintf>
 800ba98:	f000 f880 	bl	800bb9c <abort>
 800ba9c:	4b04      	ldr	r3, [pc, #16]	@ (800bab0 <__assert_func+0x38>)
 800ba9e:	461c      	mov	r4, r3
 800baa0:	e7f3      	b.n	800ba8a <__assert_func+0x12>
 800baa2:	bf00      	nop
 800baa4:	2000010c 	.word	0x2000010c
 800baa8:	0800c3cd 	.word	0x0800c3cd
 800baac:	0800c3da 	.word	0x0800c3da
 800bab0:	0800c1e2 	.word	0x0800c1e2

0800bab4 <_calloc_r>:
 800bab4:	b570      	push	{r4, r5, r6, lr}
 800bab6:	fba1 5402 	umull	r5, r4, r1, r2
 800baba:	b934      	cbnz	r4, 800baca <_calloc_r+0x16>
 800babc:	4629      	mov	r1, r5
 800babe:	f7ff f9a7 	bl	800ae10 <_malloc_r>
 800bac2:	4606      	mov	r6, r0
 800bac4:	b928      	cbnz	r0, 800bad2 <_calloc_r+0x1e>
 800bac6:	4630      	mov	r0, r6
 800bac8:	bd70      	pop	{r4, r5, r6, pc}
 800baca:	220c      	movs	r2, #12
 800bacc:	6002      	str	r2, [r0, #0]
 800bace:	2600      	movs	r6, #0
 800bad0:	e7f9      	b.n	800bac6 <_calloc_r+0x12>
 800bad2:	462a      	mov	r2, r5
 800bad4:	4621      	mov	r1, r4
 800bad6:	f7fe f9e2 	bl	8009e9e <memset>
 800bada:	e7f4      	b.n	800bac6 <_calloc_r+0x12>

0800badc <__ascii_mbtowc>:
 800badc:	b082      	sub	sp, #8
 800bade:	b901      	cbnz	r1, 800bae2 <__ascii_mbtowc+0x6>
 800bae0:	a901      	add	r1, sp, #4
 800bae2:	b142      	cbz	r2, 800baf6 <__ascii_mbtowc+0x1a>
 800bae4:	b14b      	cbz	r3, 800bafa <__ascii_mbtowc+0x1e>
 800bae6:	7813      	ldrb	r3, [r2, #0]
 800bae8:	600b      	str	r3, [r1, #0]
 800baea:	7812      	ldrb	r2, [r2, #0]
 800baec:	1e10      	subs	r0, r2, #0
 800baee:	bf18      	it	ne
 800baf0:	2001      	movne	r0, #1
 800baf2:	b002      	add	sp, #8
 800baf4:	4770      	bx	lr
 800baf6:	4610      	mov	r0, r2
 800baf8:	e7fb      	b.n	800baf2 <__ascii_mbtowc+0x16>
 800bafa:	f06f 0001 	mvn.w	r0, #1
 800bafe:	e7f8      	b.n	800baf2 <__ascii_mbtowc+0x16>

0800bb00 <_realloc_r>:
 800bb00:	e92d 41f0 	stmdb	sp!, {r4, r5, r6, r7, r8, lr}
 800bb04:	4607      	mov	r7, r0
 800bb06:	4614      	mov	r4, r2
 800bb08:	460d      	mov	r5, r1
 800bb0a:	b921      	cbnz	r1, 800bb16 <_realloc_r+0x16>
 800bb0c:	e8bd 41f0 	ldmia.w	sp!, {r4, r5, r6, r7, r8, lr}
 800bb10:	4611      	mov	r1, r2
 800bb12:	f7ff b97d 	b.w	800ae10 <_malloc_r>
 800bb16:	b92a      	cbnz	r2, 800bb24 <_realloc_r+0x24>
 800bb18:	f7ff f906 	bl	800ad28 <_free_r>
 800bb1c:	4625      	mov	r5, r4
 800bb1e:	4628      	mov	r0, r5
 800bb20:	e8bd 81f0 	ldmia.w	sp!, {r4, r5, r6, r7, r8, pc}
 800bb24:	f000 f841 	bl	800bbaa <_malloc_usable_size_r>
 800bb28:	4284      	cmp	r4, r0
 800bb2a:	4606      	mov	r6, r0
 800bb2c:	d802      	bhi.n	800bb34 <_realloc_r+0x34>
 800bb2e:	ebb4 0f50 	cmp.w	r4, r0, lsr #1
 800bb32:	d8f4      	bhi.n	800bb1e <_realloc_r+0x1e>
 800bb34:	4621      	mov	r1, r4
 800bb36:	4638      	mov	r0, r7
 800bb38:	f7ff f96a 	bl	800ae10 <_malloc_r>
 800bb3c:	4680      	mov	r8, r0
 800bb3e:	b908      	cbnz	r0, 800bb44 <_realloc_r+0x44>
 800bb40:	4645      	mov	r5, r8
 800bb42:	e7ec      	b.n	800bb1e <_realloc_r+0x1e>
 800bb44:	42b4      	cmp	r4, r6
 800bb46:	4622      	mov	r2, r4
 800bb48:	4629      	mov	r1, r5
 800bb4a:	bf28      	it	cs
 800bb4c:	4632      	movcs	r2, r6
 800bb4e:	f7fe fa84 	bl	800a05a <memcpy>
 800bb52:	4629      	mov	r1, r5
 800bb54:	4638      	mov	r0, r7
 800bb56:	f7ff f8e7 	bl	800ad28 <_free_r>
 800bb5a:	e7f1      	b.n	800bb40 <_realloc_r+0x40>

0800bb5c <__ascii_wctomb>:
 800bb5c:	4603      	mov	r3, r0
 800bb5e:	4608      	mov	r0, r1
 800bb60:	b141      	cbz	r1, 800bb74 <__ascii_wctomb+0x18>
 800bb62:	2aff      	cmp	r2, #255	@ 0xff
 800bb64:	d904      	bls.n	800bb70 <__ascii_wctomb+0x14>
 800bb66:	228a      	movs	r2, #138	@ 0x8a
 800bb68:	601a      	str	r2, [r3, #0]
 800bb6a:	f04f 30ff 	mov.w	r0, #4294967295
 800bb6e:	4770      	bx	lr
 800bb70:	700a      	strb	r2, [r1, #0]
 800bb72:	2001      	movs	r0, #1
 800bb74:	4770      	bx	lr
	...

0800bb78 <fiprintf>:
 800bb78:	b40e      	push	{r1, r2, r3}
 800bb7a:	b503      	push	{r0, r1, lr}
 800bb7c:	4601      	mov	r1, r0
 800bb7e:	ab03      	add	r3, sp, #12
 800bb80:	4805      	ldr	r0, [pc, #20]	@ (800bb98 <fiprintf+0x20>)
 800bb82:	f853 2b04 	ldr.w	r2, [r3], #4
 800bb86:	6800      	ldr	r0, [r0, #0]
 800bb88:	9301      	str	r3, [sp, #4]
 800bb8a:	f000 f83f 	bl	800bc0c <_vfiprintf_r>
 800bb8e:	b002      	add	sp, #8
 800bb90:	f85d eb04 	ldr.w	lr, [sp], #4
 800bb94:	b003      	add	sp, #12
 800bb96:	4770      	bx	lr
 800bb98:	2000010c 	.word	0x2000010c

0800bb9c <abort>:
 800bb9c:	b508      	push	{r3, lr}
 800bb9e:	2006      	movs	r0, #6
 800bba0:	f000 fa08 	bl	800bfb4 <raise>
 800bba4:	2001      	movs	r0, #1
 800bba6:	f7f6 ffcf 	bl	8002b48 <_exit>

0800bbaa <_malloc_usable_size_r>:
 800bbaa:	f851 3c04 	ldr.w	r3, [r1, #-4]
 800bbae:	1f18      	subs	r0, r3, #4
 800bbb0:	2b00      	cmp	r3, #0
 800bbb2:	bfbc      	itt	lt
 800bbb4:	580b      	ldrlt	r3, [r1, r0]
 800bbb6:	18c0      	addlt	r0, r0, r3
 800bbb8:	4770      	bx	lr

0800bbba <__sfputc_r>:
 800bbba:	6893      	ldr	r3, [r2, #8]
 800bbbc:	3b01      	subs	r3, #1
 800bbbe:	2b00      	cmp	r3, #0
 800bbc0:	b410      	push	{r4}
 800bbc2:	6093      	str	r3, [r2, #8]
 800bbc4:	da08      	bge.n	800bbd8 <__sfputc_r+0x1e>
 800bbc6:	6994      	ldr	r4, [r2, #24]
 800bbc8:	42a3      	cmp	r3, r4
 800bbca:	db01      	blt.n	800bbd0 <__sfputc_r+0x16>
 800bbcc:	290a      	cmp	r1, #10
 800bbce:	d103      	bne.n	800bbd8 <__sfputc_r+0x1e>
 800bbd0:	f85d 4b04 	ldr.w	r4, [sp], #4
 800bbd4:	f000 b932 	b.w	800be3c <__swbuf_r>
 800bbd8:	6813      	ldr	r3, [r2, #0]
 800bbda:	1c58      	adds	r0, r3, #1
 800bbdc:	6010      	str	r0, [r2, #0]
 800bbde:	7019      	strb	r1, [r3, #0]
 800bbe0:	4608      	mov	r0, r1
 800bbe2:	f85d 4b04 	ldr.w	r4, [sp], #4
 800bbe6:	4770      	bx	lr

0800bbe8 <__sfputs_r>:
 800bbe8:	b5f8      	push	{r3, r4, r5, r6, r7, lr}
 800bbea:	4606      	mov	r6, r0
 800bbec:	460f      	mov	r7, r1
 800bbee:	4614      	mov	r4, r2
 800bbf0:	18d5      	adds	r5, r2, r3
 800bbf2:	42ac      	cmp	r4, r5
 800bbf4:	d101      	bne.n	800bbfa <__sfputs_r+0x12>
 800bbf6:	2000      	movs	r0, #0
 800bbf8:	e007      	b.n	800bc0a <__sfputs_r+0x22>
 800bbfa:	f814 1b01 	ldrb.w	r1, [r4], #1
 800bbfe:	463a      	mov	r2, r7
 800bc00:	4630      	mov	r0, r6
 800bc02:	f7ff ffda 	bl	800bbba <__sfputc_r>
 800bc06:	1c43      	adds	r3, r0, #1
 800bc08:	d1f3      	bne.n	800bbf2 <__sfputs_r+0xa>
 800bc0a:	bdf8      	pop	{r3, r4, r5, r6, r7, pc}

0800bc0c <_vfiprintf_r>:
 800bc0c:	e92d 4ff0 	stmdb	sp!, {r4, r5, r6, r7, r8, r9, sl, fp, lr}
 800bc10:	460d      	mov	r5, r1
 800bc12:	b09d      	sub	sp, #116	@ 0x74
 800bc14:	4614      	mov	r4, r2
 800bc16:	4698      	mov	r8, r3
 800bc18:	4606      	mov	r6, r0
 800bc1a:	b118      	cbz	r0, 800bc24 <_vfiprintf_r+0x18>
 800bc1c:	6a03      	ldr	r3, [r0, #32]
 800bc1e:	b90b      	cbnz	r3, 800bc24 <_vfiprintf_r+0x18>
 800bc20:	f7fe f88e 	bl	8009d40 <__sinit>
 800bc24:	6e6b      	ldr	r3, [r5, #100]	@ 0x64
 800bc26:	07d9      	lsls	r1, r3, #31
 800bc28:	d405      	bmi.n	800bc36 <_vfiprintf_r+0x2a>
 800bc2a:	89ab      	ldrh	r3, [r5, #12]
 800bc2c:	059a      	lsls	r2, r3, #22
 800bc2e:	d402      	bmi.n	800bc36 <_vfiprintf_r+0x2a>
 800bc30:	6da8      	ldr	r0, [r5, #88]	@ 0x58
 800bc32:	f7fe fa10 	bl	800a056 <__retarget_lock_acquire_recursive>
 800bc36:	89ab      	ldrh	r3, [r5, #12]
 800bc38:	071b      	lsls	r3, r3, #28
 800bc3a:	d501      	bpl.n	800bc40 <_vfiprintf_r+0x34>
 800bc3c:	692b      	ldr	r3, [r5, #16]
 800bc3e:	b99b      	cbnz	r3, 800bc68 <_vfiprintf_r+0x5c>
 800bc40:	4629      	mov	r1, r5
 800bc42:	4630      	mov	r0, r6
 800bc44:	f000 f938 	bl	800beb8 <__swsetup_r>
 800bc48:	b170      	cbz	r0, 800bc68 <_vfiprintf_r+0x5c>
 800bc4a:	6e6b      	ldr	r3, [r5, #100]	@ 0x64
 800bc4c:	07dc      	lsls	r4, r3, #31
 800bc4e:	d504      	bpl.n	800bc5a <_vfiprintf_r+0x4e>
 800bc50:	f04f 30ff 	mov.w	r0, #4294967295
 800bc54:	b01d      	add	sp, #116	@ 0x74
 800bc56:	e8bd 8ff0 	ldmia.w	sp!, {r4, r5, r6, r7, r8, r9, sl, fp, pc}
 800bc5a:	89ab      	ldrh	r3, [r5, #12]
 800bc5c:	0598      	lsls	r0, r3, #22
 800bc5e:	d4f7      	bmi.n	800bc50 <_vfiprintf_r+0x44>
 800bc60:	6da8      	ldr	r0, [r5, #88]	@ 0x58
 800bc62:	f7fe f9f9 	bl	800a058 <__retarget_lock_release_recursive>
 800bc66:	e7f3      	b.n	800bc50 <_vfiprintf_r+0x44>
 800bc68:	2300      	movs	r3, #0
 800bc6a:	9309      	str	r3, [sp, #36]	@ 0x24
 800bc6c:	2320      	movs	r3, #32
 800bc6e:	f88d 3029 	strb.w	r3, [sp, #41]	@ 0x29
 800bc72:	f8cd 800c 	str.w	r8, [sp, #12]
 800bc76:	2330      	movs	r3, #48	@ 0x30
 800bc78:	f8df 81ac 	ldr.w	r8, [pc, #428]	@ 800be28 <_vfiprintf_r+0x21c>
 800bc7c:	f88d 302a 	strb.w	r3, [sp, #42]	@ 0x2a
 800bc80:	f04f 0901 	mov.w	r9, #1
 800bc84:	4623      	mov	r3, r4
 800bc86:	469a      	mov	sl, r3
 800bc88:	f813 2b01 	ldrb.w	r2, [r3], #1
 800bc8c:	b10a      	cbz	r2, 800bc92 <_vfiprintf_r+0x86>
 800bc8e:	2a25      	cmp	r2, #37	@ 0x25
 800bc90:	d1f9      	bne.n	800bc86 <_vfiprintf_r+0x7a>
 800bc92:	ebba 0b04 	subs.w	fp, sl, r4
 800bc96:	d00b      	beq.n	800bcb0 <_vfiprintf_r+0xa4>
 800bc98:	465b      	mov	r3, fp
 800bc9a:	4622      	mov	r2, r4
 800bc9c:	4629      	mov	r1, r5
 800bc9e:	4630      	mov	r0, r6
 800bca0:	f7ff ffa2 	bl	800bbe8 <__sfputs_r>
 800bca4:	3001      	adds	r0, #1
 800bca6:	f000 80a7 	beq.w	800bdf8 <_vfiprintf_r+0x1ec>
 800bcaa:	9a09      	ldr	r2, [sp, #36]	@ 0x24
 800bcac:	445a      	add	r2, fp
 800bcae:	9209      	str	r2, [sp, #36]	@ 0x24
 800bcb0:	f89a 3000 	ldrb.w	r3, [sl]
 800bcb4:	2b00      	cmp	r3, #0
 800bcb6:	f000 809f 	beq.w	800bdf8 <_vfiprintf_r+0x1ec>
 800bcba:	2300      	movs	r3, #0
 800bcbc:	f04f 32ff 	mov.w	r2, #4294967295
 800bcc0:	e9cd 2305 	strd	r2, r3, [sp, #20]
 800bcc4:	f10a 0a01 	add.w	sl, sl, #1
 800bcc8:	9304      	str	r3, [sp, #16]
 800bcca:	9307      	str	r3, [sp, #28]
 800bccc:	f88d 3053 	strb.w	r3, [sp, #83]	@ 0x53
 800bcd0:	931a      	str	r3, [sp, #104]	@ 0x68
 800bcd2:	4654      	mov	r4, sl
 800bcd4:	2205      	movs	r2, #5
 800bcd6:	f814 1b01 	ldrb.w	r1, [r4], #1
 800bcda:	4853      	ldr	r0, [pc, #332]	@ (800be28 <_vfiprintf_r+0x21c>)
 800bcdc:	f7f4 fa80 	bl	80001e0 <memchr>
 800bce0:	9a04      	ldr	r2, [sp, #16]
 800bce2:	b9d8      	cbnz	r0, 800bd1c <_vfiprintf_r+0x110>
 800bce4:	06d1      	lsls	r1, r2, #27
 800bce6:	bf44      	itt	mi
 800bce8:	2320      	movmi	r3, #32
 800bcea:	f88d 3053 	strbmi.w	r3, [sp, #83]	@ 0x53
 800bcee:	0713      	lsls	r3, r2, #28
 800bcf0:	bf44      	itt	mi
 800bcf2:	232b      	movmi	r3, #43	@ 0x2b
 800bcf4:	f88d 3053 	strbmi.w	r3, [sp, #83]	@ 0x53
 800bcf8:	f89a 3000 	ldrb.w	r3, [sl]
 800bcfc:	2b2a      	cmp	r3, #42	@ 0x2a
 800bcfe:	d015      	beq.n	800bd2c <_vfiprintf_r+0x120>
 800bd00:	9a07      	ldr	r2, [sp, #28]
 800bd02:	4654      	mov	r4, sl
 800bd04:	2000      	movs	r0, #0
 800bd06:	f04f 0c0a 	mov.w	ip, #10
 800bd0a:	4621      	mov	r1, r4
 800bd0c:	f811 3b01 	ldrb.w	r3, [r1], #1
 800bd10:	3b30      	subs	r3, #48	@ 0x30
 800bd12:	2b09      	cmp	r3, #9
 800bd14:	d94b      	bls.n	800bdae <_vfiprintf_r+0x1a2>
 800bd16:	b1b0      	cbz	r0, 800bd46 <_vfiprintf_r+0x13a>
 800bd18:	9207      	str	r2, [sp, #28]
 800bd1a:	e014      	b.n	800bd46 <_vfiprintf_r+0x13a>
 800bd1c:	eba0 0308 	sub.w	r3, r0, r8
 800bd20:	fa09 f303 	lsl.w	r3, r9, r3
 800bd24:	4313      	orrs	r3, r2
 800bd26:	9304      	str	r3, [sp, #16]
 800bd28:	46a2      	mov	sl, r4
 800bd2a:	e7d2      	b.n	800bcd2 <_vfiprintf_r+0xc6>
 800bd2c:	9b03      	ldr	r3, [sp, #12]
 800bd2e:	1d19      	adds	r1, r3, #4
 800bd30:	681b      	ldr	r3, [r3, #0]
 800bd32:	9103      	str	r1, [sp, #12]
 800bd34:	2b00      	cmp	r3, #0
 800bd36:	bfbb      	ittet	lt
 800bd38:	425b      	neglt	r3, r3
 800bd3a:	f042 0202 	orrlt.w	r2, r2, #2
 800bd3e:	9307      	strge	r3, [sp, #28]
 800bd40:	9307      	strlt	r3, [sp, #28]
 800bd42:	bfb8      	it	lt
 800bd44:	9204      	strlt	r2, [sp, #16]
 800bd46:	7823      	ldrb	r3, [r4, #0]
 800bd48:	2b2e      	cmp	r3, #46	@ 0x2e
 800bd4a:	d10a      	bne.n	800bd62 <_vfiprintf_r+0x156>
 800bd4c:	7863      	ldrb	r3, [r4, #1]
 800bd4e:	2b2a      	cmp	r3, #42	@ 0x2a
 800bd50:	d132      	bne.n	800bdb8 <_vfiprintf_r+0x1ac>
 800bd52:	9b03      	ldr	r3, [sp, #12]
 800bd54:	1d1a      	adds	r2, r3, #4
 800bd56:	681b      	ldr	r3, [r3, #0]
 800bd58:	9203      	str	r2, [sp, #12]
 800bd5a:	ea43 73e3 	orr.w	r3, r3, r3, asr #31
 800bd5e:	3402      	adds	r4, #2
 800bd60:	9305      	str	r3, [sp, #20]
 800bd62:	f8df a0d4 	ldr.w	sl, [pc, #212]	@ 800be38 <_vfiprintf_r+0x22c>
 800bd66:	7821      	ldrb	r1, [r4, #0]
 800bd68:	2203      	movs	r2, #3
 800bd6a:	4650      	mov	r0, sl
 800bd6c:	f7f4 fa38 	bl	80001e0 <memchr>
 800bd70:	b138      	cbz	r0, 800bd82 <_vfiprintf_r+0x176>
 800bd72:	9b04      	ldr	r3, [sp, #16]
 800bd74:	eba0 000a 	sub.w	r0, r0, sl
 800bd78:	2240      	movs	r2, #64	@ 0x40
 800bd7a:	4082      	lsls	r2, r0
 800bd7c:	4313      	orrs	r3, r2
 800bd7e:	3401      	adds	r4, #1
 800bd80:	9304      	str	r3, [sp, #16]
 800bd82:	f814 1b01 	ldrb.w	r1, [r4], #1
 800bd86:	4829      	ldr	r0, [pc, #164]	@ (800be2c <_vfiprintf_r+0x220>)
 800bd88:	f88d 1028 	strb.w	r1, [sp, #40]	@ 0x28
 800bd8c:	2206      	movs	r2, #6
 800bd8e:	f7f4 fa27 	bl	80001e0 <memchr>
 800bd92:	2800      	cmp	r0, #0
 800bd94:	d03f      	beq.n	800be16 <_vfiprintf_r+0x20a>
 800bd96:	4b26      	ldr	r3, [pc, #152]	@ (800be30 <_vfiprintf_r+0x224>)
 800bd98:	bb1b      	cbnz	r3, 800bde2 <_vfiprintf_r+0x1d6>
 800bd9a:	9b03      	ldr	r3, [sp, #12]
 800bd9c:	3307      	adds	r3, #7
 800bd9e:	f023 0307 	bic.w	r3, r3, #7
 800bda2:	3308      	adds	r3, #8
 800bda4:	9303      	str	r3, [sp, #12]
 800bda6:	9b09      	ldr	r3, [sp, #36]	@ 0x24
 800bda8:	443b      	add	r3, r7
 800bdaa:	9309      	str	r3, [sp, #36]	@ 0x24
 800bdac:	e76a      	b.n	800bc84 <_vfiprintf_r+0x78>
 800bdae:	fb0c 3202 	mla	r2, ip, r2, r3
 800bdb2:	460c      	mov	r4, r1
 800bdb4:	2001      	movs	r0, #1
 800bdb6:	e7a8      	b.n	800bd0a <_vfiprintf_r+0xfe>
 800bdb8:	2300      	movs	r3, #0
 800bdba:	3401      	adds	r4, #1
 800bdbc:	9305      	str	r3, [sp, #20]
 800bdbe:	4619      	mov	r1, r3
 800bdc0:	f04f 0c0a 	mov.w	ip, #10
 800bdc4:	4620      	mov	r0, r4
 800bdc6:	f810 2b01 	ldrb.w	r2, [r0], #1
 800bdca:	3a30      	subs	r2, #48	@ 0x30
 800bdcc:	2a09      	cmp	r2, #9
 800bdce:	d903      	bls.n	800bdd8 <_vfiprintf_r+0x1cc>
 800bdd0:	2b00      	cmp	r3, #0
 800bdd2:	d0c6      	beq.n	800bd62 <_vfiprintf_r+0x156>
 800bdd4:	9105      	str	r1, [sp, #20]
 800bdd6:	e7c4      	b.n	800bd62 <_vfiprintf_r+0x156>
 800bdd8:	fb0c 2101 	mla	r1, ip, r1, r2
 800bddc:	4604      	mov	r4, r0
 800bdde:	2301      	movs	r3, #1
 800bde0:	e7f0      	b.n	800bdc4 <_vfiprintf_r+0x1b8>
 800bde2:	ab03      	add	r3, sp, #12
 800bde4:	9300      	str	r3, [sp, #0]
 800bde6:	462a      	mov	r2, r5
 800bde8:	4b12      	ldr	r3, [pc, #72]	@ (800be34 <_vfiprintf_r+0x228>)
 800bdea:	a904      	add	r1, sp, #16
 800bdec:	4630      	mov	r0, r6
 800bdee:	f7fd fb65 	bl	80094bc <_printf_float>
 800bdf2:	4607      	mov	r7, r0
 800bdf4:	1c78      	adds	r0, r7, #1
 800bdf6:	d1d6      	bne.n	800bda6 <_vfiprintf_r+0x19a>
 800bdf8:	6e6b      	ldr	r3, [r5, #100]	@ 0x64
 800bdfa:	07d9      	lsls	r1, r3, #31
 800bdfc:	d405      	bmi.n	800be0a <_vfiprintf_r+0x1fe>
 800bdfe:	89ab      	ldrh	r3, [r5, #12]
 800be00:	059a      	lsls	r2, r3, #22
 800be02:	d402      	bmi.n	800be0a <_vfiprintf_r+0x1fe>
 800be04:	6da8      	ldr	r0, [r5, #88]	@ 0x58
 800be06:	f7fe f927 	bl	800a058 <__retarget_lock_release_recursive>
 800be0a:	89ab      	ldrh	r3, [r5, #12]
 800be0c:	065b      	lsls	r3, r3, #25
 800be0e:	f53f af1f 	bmi.w	800bc50 <_vfiprintf_r+0x44>
 800be12:	9809      	ldr	r0, [sp, #36]	@ 0x24
 800be14:	e71e      	b.n	800bc54 <_vfiprintf_r+0x48>
 800be16:	ab03      	add	r3, sp, #12
 800be18:	9300      	str	r3, [sp, #0]
 800be1a:	462a      	mov	r2, r5
 800be1c:	4b05      	ldr	r3, [pc, #20]	@ (800be34 <_vfiprintf_r+0x228>)
 800be1e:	a904      	add	r1, sp, #16
 800be20:	4630      	mov	r0, r6
 800be22:	f7fd fde3 	bl	80099ec <_printf_i>
 800be26:	e7e4      	b.n	800bdf2 <_vfiprintf_r+0x1e6>
 800be28:	0800c3b2 	.word	0x0800c3b2
 800be2c:	0800c3bc 	.word	0x0800c3bc
 800be30:	080094bd 	.word	0x080094bd
 800be34:	0800bbe9 	.word	0x0800bbe9
 800be38:	0800c3b8 	.word	0x0800c3b8

0800be3c <__swbuf_r>:
 800be3c:	b5f8      	push	{r3, r4, r5, r6, r7, lr}
 800be3e:	460e      	mov	r6, r1
 800be40:	4614      	mov	r4, r2
 800be42:	4605      	mov	r5, r0
 800be44:	b118      	cbz	r0, 800be4e <__swbuf_r+0x12>
 800be46:	6a03      	ldr	r3, [r0, #32]
 800be48:	b90b      	cbnz	r3, 800be4e <__swbuf_r+0x12>
 800be4a:	f7fd ff79 	bl	8009d40 <__sinit>
 800be4e:	69a3      	ldr	r3, [r4, #24]
 800be50:	60a3      	str	r3, [r4, #8]
 800be52:	89a3      	ldrh	r3, [r4, #12]
 800be54:	071a      	lsls	r2, r3, #28
 800be56:	d501      	bpl.n	800be5c <__swbuf_r+0x20>
 800be58:	6923      	ldr	r3, [r4, #16]
 800be5a:	b943      	cbnz	r3, 800be6e <__swbuf_r+0x32>
 800be5c:	4621      	mov	r1, r4
 800be5e:	4628      	mov	r0, r5
 800be60:	f000 f82a 	bl	800beb8 <__swsetup_r>
 800be64:	b118      	cbz	r0, 800be6e <__swbuf_r+0x32>
 800be66:	f04f 37ff 	mov.w	r7, #4294967295
 800be6a:	4638      	mov	r0, r7
 800be6c:	bdf8      	pop	{r3, r4, r5, r6, r7, pc}
 800be6e:	6823      	ldr	r3, [r4, #0]
 800be70:	6922      	ldr	r2, [r4, #16]
 800be72:	1a98      	subs	r0, r3, r2
 800be74:	6963      	ldr	r3, [r4, #20]
 800be76:	b2f6      	uxtb	r6, r6
 800be78:	4283      	cmp	r3, r0
 800be7a:	4637      	mov	r7, r6
 800be7c:	dc05      	bgt.n	800be8a <__swbuf_r+0x4e>
 800be7e:	4621      	mov	r1, r4
 800be80:	4628      	mov	r0, r5
 800be82:	f7ff fda7 	bl	800b9d4 <_fflush_r>
 800be86:	2800      	cmp	r0, #0
 800be88:	d1ed      	bne.n	800be66 <__swbuf_r+0x2a>
 800be8a:	68a3      	ldr	r3, [r4, #8]
 800be8c:	3b01      	subs	r3, #1
 800be8e:	60a3      	str	r3, [r4, #8]
 800be90:	6823      	ldr	r3, [r4, #0]
 800be92:	1c5a      	adds	r2, r3, #1
 800be94:	6022      	str	r2, [r4, #0]
 800be96:	701e      	strb	r6, [r3, #0]
 800be98:	6962      	ldr	r2, [r4, #20]
 800be9a:	1c43      	adds	r3, r0, #1
 800be9c:	429a      	cmp	r2, r3
 800be9e:	d004      	beq.n	800beaa <__swbuf_r+0x6e>
 800bea0:	89a3      	ldrh	r3, [r4, #12]
 800bea2:	07db      	lsls	r3, r3, #31
 800bea4:	d5e1      	bpl.n	800be6a <__swbuf_r+0x2e>
 800bea6:	2e0a      	cmp	r6, #10
 800bea8:	d1df      	bne.n	800be6a <__swbuf_r+0x2e>
 800beaa:	4621      	mov	r1, r4
 800beac:	4628      	mov	r0, r5
 800beae:	f7ff fd91 	bl	800b9d4 <_fflush_r>
 800beb2:	2800      	cmp	r0, #0
 800beb4:	d0d9      	beq.n	800be6a <__swbuf_r+0x2e>
 800beb6:	e7d6      	b.n	800be66 <__swbuf_r+0x2a>

0800beb8 <__swsetup_r>:
 800beb8:	b538      	push	{r3, r4, r5, lr}
 800beba:	4b29      	ldr	r3, [pc, #164]	@ (800bf60 <__swsetup_r+0xa8>)
 800bebc:	4605      	mov	r5, r0
 800bebe:	6818      	ldr	r0, [r3, #0]
 800bec0:	460c      	mov	r4, r1
 800bec2:	b118      	cbz	r0, 800becc <__swsetup_r+0x14>
 800bec4:	6a03      	ldr	r3, [r0, #32]
 800bec6:	b90b      	cbnz	r3, 800becc <__swsetup_r+0x14>
 800bec8:	f7fd ff3a 	bl	8009d40 <__sinit>
 800becc:	f9b4 300c 	ldrsh.w	r3, [r4, #12]
 800bed0:	0719      	lsls	r1, r3, #28
 800bed2:	d422      	bmi.n	800bf1a <__swsetup_r+0x62>
 800bed4:	06da      	lsls	r2, r3, #27
 800bed6:	d407      	bmi.n	800bee8 <__swsetup_r+0x30>
 800bed8:	2209      	movs	r2, #9
 800beda:	602a      	str	r2, [r5, #0]
 800bedc:	f043 0340 	orr.w	r3, r3, #64	@ 0x40
 800bee0:	81a3      	strh	r3, [r4, #12]
 800bee2:	f04f 30ff 	mov.w	r0, #4294967295
 800bee6:	e033      	b.n	800bf50 <__swsetup_r+0x98>
 800bee8:	0758      	lsls	r0, r3, #29
 800beea:	d512      	bpl.n	800bf12 <__swsetup_r+0x5a>
 800beec:	6b61      	ldr	r1, [r4, #52]	@ 0x34
 800beee:	b141      	cbz	r1, 800bf02 <__swsetup_r+0x4a>
 800bef0:	f104 0344 	add.w	r3, r4, #68	@ 0x44
 800bef4:	4299      	cmp	r1, r3
 800bef6:	d002      	beq.n	800befe <__swsetup_r+0x46>
 800bef8:	4628      	mov	r0, r5
 800befa:	f7fe ff15 	bl	800ad28 <_free_r>
 800befe:	2300      	movs	r3, #0
 800bf00:	6363      	str	r3, [r4, #52]	@ 0x34
 800bf02:	89a3      	ldrh	r3, [r4, #12]
 800bf04:	f023 0324 	bic.w	r3, r3, #36	@ 0x24
 800bf08:	81a3      	strh	r3, [r4, #12]
 800bf0a:	2300      	movs	r3, #0
 800bf0c:	6063      	str	r3, [r4, #4]
 800bf0e:	6923      	ldr	r3, [r4, #16]
 800bf10:	6023      	str	r3, [r4, #0]
 800bf12:	89a3      	ldrh	r3, [r4, #12]
 800bf14:	f043 0308 	orr.w	r3, r3, #8
 800bf18:	81a3      	strh	r3, [r4, #12]
 800bf1a:	6923      	ldr	r3, [r4, #16]
 800bf1c:	b94b      	cbnz	r3, 800bf32 <__swsetup_r+0x7a>
 800bf1e:	89a3      	ldrh	r3, [r4, #12]
 800bf20:	f403 7320 	and.w	r3, r3, #640	@ 0x280
 800bf24:	f5b3 7f00 	cmp.w	r3, #512	@ 0x200
 800bf28:	d003      	beq.n	800bf32 <__swsetup_r+0x7a>
 800bf2a:	4621      	mov	r1, r4
 800bf2c:	4628      	mov	r0, r5
 800bf2e:	f000 f883 	bl	800c038 <__smakebuf_r>
 800bf32:	f9b4 300c 	ldrsh.w	r3, [r4, #12]
 800bf36:	f013 0201 	ands.w	r2, r3, #1
 800bf3a:	d00a      	beq.n	800bf52 <__swsetup_r+0x9a>
 800bf3c:	2200      	movs	r2, #0
 800bf3e:	60a2      	str	r2, [r4, #8]
 800bf40:	6962      	ldr	r2, [r4, #20]
 800bf42:	4252      	negs	r2, r2
 800bf44:	61a2      	str	r2, [r4, #24]
 800bf46:	6922      	ldr	r2, [r4, #16]
 800bf48:	b942      	cbnz	r2, 800bf5c <__swsetup_r+0xa4>
 800bf4a:	f013 0080 	ands.w	r0, r3, #128	@ 0x80
 800bf4e:	d1c5      	bne.n	800bedc <__swsetup_r+0x24>
 800bf50:	bd38      	pop	{r3, r4, r5, pc}
 800bf52:	0799      	lsls	r1, r3, #30
 800bf54:	bf58      	it	pl
 800bf56:	6962      	ldrpl	r2, [r4, #20]
 800bf58:	60a2      	str	r2, [r4, #8]
 800bf5a:	e7f4      	b.n	800bf46 <__swsetup_r+0x8e>
 800bf5c:	2000      	movs	r0, #0
 800bf5e:	e7f7      	b.n	800bf50 <__swsetup_r+0x98>
 800bf60:	2000010c 	.word	0x2000010c

0800bf64 <_raise_r>:
 800bf64:	291f      	cmp	r1, #31
 800bf66:	b538      	push	{r3, r4, r5, lr}
 800bf68:	4605      	mov	r5, r0
 800bf6a:	460c      	mov	r4, r1
 800bf6c:	d904      	bls.n	800bf78 <_raise_r+0x14>
 800bf6e:	2316      	movs	r3, #22
 800bf70:	6003      	str	r3, [r0, #0]
 800bf72:	f04f 30ff 	mov.w	r0, #4294967295
 800bf76:	bd38      	pop	{r3, r4, r5, pc}
 800bf78:	6bc2      	ldr	r2, [r0, #60]	@ 0x3c
 800bf7a:	b112      	cbz	r2, 800bf82 <_raise_r+0x1e>
 800bf7c:	f852 3021 	ldr.w	r3, [r2, r1, lsl #2]
 800bf80:	b94b      	cbnz	r3, 800bf96 <_raise_r+0x32>
 800bf82:	4628      	mov	r0, r5
 800bf84:	f000 f830 	bl	800bfe8 <_getpid_r>
 800bf88:	4622      	mov	r2, r4
 800bf8a:	4601      	mov	r1, r0
 800bf8c:	4628      	mov	r0, r5
 800bf8e:	e8bd 4038 	ldmia.w	sp!, {r3, r4, r5, lr}
 800bf92:	f000 b817 	b.w	800bfc4 <_kill_r>
 800bf96:	2b01      	cmp	r3, #1
 800bf98:	d00a      	beq.n	800bfb0 <_raise_r+0x4c>
 800bf9a:	1c59      	adds	r1, r3, #1
 800bf9c:	d103      	bne.n	800bfa6 <_raise_r+0x42>
 800bf9e:	2316      	movs	r3, #22
 800bfa0:	6003      	str	r3, [r0, #0]
 800bfa2:	2001      	movs	r0, #1
 800bfa4:	e7e7      	b.n	800bf76 <_raise_r+0x12>
 800bfa6:	2100      	movs	r1, #0
 800bfa8:	f842 1024 	str.w	r1, [r2, r4, lsl #2]
 800bfac:	4620      	mov	r0, r4
 800bfae:	4798      	blx	r3
 800bfb0:	2000      	movs	r0, #0
 800bfb2:	e7e0      	b.n	800bf76 <_raise_r+0x12>

0800bfb4 <raise>:
 800bfb4:	4b02      	ldr	r3, [pc, #8]	@ (800bfc0 <raise+0xc>)
 800bfb6:	4601      	mov	r1, r0
 800bfb8:	6818      	ldr	r0, [r3, #0]
 800bfba:	f7ff bfd3 	b.w	800bf64 <_raise_r>
 800bfbe:	bf00      	nop
 800bfc0:	2000010c 	.word	0x2000010c

0800bfc4 <_kill_r>:
 800bfc4:	b538      	push	{r3, r4, r5, lr}
 800bfc6:	4d07      	ldr	r5, [pc, #28]	@ (800bfe4 <_kill_r+0x20>)
 800bfc8:	2300      	movs	r3, #0
 800bfca:	4604      	mov	r4, r0
 800bfcc:	4608      	mov	r0, r1
 800bfce:	4611      	mov	r1, r2
 800bfd0:	602b      	str	r3, [r5, #0]
 800bfd2:	f7f6 fdb1 	bl	8002b38 <_kill>
 800bfd6:	1c43      	adds	r3, r0, #1
 800bfd8:	d102      	bne.n	800bfe0 <_kill_r+0x1c>
 800bfda:	682b      	ldr	r3, [r5, #0]
 800bfdc:	b103      	cbz	r3, 800bfe0 <_kill_r+0x1c>
 800bfde:	6023      	str	r3, [r4, #0]
 800bfe0:	bd38      	pop	{r3, r4, r5, pc}
 800bfe2:	bf00      	nop
 800bfe4:	200070ac 	.word	0x200070ac

0800bfe8 <_getpid_r>:
 800bfe8:	f7f6 bda4 	b.w	8002b34 <_getpid>

0800bfec <__swhatbuf_r>:
 800bfec:	b570      	push	{r4, r5, r6, lr}
 800bfee:	460c      	mov	r4, r1
 800bff0:	f9b1 100e 	ldrsh.w	r1, [r1, #14]
 800bff4:	2900      	cmp	r1, #0
 800bff6:	b096      	sub	sp, #88	@ 0x58
 800bff8:	4615      	mov	r5, r2
 800bffa:	461e      	mov	r6, r3
 800bffc:	da0d      	bge.n	800c01a <__swhatbuf_r+0x2e>
 800bffe:	89a3      	ldrh	r3, [r4, #12]
 800c000:	f013 0f80 	tst.w	r3, #128	@ 0x80
 800c004:	f04f 0100 	mov.w	r1, #0
 800c008:	bf14      	ite	ne
 800c00a:	2340      	movne	r3, #64	@ 0x40
 800c00c:	f44f 6380 	moveq.w	r3, #1024	@ 0x400
 800c010:	2000      	movs	r0, #0
 800c012:	6031      	str	r1, [r6, #0]
 800c014:	602b      	str	r3, [r5, #0]
 800c016:	b016      	add	sp, #88	@ 0x58
 800c018:	bd70      	pop	{r4, r5, r6, pc}
 800c01a:	466a      	mov	r2, sp
 800c01c:	f000 f848 	bl	800c0b0 <_fstat_r>
 800c020:	2800      	cmp	r0, #0
 800c022:	dbec      	blt.n	800bffe <__swhatbuf_r+0x12>
 800c024:	9901      	ldr	r1, [sp, #4]
 800c026:	f401 4170 	and.w	r1, r1, #61440	@ 0xf000
 800c02a:	f5a1 5300 	sub.w	r3, r1, #8192	@ 0x2000
 800c02e:	4259      	negs	r1, r3
 800c030:	4159      	adcs	r1, r3
 800c032:	f44f 6380 	mov.w	r3, #1024	@ 0x400
 800c036:	e7eb      	b.n	800c010 <__swhatbuf_r+0x24>

0800c038 <__smakebuf_r>:
 800c038:	898b      	ldrh	r3, [r1, #12]
 800c03a:	b5f7      	push	{r0, r1, r2, r4, r5, r6, r7, lr}
 800c03c:	079d      	lsls	r5, r3, #30
 800c03e:	4606      	mov	r6, r0
 800c040:	460c      	mov	r4, r1
 800c042:	d507      	bpl.n	800c054 <__smakebuf_r+0x1c>
 800c044:	f104 0347 	add.w	r3, r4, #71	@ 0x47
 800c048:	6023      	str	r3, [r4, #0]
 800c04a:	6123      	str	r3, [r4, #16]
 800c04c:	2301      	movs	r3, #1
 800c04e:	6163      	str	r3, [r4, #20]
 800c050:	b003      	add	sp, #12
 800c052:	bdf0      	pop	{r4, r5, r6, r7, pc}
 800c054:	ab01      	add	r3, sp, #4
 800c056:	466a      	mov	r2, sp
 800c058:	f7ff ffc8 	bl	800bfec <__swhatbuf_r>
 800c05c:	9f00      	ldr	r7, [sp, #0]
 800c05e:	4605      	mov	r5, r0
 800c060:	4639      	mov	r1, r7
 800c062:	4630      	mov	r0, r6
 800c064:	f7fe fed4 	bl	800ae10 <_malloc_r>
 800c068:	b948      	cbnz	r0, 800c07e <__smakebuf_r+0x46>
 800c06a:	f9b4 300c 	ldrsh.w	r3, [r4, #12]
 800c06e:	059a      	lsls	r2, r3, #22
 800c070:	d4ee      	bmi.n	800c050 <__smakebuf_r+0x18>
 800c072:	f023 0303 	bic.w	r3, r3, #3
 800c076:	f043 0302 	orr.w	r3, r3, #2
 800c07a:	81a3      	strh	r3, [r4, #12]
 800c07c:	e7e2      	b.n	800c044 <__smakebuf_r+0xc>
 800c07e:	89a3      	ldrh	r3, [r4, #12]
 800c080:	6020      	str	r0, [r4, #0]
 800c082:	f043 0380 	orr.w	r3, r3, #128	@ 0x80
 800c086:	81a3      	strh	r3, [r4, #12]
 800c088:	9b01      	ldr	r3, [sp, #4]
 800c08a:	e9c4 0704 	strd	r0, r7, [r4, #16]
 800c08e:	b15b      	cbz	r3, 800c0a8 <__smakebuf_r+0x70>
 800c090:	f9b4 100e 	ldrsh.w	r1, [r4, #14]
 800c094:	4630      	mov	r0, r6
 800c096:	f000 f81d 	bl	800c0d4 <_isatty_r>
 800c09a:	b128      	cbz	r0, 800c0a8 <__smakebuf_r+0x70>
 800c09c:	89a3      	ldrh	r3, [r4, #12]
 800c09e:	f023 0303 	bic.w	r3, r3, #3
 800c0a2:	f043 0301 	orr.w	r3, r3, #1
 800c0a6:	81a3      	strh	r3, [r4, #12]
 800c0a8:	89a3      	ldrh	r3, [r4, #12]
 800c0aa:	431d      	orrs	r5, r3
 800c0ac:	81a5      	strh	r5, [r4, #12]
 800c0ae:	e7cf      	b.n	800c050 <__smakebuf_r+0x18>

0800c0b0 <_fstat_r>:
 800c0b0:	b538      	push	{r3, r4, r5, lr}
 800c0b2:	4d07      	ldr	r5, [pc, #28]	@ (800c0d0 <_fstat_r+0x20>)
 800c0b4:	2300      	movs	r3, #0
 800c0b6:	4604      	mov	r4, r0
 800c0b8:	4608      	mov	r0, r1
 800c0ba:	4611      	mov	r1, r2
 800c0bc:	602b      	str	r3, [r5, #0]
 800c0be:	f7f6 fd68 	bl	8002b92 <_fstat>
 800c0c2:	1c43      	adds	r3, r0, #1
 800c0c4:	d102      	bne.n	800c0cc <_fstat_r+0x1c>
 800c0c6:	682b      	ldr	r3, [r5, #0]
 800c0c8:	b103      	cbz	r3, 800c0cc <_fstat_r+0x1c>
 800c0ca:	6023      	str	r3, [r4, #0]
 800c0cc:	bd38      	pop	{r3, r4, r5, pc}
 800c0ce:	bf00      	nop
 800c0d0:	200070ac 	.word	0x200070ac

0800c0d4 <_isatty_r>:
 800c0d4:	b538      	push	{r3, r4, r5, lr}
 800c0d6:	4d06      	ldr	r5, [pc, #24]	@ (800c0f0 <_isatty_r+0x1c>)
 800c0d8:	2300      	movs	r3, #0
 800c0da:	4604      	mov	r4, r0
 800c0dc:	4608      	mov	r0, r1
 800c0de:	602b      	str	r3, [r5, #0]
 800c0e0:	f7f6 fd5c 	bl	8002b9c <_isatty>
 800c0e4:	1c43      	adds	r3, r0, #1
 800c0e6:	d102      	bne.n	800c0ee <_isatty_r+0x1a>
 800c0e8:	682b      	ldr	r3, [r5, #0]
 800c0ea:	b103      	cbz	r3, 800c0ee <_isatty_r+0x1a>
 800c0ec:	6023      	str	r3, [r4, #0]
 800c0ee:	bd38      	pop	{r3, r4, r5, pc}
 800c0f0:	200070ac 	.word	0x200070ac

0800c0f4 <_init>:
 800c0f4:	b5f8      	push	{r3, r4, r5, r6, r7, lr}
 800c0f6:	bf00      	nop
 800c0f8:	bcf8      	pop	{r3, r4, r5, r6, r7}
 800c0fa:	bc08      	pop	{r3}
 800c0fc:	469e      	mov	lr, r3
 800c0fe:	4770      	bx	lr

0800c100 <_fini>:
 800c100:	b5f8      	push	{r3, r4, r5, r6, r7, lr}
 800c102:	bf00      	nop
 800c104:	bcf8      	pop	{r3, r4, r5, r6, r7}
 800c106:	bc08      	pop	{r3}
 800c108:	469e      	mov	lr, r3
 800c10a:	4770      	bx	lr
